 bcmihvui64

 Timestamp is 559e2df3 (Thu Jul 09 01:16:51 2015)

 Preferred load address is 0000000180000000

 Start         Length     Name                   Class
 0001:00000000 00000081H .text$di                CODE
 0001:00000090 0001d373H .text$mn                CODE
 0001:0001d410 00000ef9H .text$x                 CODE
 0001:0001e310 000000aeH .text$yd                CODE
 0002:00000000 00000510H .idata$5                DATA
 0002:00000510 00000008H .CRT$XCA                DATA
 0002:00000518 00000030H .CRT$XCU                DATA
 0002:00000548 00000008H .CRT$XCZ                DATA
 0002:00000550 00000008H .CRT$XIA                DATA
 0002:00000558 00000020H .CRT$XIC                DATA
 0002:00000578 00000008H .CRT$XIZ                DATA
 0002:00000580 00000008H .CRT$XPA                DATA
 0002:00000588 00000010H .CRT$XPX                DATA
 0002:00000598 00000008H .CRT$XPXA               DATA
 0002:000005a0 00000008H .CRT$XPZ                DATA
 0002:000005a8 00000008H .CRT$XTA                DATA
 0002:000005b0 00000008H .CRT$XTZ                DATA
 0002:000005c0 000089d0H .rdata                  DATA
 0002:00008f90 000000acH .rdata$debug            DATA
 0002:00009040 000010dcH .rdata$r                DATA
 0002:0000a120 00000008H .rtc$IAA                DATA
 0002:0000a128 00000008H .rtc$IZZ                DATA
 0002:0000a130 00000008H .rtc$TAA                DATA
 0002:0000a138 00000008H .rtc$TZZ                DATA
 0002:0000a140 00002f74H .xdata                  DATA
 0002:0000d0b8 00000234H .xdata$x                DATA
 0002:0000d2f0 000000a5H .edata                  DATA
 0002:0000d398 000000a0H .idata$2                DATA
 0002:0000d438 00000014H .idata$3                DATA
 0002:0000d450 00000510H .idata$4                DATA
 0002:0000d960 00000b52H .idata$6                DATA
 0003:00000000 00001948H .data                   DATA
 0003:00001948 0000058cH .data$r                 DATA
 0003:00001ee0 00002538H .bss                    DATA
 0004:00000000 00001df4H .pdata                  DATA
 0005:00000000 00017998H .rsrc$01                DATA
 0005:000179a0 00348618H .rsrc$02                DATA

  Address         Publics by Value              Rva+Base               Lib:Object

 0000:00000000       ___safe_se_handler_count   0000000000000000     <absolute>
 0000:00000000       ___safe_se_handler_table   0000000000000000     <absolute>
 0000:00000000       __guard_fids_table         0000000000000000     <absolute>
 0000:00000000       __guard_flags              0000000000000000     <absolute>
 0000:00000000       __guard_fids_count         0000000000000000     <absolute>
 0000:00000000       __ImageBase                0000000180000000     <linker-defined>
 0001:00000090       ?InitIhvCommon@@YAXXZ      0000000180001090 f   ihv_common.obj
 0001:000001d0       ?CopyCredential@@YAKPEBU_IHV_CREDENTIAL@@PEAPEAU1@@Z 00000001800011d0 f   ihv_common.obj
 0001:00000260       ?SecureCredential@@YAKPEBU_IHV_CREDENTIAL@@PEAPEAU1@H@Z 0000000180001260 f   ihv_common.obj
 0001:000003e0       IsolationAwareLoadLibraryW 00000001800013e0 f i CCXDllMain.obj
 0001:000004a0       WinbaseIsolationAwarePrivatetRgzlnPgpgk 00000001800014a0 f i CCXDllMain.obj
 0001:00000660       DllMain                    0000000180001660 f   CCXDllMain.obj
 0001:00000690       DllCanUnloadNow            0000000180001690 f   CCXDllMain.obj
 0001:000006b0       DllGetClassObject          00000001800016b0 f   CCXDllMain.obj
 0001:000006c0       DllRegisterServer          00000001800016c0 f   CCXDllMain.obj
 0001:000006d0       DllUnregisterServer        00000001800016d0 f   CCXDllMain.obj
 0001:00000b50       ?CreateInstance@CFactory@@UEAAJPEAUIUnknown@@AEBU_GUID@@PEAPEAX@Z 0000000180001b50 f i CCXDllMain.obj
 0001:00000e00       ?LockServer@CFactory@@UEAAJH@Z 0000000180001e00 f i CCXDllMain.obj
 0001:00000e20       ?AddRef@CFactory@@UEAAKXZ  0000000180001e20 f i CCXDllMain.obj
 0001:00000e20       ?AddRef@CExtUISec@@UEAAKXZ 0000000180001e20 f i CCXExtUI.obj
 0001:00000e20       ?AddRef@CExtUICon@@UEAAKXZ 0000000180001e20 f i CCXExtUI.obj
 0001:00000e20       ?AddRef@CExtUIKey@@UEAAKXZ 0000000180001e20 f i CCXExtUI.obj
 0001:00000e30       ?Release@CFactory@@UEAAKXZ 0000000180001e30 f i CCXDllMain.obj
 0001:00000e60       ?QueryInterface@CFactory@@UEAAJAEBU_GUID@@PEAPEAX@Z 0000000180001e60 f i CCXDllMain.obj
 0001:00000ed0       ?GUID_COMPONENT@@YAAEBU_GUID@@XZ 0000000180001ed0 f   CCXDllMain.obj
 0001:00001130       IsolationAwarePrivatezlybNQyVOeNelJ 0000000180002130 f i CCXExtUI.obj
 0001:00001140       IsolationAwareDialogBoxParamW 0000000180002140 f i CCXExtUI.obj
 0001:00001230       IsolationAwareCreatePropertySheetPageW 0000000180002230 f i CCXExtUI.obj
 0001:00001340       PrshtIsolationAwarePrivatetRgCebPnQQeRff_pbZPgYQP_QYY 0000000180002340 f i CCXExtUI.obj
 0001:00001440       ??0_bstr_t@@QEAA@PEB_W@Z   0000000180002440 f i CCXExtUI.obj
 0001:000014d0       ??1_bstr_t@@QEAA@XZ        00000001800024d0 f i CCXExtUI.obj
 0001:00001540       ??0Data_t@_bstr_t@@QEAA@AEBV1@0@Z 0000000180002540 f i CCXExtUI.obj
 0001:00001660       ?AddRef@CExtUI@@UEAAKXZ    0000000180002660 f i CCXExtUI.obj
 0001:00001670       ?Release@CExtUI@@UEAAKXZ   0000000180002670 f i CCXExtUI.obj
 0001:000016b0       ?QueryInterface@CExtUI@@UEAAJAEBU_GUID@@PEAPEAX@Z 00000001800026b0 f i CCXExtUI.obj
 0001:00001790       ?Release@CExtUICon@@UEAAKXZ 0000000180002790 f i CCXExtUI.obj
 0001:000017e0       ?QueryInterface@CExtUICon@@UEAAJAEBU_GUID@@PEAPEAX@Z 00000001800027e0 f i CCXExtUI.obj
 0001:00001850       ?Release@CExtUIKey@@UEAAKXZ 0000000180002850 f i CCXExtUI.obj
 0001:00001890       ?QueryInterface@CExtUIKey@@UEAAJAEBU_GUID@@PEAPEAX@Z 0000000180002890 f i CCXExtUI.obj
 0001:00001900       ?Release@CExtUISec@@UEAAKXZ 0000000180002900 f i CCXExtUI.obj
 0001:00001940       ?QueryInterface@CExtUISec@@UEAAJAEBU_GUID@@PEAPEAX@Z 0000000180002940 f i CCXExtUI.obj
 0001:000019b0       ?GetKeyPtr@KeyInputDlg@@UEAAPEA_WXZ 00000001800029b0 f i CCXExtUI.obj
 0001:000019c0       ??$destroy@PEAU?$_Tree_node@U?$pair@$$CBV?$basic_string@_WU?$char_traits@_W@std@@V?$allocator@_W@2@@std@@H@std@@PEAX@std@@@?$_Wrap_alloc@V?$allocator@U?$_Tree_node@U?$pair@$$CBV?$basic_string@_WU?$char_traits@_W@std@@V?$allocator@_W@2@@std@@H@std@@PEAX@std@@@std@@@std@@QEAAXPEAPEAU?$_Tree_node@U?$pair@$$CBV?$basic_string@_WU?$char_traits@_W@std@@V?$allocator@_W@2@@std@@H@std@@PEAX@1@@Z 00000001800029c0 f i i18nW.obj
 0001:000019c0       ?Notify_IsValid@CertPropertyDlg@@MEAAXH@Z 00000001800029c0 f i CCXExtUI.obj
 0001:000019c0       ?Notify_IsValid@KeyInputDlg@@UEAAXH@Z 00000001800029c0 f i CCXExtUI.obj
 0001:000019c0       ?OnCancel@CertSelectorDlg@@EEAAXXZ 00000001800029c0 f i CCXExtUI.obj
 0001:000019c0       ??3@YAXPEAX0@Z             00000001800029c0 f i CCXExtUI.obj
 0001:000019d0       ?GetCertificate@CertPropertyDlg@@UEBAPEBU_CERT_CONTEXT@@XZ 00000001800029d0 f i CCXExtUI.obj
 0001:000019e0       ?IsValid@CertPropertyDlg@@UEBAHXZ 00000001800029e0 f i CCXExtUI.obj
 0001:00001a20       ?OnSelectCertificate@CertSelectorDlg@@EEAAHXZ 0000000180002a20 f i CCXExtUI.obj
 0001:00001a20       ?OnViewCertificate@CertSelectorDlg@@EEAAHXZ 0000000180002a20 f i CCXExtUI.obj
 0001:00001a30       ??_E_Generic_error_category@std@@UEAAPEAXI@Z 0000000180002a30 f i * CIL library *:* CIL module *
 0001:00001a30       ??_G_System_error_category@std@@UEAAPEAXI@Z 0000000180002a30 f i CCXExtUI.obj
 0001:00001a30       ??_E_System_error_category@std@@UEAAPEAXI@Z 0000000180002a30 f i * CIL library *:* CIL module *
 0001:00001a30       ??_G_Generic_error_category@std@@UEAAPEAXI@Z 0000000180002a30 f i CCXExtUI.obj
 0001:00001a30       ??_Gerror_category@std@@UEAAPEAXI@Z 0000000180002a30 f i CCXExtUI.obj
 0001:00001a30       ??_E_Iostream_error_category@std@@UEAAPEAXI@Z 0000000180002a30 f i * CIL library *:* CIL module *
 0001:00001a30       ??_Eerror_category@std@@UEAAPEAXI@Z 0000000180002a30 f i * CIL library *:* CIL module *
 0001:00001a30       ??_G_Iostream_error_category@std@@UEAAPEAXI@Z 0000000180002a30 f i CCXExtUI.obj
 0001:00001a60       ?default_error_condition@error_category@std@@UEBA?AVerror_condition@2@H@Z 0000000180002a60 f i CCXExtUI.obj
 0001:00001a70       ?equivalent@error_category@std@@UEBA_NHAEBVerror_condition@2@@Z 0000000180002a70 f i CCXExtUI.obj
 0001:00001ab0       ?equivalent@error_category@std@@UEBA_NAEBVerror_code@2@H@Z 0000000180002ab0 f i CCXExtUI.obj
 0001:00001ad0       ?name@_Generic_error_category@std@@UEBAPEBDXZ 0000000180002ad0 f i CCXExtUI.obj
 0001:00001ae0       ?message@_Generic_error_category@std@@UEBA?AV?$basic_string@DU?$char_traits@D@std@@V?$allocator@D@2@@2@H@Z 0000000180002ae0 f i CCXExtUI.obj
 0001:00001b50       ?name@_Iostream_error_category@std@@UEBAPEBDXZ 0000000180002b50 f i CCXExtUI.obj
 0001:00001b60       ?message@_Iostream_error_category@std@@UEBA?AV?$basic_string@DU?$char_traits@D@std@@V?$allocator@D@2@@2@H@Z 0000000180002b60 f i CCXExtUI.obj
 0001:00001bb0       ?name@_System_error_category@std@@UEBAPEBDXZ 0000000180002bb0 f i CCXExtUI.obj
 0001:00001bc0       ?message@_System_error_category@std@@UEBA?AV?$basic_string@DU?$char_traits@D@std@@V?$allocator@D@2@@2@H@Z 0000000180002bc0 f i CCXExtUI.obj
 0001:00001c30       ?default_error_condition@_System_error_category@std@@UEBA?AVerror_condition@2@H@Z 0000000180002c30 f i CCXExtUI.obj
 0001:00001da0       ?OnInitDialog@WapiBaseKeyInputDlg@@MEAAHPEAUHWND__@@@Z 0000000180002da0 f i CCXExtUI.obj
 0001:00001e80       ?CheckValid@WapiCertPropDlg@@UEBAKPEBU_CERT_CONTEXT@@@Z 0000000180002e80 f i CCXExtUI.obj
 0001:00001e80       ?CheckValid@WapiCertPropertyDlg@@UEBAKPEBU_CERT_CONTEXT@@@Z 0000000180002e80 f i CCXExtUI.obj
 0001:00001ee0       ??_GWapiCertPropertyDlg@@UEAAPEAXI@Z 0000000180002ee0 f i CCXExtUI.obj
 0001:00001ee0       ??_GWapiCertPropDlg@@UEAAPEAXI@Z 0000000180002ee0 f i CCXExtUI.obj
 0001:00001ee0       ??_ECertPropertyDlg@@UEAAPEAXI@Z 0000000180002ee0 f i * CIL library *:* CIL module *
 0001:00001ee0       ??_GCertPropertyDlg@@UEAAPEAXI@Z 0000000180002ee0 f i CertPropertyDlg.obj
 0001:00001ee0       ??_EWapiCertPropDlg@@UEAAPEAXI@Z 0000000180002ee0 f i * CIL library *:* CIL module *
 0001:00001ee0       ??_EWapiCertPropertyDlg@@UEAAPEAXI@Z 0000000180002ee0 f i * CIL library *:* CIL module *
 0001:00001f40       ??1CExtUI@@QEAA@XZ         0000000180002f40 f   CCXExtUI.obj
 0001:00001fc0       ?GetDot11ExtUIFriendlyName@CExtUI@@UEAAJPEAPEA_W@Z 0000000180002fc0 f   CCXExtUI.obj
 0001:00002090       ?GetDot11ExtUIProperties@CExtUI@@UEAAJW4_DOT11_EXT_UI_PROPERTY_TYPE@@PEAKPEAPEAUIDot11ExtUIProperty@@@Z 0000000180003090 f   CCXExtUI.obj
 0001:00002360       ?Dot11ExtUIPropertyGetSelected@CExtUICon@@UEAAJPEA_WPEAU_DOT11EXT_IHV_PARAMS@@PEAH@Z 0000000180003360 f   CCXExtUI.obj
 0001:00002360       ?Dot11ExtUIPropertySetDisplayInfo@CExtUICon@@UEAAJW4_DOT11_EXT_UI_DISPLAY_INFO_TYPE@@PEA_WPEAU_DOT11EXT_IHV_PARAMS@@PEAU_DOT11_EXT_UI_PROPERTY_DISPLAY_INFO@@PEAPEA_WPEAH@Z 0000000180003360 f   CCXExtUI.obj
 0001:00002360       ?DisplayDot11ExtUIProperty@CExtUIKey@@UEAAJPEAUHWND__@@PEA_WPEAU_DOT11EXT_IHV_PARAMS@@PEAPEA_WPEAH@Z 0000000180003360 f   CCXExtUI.obj
 0001:00002360       ?Dot11ExtUIPropertyIsStandardSecurity@CExtUICon@@UEAAJPEAHPEAW4_DOT11_EXT_UI_SECURITY_TYPE@@@Z 0000000180003360 f   CCXExtUI.obj
 0001:00002360       ?GetDot11ExtUIBalloonText@CExtUI@@UEAAJPEA_WPEAPEA_W@Z 0000000180003360 f   CCXExtUI.obj
 0001:00002360       ?Dot11ExtUIPropertySetSelected@CExtUICon@@UEAAJPEA_WPEAU_DOT11EXT_IHV_PARAMS@@PEAPEA_WPEAH@Z 0000000180003360 f   CCXExtUI.obj
 0001:00002360       ?Dot11ExtUIPropertyGetDisplayInfo@CExtUICon@@UEAAJW4_DOT11_EXT_UI_DISPLAY_INFO_TYPE@@PEA_WPEAU_DOT11EXT_IHV_PARAMS@@PEAK3PEAPEAU_DOT11_EXT_UI_PROPERTY_DISPLAY_INFO@@@Z 0000000180003360 f   CCXExtUI.obj
 0001:00002370       ?SetSite@CExtUI@@UEAAJPEAUIUnknown@@@Z 0000000180003370 f   CCXExtUI.obj
 0001:000023b0       ?GetSite@CExtUI@@UEAAJAEBU_GUID@@PEAPEAX@Z 00000001800033b0 f   CCXExtUI.obj
 0001:000023d0       ?Notify_IsValid@WapiCertPropDlg@@UEAAXH@Z 00000001800033d0 f i CCXExtUI.obj
 0001:000023d0       ?Notify_IsValid@WapiKeyInputPropDlg@@UEAAXH@Z 00000001800033d0 f i CCXExtUI.obj
 0001:00002410       ??_EWapiKeyInputPropDlg@@UEAAPEAXI@Z 0000000180003410 f i * CIL library *:* CIL module *
 0001:00002410       ??_GKeyInputDlg@@UEAAPEAXI@Z 0000000180003410 f i KeyInputDlgW.obj
 0001:00002410       ??_GWapiKeyInputDlg@@UEAAPEAXI@Z 0000000180003410 f i CCXExtUI.obj
 0001:00002410       ??_GWapiKeyInputPropDlg@@UEAAPEAXI@Z 0000000180003410 f i CCXExtUI.obj
 0001:00002410       ??_EConnConfigDlg@@UEAAPEAXI@Z 0000000180003410 f i * CIL library *:* CIL module *
 0001:00002410       ??_EKeyInputDlg@@UEAAPEAXI@Z 0000000180003410 f i * CIL library *:* CIL module *
 0001:00002410       ??_EWapiKeyInputDlg@@UEAAPEAXI@Z 0000000180003410 f i * CIL library *:* CIL module *
 0001:00002410       ??_GConnConfigDlg@@UEAAPEAXI@Z 0000000180003410 f i ConnConfigDlg.obj
 0001:00002480       ??0WapiCertPropDlg@@QEAA@PEAUHINSTANCE__@@PEAX@Z 0000000180003480 f i CCXExtUI.obj
 0001:000024d0       ?OnInitDialog@WapiCertPropDlg@@UEAAHPEAUHWND__@@@Z 00000001800034d0 f i CCXExtUI.obj
 0001:00002520       ?ReadUiRequest@CExtUI@@AEAAJPEAPEAU_IHV_UI_REQUEST@@@Z 0000000180003520 f   CCXExtUI.obj
 0001:00002620       ?WriteUiResponse@CExtUI@@AEAAJPEBU_IHV_CREDENTIAL@@@Z 0000000180003620 f   CCXExtUI.obj
 0001:00002800       ?AddPages@CExtUI@@UEAAJPEAPEAU_PSP@@IPEAI@Z 0000000180003800 f   CCXExtUI.obj
 0001:00002980       ?GetFirstPage@CExtUI@@UEAAJPEAPEAU_PSP@@@Z 0000000180003980 f   CCXExtUI.obj
 0001:00002990       ?GetLastPage@CExtUI@@UEAAJPEAPEAU_PSP@@@Z 0000000180003990 f   CCXExtUI.obj
 0001:000029a0       ?GetClsidPropertyName@CExtUI@@AEAAJPEBU_GUID@@PEB_WPEA_WI@Z 00000001800039a0 f   CCXExtUI.obj
 0001:00002ad0       ??1CExtUIKey@@QEAA@XZ      0000000180003ad0 f   CCXExtUI.obj
 0001:00002c10       ?Customize@CExtUIKey@@UEAAJPEAE@Z 0000000180003c10 f   CCXExtUI.obj
 0001:00002d40       ?GetDot11ExtUIPropertyFriendlyName@CExtUIKey@@UEAAJPEAPEA_W@Z 0000000180003d40 f   CCXExtUI.obj
 0001:00002e00       ?Dot11ExtUIPropertyHasConfigurationUI@CExtUIKey@@UEAAJPEAH@Z 0000000180003e00 f   CCXExtUI.obj
 0001:00002e30       ?Dot11ExtUIPropertyIsStandardSecurity@CExtUIKey@@UEAAJPEAHPEAW4_DOT11_EXT_UI_SECURITY_TYPE@@@Z 0000000180003e30 f   CCXExtUI.obj
 0001:00002e70       ?Dot11ExtUIPropertyGetSelected@CExtUIKey@@UEAAJPEA_WPEAU_DOT11EXT_IHV_PARAMS@@PEAH@Z 0000000180003e70 f   CCXExtUI.obj
 0001:00002e70       ?Dot11ExtUIPropertyGetSelected@CExtUISec@@UEAAJPEA_WPEAU_DOT11EXT_IHV_PARAMS@@PEAH@Z 0000000180003e70 f   CCXExtUI.obj
 0001:00002f60       ?Dot11ExtUIPropertySetSelected@CExtUIKey@@UEAAJPEA_WPEAU_DOT11EXT_IHV_PARAMS@@PEAPEA_WPEAH@Z 0000000180003f60 f   CCXExtUI.obj
 0001:00003060       ?Dot11ExtUIPropertyGetDisplayInfo@CExtUIKey@@UEAAJW4_DOT11_EXT_UI_DISPLAY_INFO_TYPE@@PEA_WPEAU_DOT11EXT_IHV_PARAMS@@PEAK3PEAPEAU_DOT11_EXT_UI_PROPERTY_DISPLAY_INFO@@@Z 0000000180004060 f   CCXExtUI.obj
 0001:000031b0       ?Dot11ExtUIPropertySetDisplayInfo@CExtUIKey@@UEAAJW4_DOT11_EXT_UI_DISPLAY_INFO_TYPE@@PEA_WPEAU_DOT11EXT_IHV_PARAMS@@PEAU_DOT11_EXT_UI_PROPERTY_DISPLAY_INFO@@PEAPEA_WPEAH@Z 00000001800041b0 f   CCXExtUI.obj
 0001:000031b0       ?Dot11ExtUIPropertySetDisplayInfo@CExtUISec@@UEAAJW4_DOT11_EXT_UI_DISPLAY_INFO_TYPE@@PEA_WPEAU_DOT11EXT_IHV_PARAMS@@PEAU_DOT11_EXT_UI_PROPERTY_DISPLAY_INFO@@PEAPEA_WPEAH@Z 00000001800041b0 f   CCXExtUI.obj
 0001:000032c0       ??1CExtUISec@@QEAA@XZ      00000001800042c0 f   CCXExtUI.obj
 0001:00003400       ?Customize@CExtUISec@@QEAAJPEAE@Z 0000000180004400 f   CCXExtUI.obj
 0001:00003530       ?GetDot11ExtUIPropertyFriendlyName@CExtUISec@@UEAAJPEAPEA_W@Z 0000000180004530 f   CCXExtUI.obj
 0001:000035e0       ?Dot11ExtUIPropertyHasConfigurationUI@CExtUISec@@UEAAJPEAH@Z 00000001800045e0 f   CCXExtUI.obj
 0001:00003610       ?Dot11ExtUIPropertyIsStandardSecurity@CExtUISec@@UEAAJPEAHPEAW4_DOT11_EXT_UI_SECURITY_TYPE@@@Z 0000000180004610 f   CCXExtUI.obj
 0001:00003650       ?Dot11ExtUIPropertySetSelected@CExtUISec@@UEAAJPEA_WPEAU_DOT11EXT_IHV_PARAMS@@PEAPEA_WPEAH@Z 0000000180004650 f   CCXExtUI.obj
 0001:00003750       ?Dot11ExtUIPropertyGetDisplayInfo@CExtUISec@@UEAAJW4_DOT11_EXT_UI_DISPLAY_INFO_TYPE@@PEA_WPEAU_DOT11EXT_IHV_PARAMS@@PEAK3PEAPEAU_DOT11_EXT_UI_PROPERTY_DISPLAY_INFO@@@Z 0000000180004750 f   CCXExtUI.obj
 0001:00003890       ?Notify_IsValid@WapiKeyInputDlg@@UEAAXH@Z 0000000180004890 f i CCXExtUI.obj
 0001:000038c0       ?DisplayDot11ExtUIProperty@CExtUISec@@UEAAJPEAUHWND__@@PEA_WPEAU_DOT11EXT_IHV_PARAMS@@PEAPEA_WPEAH@Z 00000001800048c0 f   CCXExtUI.obj
 0001:00003ea0       ?GetDot11ExtUIPropertyFriendlyName@CExtUICon@@UEAAJPEAPEA_W@Z 0000000180004ea0 f   CCXExtUI.obj
 0001:00003ee0       ?Dot11ExtUIPropertyHasConfigurationUI@CExtUICon@@UEAAJPEAH@Z 0000000180004ee0 f   CCXExtUI.obj
 0001:00003f00       ?MessageBoxW@@YAHPEAUHWND__@@III@Z 0000000180004f00 f   CCXExtUI.obj
 0001:00004070       ?DisplayDot11ExtUIProperty@CExtUICon@@UEAAJPEAUHWND__@@PEA_WPEAU_DOT11EXT_IHV_PARAMS@@PEAPEA_WPEAH@Z 0000000180005070 f   CCXExtUI.obj
 0001:00004b30       ?CreateConnFragment@CExtUICon@@AEAAPEA_WPEA_W0@Z 0000000180005b30 f   CCXExtUI.obj
 0001:00004d50       ??1?$basic_string@_WU?$char_traits@_W@std@@V?$allocator@_W@2@@std@@QEAA@XZ 0000000180005d50 f i CCXExtUI.obj
 0001:00004d80       ?assign@?$basic_string@DU?$char_traits@D@std@@V?$allocator@D@2@@std@@QEAAAEAV12@AEBV12@_K1@Z 0000000180005d80 f i CCXExtUI.obj
 0001:00004eb0       ?_Tidy@?$basic_string@_WU?$char_traits@_W@std@@V?$allocator@_W@2@@std@@QEAAX_N_K@Z 0000000180005eb0 f i CCXExtUI.obj
 0001:00004f10       ?assign@?$basic_string@DU?$char_traits@D@std@@V?$allocator@D@2@@std@@QEAAAEAV12@PEBD_K@Z 0000000180005f10 f i CCXExtUI.obj
 0001:00005050       ?erase@?$basic_string@DU?$char_traits@D@std@@V?$allocator@D@2@@std@@QEAAAEAV12@_K0@Z 0000000180006050 f i CCXExtUI.obj
 0001:00005120       ?_Copy@?$basic_string@DU?$char_traits@D@std@@V?$allocator@D@2@@std@@QEAAX_K0@Z 0000000180006120 f i CCXExtUI.obj
 0001:00005230       ??$GetCredentialDlgProc@VWapiKeyInputPropDlg@@@CExtUI@@CA_JPEAUHWND__@@I_K_J@Z 0000000180006230 f i CCXExtUI.obj
 0001:00005580       ??$GetCredentialDlgProc@VWapiCertPropDlg@@@CExtUI@@CA_JPEAUHWND__@@I_K_J@Z 0000000180006580 f i CCXExtUI.obj
 0001:00005750       ??$GetThis@VCExtUI@@@@YAPEAVCExtUI@@PEAUHWND__@@I_K_J@Z 0000000180006750 f i CCXExtUI.obj
 0001:000057ac       ?Release@CExtUI@@W7EAAKXZ  00000001800067ac f i CCXExtUI.obj
 0001:000057b8       ?Release@CExtUI@@WBA@EAAKXZ 00000001800067b8 f i CCXExtUI.obj
 0001:000057c4       ?AddRef@CExtUI@@W7EAAKXZ   00000001800067c4 f i CCXExtUI.obj
 0001:000057d0       ?QueryInterface@CExtUI@@W7EAAJAEBU_GUID@@PEAPEAX@Z 00000001800067d0 f i CCXExtUI.obj
 0001:000057dc       ?AddRef@CExtUI@@WBA@EAAKXZ 00000001800067dc f i CCXExtUI.obj
 0001:000057e8       ?QueryInterface@CExtUI@@WBA@EAAJAEBU_GUID@@PEAPEAX@Z 00000001800067e8 f i CCXExtUI.obj
 0001:00005800       ?GetSelectedKeyPtr@ConnConfigDlg@@UEAAPEA_WXZ 0000000180006800 f i ConnConfigDlg.obj
 0001:00005820       ?LaunchDialog@ConnConfigDlg@@SAHPEAUHINSTANCE__@@PEAUHWND__@@PEAVDPTProfile@@H@Z 0000000180006820 f   ConnConfigDlg.obj
 0001:00005990       ?DialogProc@ConnConfigDlg@@SA_JPEAUHWND__@@I_K_J@Z 0000000180006990 f   ConnConfigDlg.obj
 0001:00005b50       ?OnInitDialog@ConnConfigDlg@@UEAAHPEAUHWND__@@@Z 0000000180006b50 f   ConnConfigDlg.obj
 0001:00005c00       ?Refresh@ConnConfigDlg@@UEAAXXZ 0000000180006c00 f   ConnConfigDlg.obj
 0001:00005d20       ?SelectEditGroup@ConnConfigDlg@@AEAAXH@Z 0000000180006d20 f   ConnConfigDlg.obj
 0001:00005dd0       ?OnHideChars@ConnConfigDlg@@UEAAXXZ 0000000180006dd0 f   ConnConfigDlg.obj
 0001:00005e70       ?OnOK@ConnConfigDlg@@UEAAXXZ 0000000180006e70 f   ConnConfigDlg.obj
 0001:00005ee0       ?OnKeyDown@ConnConfigDlg@@UEAAH_K_J@Z 0000000180006ee0 f   ConnConfigDlg.obj
 0001:00005f10       ?IsKeyModified@ConnConfigDlg@@UEAAHXZ 0000000180006f10 f   ConnConfigDlg.obj
 0001:00005f60       ?BinaryToHexRawString@@YAPEA_WQEAEK@Z 0000000180006f60 f   ihvutils.obj
 0001:00006010       ?HexRawStringToBinary@@YAPEAEPEB_WPEAK@Z 0000000180007010 f   ihvutils.obj
 0001:000060f0       ?IsCertificateExpired@@YAHPEBU_CERT_CONTEXT@@@Z 00000001800070f0 f   certutil.obj
 0001:000061a0       ?GetCertificateExpiresOn@@YAHPEBU_CERT_CONTEXT@@PEA_WHPEAH@Z 00000001800071a0 f   certutil.obj
 0001:00006240       ?GetCertificateDisplayInfo@@YAHPEBU_CERT_CONTEXT@@PEAPEAU_CERT_DISPLAY_INFO@@@Z 0000000180007240 f   certutil.obj
 0001:000064a0       ?FreeCertificateDisplayInfo@@YAXPEAU_CERT_DISPLAY_INFO@@@Z 00000001800074a0 f   certutil.obj
 0001:00006550       ??1CBstr@@QEAA@XZ          0000000180007550 f i DPTProfile.obj
 0001:00006560       ?xmlSet@DPTProfile@@QEAAXPEAUIXMLDOMDocument@@PEA_W@Z 0000000180007560 f   DPTProfile.obj
 0001:00006870       ?xmlSet@DPTProfile@@QEAAXPEB_W@Z 0000000180007870 f   DPTProfile.obj
 0001:00006980       ?xmlGet@DPTProfile@@QEAAPEA_WPEAUIXMLDOMDocument@@@Z 0000000180007980 f   DPTProfile.obj
 0001:00006d50       ?xmlGet@DPTProfile@@QEAAPEA_WXZ 0000000180007d50 f   DPTProfile.obj
 0001:00006e20       ?DPTKey2Hex@DPTProfile@@SAPEA_WPEA_W@Z 0000000180007e20 f   DPTProfile.obj
 0001:00006f90       ?HexString2Byte@DPTProfile@@SAPEAEPEB_WPEAK@Z 0000000180007f90 f   DPTProfile.obj
 0001:00007100       ?Hex2DPTKey@DPTProfile@@SAPEA_WPEB_W@Z 0000000180008100 f   DPTProfile.obj
 0001:00007180       ?GetProfileFragment@DPTProfile@@SAPEA_WPEB_W0@Z 0000000180008180 f   DPTProfile.obj
 0001:00007360       ?DecryptDPTKey@DPTUtils@@YAPEA_WPEAEK@Z 0000000180008360 f   DPTUtils.obj
 0001:00007450       ?OpenDriverRegKey@DriverReg@@YAHPEA_WKAEAPEAUHKEY__@@@Z 0000000180008450 f   DriverRegW.obj
 0001:00007720       ?IsDPTAvailable@DriverReg@@YAHPEBU_GUID@@@Z 0000000180008720 f   DriverRegW.obj
 0001:00007960       ?BuildStringMap@@YAXPEAUHINSTANCE__@@@Z 0000000180008960 f   i18nW.obj
 0001:00007a40       ?DestroyStringMap@@YAXXZ   0000000180008a40 f   i18nW.obj
 0001:00007bb0       ?TranslateString@@YA?AV?$basic_string@_WU?$char_traits@_W@std@@V?$allocator@_W@2@@std@@PEA_WH@Z 0000000180008bb0 f   i18nW.obj
 0001:00007fd0       ?LocalizeDialog@@YAXPEAUHWND__@@H@Z 0000000180008fd0 f   i18nW.obj
 0001:00008090       ??0?$basic_string@_WU?$char_traits@_W@std@@V?$allocator@_W@2@@std@@QEAA@PEB_W@Z 0000000180009090 f i i18nW.obj
 0001:000080e0       ??A?$map@V?$basic_string@_WU?$char_traits@_W@std@@V?$allocator@_W@2@@std@@HU?$less@V?$basic_string@_WU?$char_traits@_W@std@@V?$allocator@_W@2@@std@@@2@V?$allocator@U?$pair@$$CBV?$basic_string@_WU?$char_traits@_W@std@@V?$allocator@_W@2@@std@@H@std@@@2@@std@@QEAAAEAHAEBV?$basic_string@_WU?$char_traits@_W@std@@V?$allocator@_W@2@@1@@Z 00000001800090e0 f i i18nW.obj
 0001:00008160       ?_Assign_rv@?$basic_string@_WU?$char_traits@_W@std@@V?$allocator@_W@2@@std@@QEAAX$$QEAV12@@Z 0000000180009160 f i i18nW.obj
 0001:000081d0       ?_Erase@?$_Tree@V?$_Tmap_traits@V?$basic_string@_WU?$char_traits@_W@std@@V?$allocator@_W@2@@std@@HU?$less@V?$basic_string@_WU?$char_traits@_W@std@@V?$allocator@_W@2@@std@@@2@V?$allocator@U?$pair@$$CBV?$basic_string@_WU?$char_traits@_W@std@@V?$allocator@_W@2@@std@@H@std@@@2@$0A@@std@@@std@@IEAAXPEAU?$_Tree_node@U?$pair@$$CBV?$basic_string@_WU?$char_traits@_W@std@@V?$allocator@_W@2@@std@@H@std@@PEAX@2@@Z 00000001800091d0 f i i18nW.obj
 0001:00008260       ?assign@?$basic_string@_WU?$char_traits@_W@std@@V?$allocator@_W@2@@std@@QEAAAEAV12@AEBV12@_K1@Z 0000000180009260 f i i18nW.obj
 0001:000083b0       ?assign@?$basic_string@_WU?$char_traits@_W@std@@V?$allocator@_W@2@@std@@QEAAAEAV12@PEB_W_K@Z 00000001800093b0 f i i18nW.obj
 0001:00008500       ?erase@?$_Tree@V?$_Tmap_traits@V?$basic_string@_WU?$char_traits@_W@std@@V?$allocator@_W@2@@std@@HU?$less@V?$basic_string@_WU?$char_traits@_W@std@@V?$allocator@_W@2@@std@@@2@V?$allocator@U?$pair@$$CBV?$basic_string@_WU?$char_traits@_W@std@@V?$allocator@_W@2@@std@@H@std@@@2@$0A@@std@@@std@@QEAA?AV?$_Tree_iterator@V?$_Tree_val@U?$_Tree_simple_types@U?$pair@$$CBV?$basic_string@_WU?$char_traits@_W@std@@V?$allocator@_W@2@@std@@H@std@@@std@@@std@@@2@V?$_Tree_const_iterator@V?$_Tree_val@U?$_Tree_simple_types@U?$pair@$$CBV?$basic_string@_WU?$char_traits@_W@std@@V?$allocator@_W@2@@std@@H@std@@@std@@@std@@@2@0@Z 0000000180009500 f i i18nW.obj
 0001:00008610       ?_Lbound@?$_Tree@V?$_Tmap_traits@V?$basic_string@_WU?$char_traits@_W@std@@V?$allocator@_W@2@@std@@HU?$less@V?$basic_string@_WU?$char_traits@_W@std@@V?$allocator@_W@2@@std@@@2@V?$allocator@U?$pair@$$CBV?$basic_string@_WU?$char_traits@_W@std@@V?$allocator@_W@2@@std@@H@std@@@2@$0A@@std@@@std@@IEAAPEAU?$_Tree_node@U?$pair@$$CBV?$basic_string@_WU?$char_traits@_W@std@@V?$allocator@_W@2@@std@@H@std@@PEAX@2@AEBV?$basic_string@_WU?$char_traits@_W@std@@V?$allocator@_W@2@@2@@Z 0000000180009610 f i i18nW.obj
 0001:000086e0       ?erase@?$basic_string@_WU?$char_traits@_W@std@@V?$allocator@_W@2@@std@@QEAAAEAV12@_K0@Z 00000001800096e0 f i i18nW.obj
 0001:00008790       ?_Grow@?$basic_string@_WU?$char_traits@_W@std@@V?$allocator@_W@2@@std@@QEAA_N_K_N@Z 0000000180009790 f i i18nW.obj
 0001:00008870       ?erase@?$_Tree@V?$_Tmap_traits@V?$basic_string@_WU?$char_traits@_W@std@@V?$allocator@_W@2@@std@@HU?$less@V?$basic_string@_WU?$char_traits@_W@std@@V?$allocator@_W@2@@std@@@2@V?$allocator@U?$pair@$$CBV?$basic_string@_WU?$char_traits@_W@std@@V?$allocator@_W@2@@std@@H@std@@@2@$0A@@std@@@std@@QEAA?AV?$_Tree_iterator@V?$_Tree_val@U?$_Tree_simple_types@U?$pair@$$CBV?$basic_string@_WU?$char_traits@_W@std@@V?$allocator@_W@2@@std@@H@std@@@std@@@std@@@2@V?$_Tree_const_iterator@V?$_Tree_val@U?$_Tree_simple_types@U?$pair@$$CBV?$basic_string@_WU?$char_traits@_W@std@@V?$allocator@_W@2@@std@@H@std@@@std@@@std@@@2@@Z 0000000180009870 f i i18nW.obj
 0001:00008c30       ??0?$_Wrap_alloc@V?$allocator@U?$_Tree_node@U?$pair@$$CBV?$basic_string@_WU?$char_traits@_W@std@@V?$allocator@_W@2@@std@@H@std@@PEAX@std@@@std@@@std@@QEAA@XZ 0000000180009c30 f i i18nW.obj
 0001:00008c40       ?_Copy@?$basic_string@_WU?$char_traits@_W@std@@V?$allocator@_W@2@@std@@QEAAX_K0@Z 0000000180009c40 f i i18nW.obj
 0001:00008d60       ?_Lrotate@?$_Tree@V?$_Tmap_traits@V?$basic_string@_WU?$char_traits@_W@std@@V?$allocator@_W@2@@std@@HU?$less@V?$basic_string@_WU?$char_traits@_W@std@@V?$allocator@_W@2@@std@@@2@V?$allocator@U?$pair@$$CBV?$basic_string@_WU?$char_traits@_W@std@@V?$allocator@_W@2@@std@@H@std@@@2@$0A@@std@@@std@@IEAAXPEAU?$_Tree_node@U?$pair@$$CBV?$basic_string@_WU?$char_traits@_W@std@@V?$allocator@_W@2@@std@@H@std@@PEAX@2@@Z 0000000180009d60 f i i18nW.obj
 0001:00008dc0       ?_Rrotate@?$_Tree@V?$_Tmap_traits@V?$basic_string@_WU?$char_traits@_W@std@@V?$allocator@_W@2@@std@@HU?$less@V?$basic_string@_WU?$char_traits@_W@std@@V?$allocator@_W@2@@std@@@2@V?$allocator@U?$pair@$$CBV?$basic_string@_WU?$char_traits@_W@std@@V?$allocator@_W@2@@std@@H@std@@@2@$0A@@std@@@std@@IEAAXPEAU?$_Tree_node@U?$pair@$$CBV?$basic_string@_WU?$char_traits@_W@std@@V?$allocator@_W@2@@std@@H@std@@PEAX@2@@Z 0000000180009dc0 f i i18nW.obj
 0001:00008e20       ?_Buyheadnode@?$_Tree_alloc@$0A@U?$_Tree_base_types@U?$pair@$$CBV?$basic_string@_WU?$char_traits@_W@std@@V?$allocator@_W@2@@std@@H@std@@V?$allocator@U?$pair@$$CBV?$basic_string@_WU?$char_traits@_W@std@@V?$allocator@_W@2@@std@@H@std@@@2@@std@@@std@@QEAAPEAU?$_Tree_node@U?$pair@$$CBV?$basic_string@_WU?$char_traits@_W@std@@V?$allocator@_W@2@@std@@H@std@@PEAX@2@XZ 0000000180009e20 f i i18nW.obj
 0001:00008e60       ??$?H_WU?$char_traits@_W@std@@V?$allocator@_W@1@@std@@YA?AV?$basic_string@_WU?$char_traits@_W@std@@V?$allocator@_W@2@@0@AEBV10@PEB_W@Z 0000000180009e60 f i i18nW.obj
 0001:00008f20       ?compare@?$basic_string@_WU?$char_traits@_W@std@@V?$allocator@_W@2@@std@@QEBAHAEBV12@@Z 0000000180009f20 f i i18nW.obj
 0001:00008fb0       ?append@?$basic_string@_WU?$char_traits@_W@std@@V?$allocator@_W@2@@std@@QEAAAEAV12@AEBV12@_K1@Z 0000000180009fb0 f i i18nW.obj
 0001:000090f0       ?append@?$basic_string@_WU?$char_traits@_W@std@@V?$allocator@_W@2@@std@@QEAAAEAV12@PEB_W_K@Z 000000018000a0f0 f i i18nW.obj
 0001:00009250       ??$_Buynode@AEBUpiecewise_construct_t@std@@V?$tuple@AEBV?$basic_string@_WU?$char_traits@_W@std@@V?$allocator@_W@2@@std@@@2@V?$tuple@$$$V@2@@?$_Tree_buy@U?$pair@$$CBV?$basic_string@_WU?$char_traits@_W@std@@V?$allocator@_W@2@@std@@H@std@@V?$allocator@U?$pair@$$CBV?$basic_string@_WU?$char_traits@_W@std@@V?$allocator@_W@2@@std@@H@std@@@2@@std@@QEAAPEAU?$_Tree_node@U?$pair@$$CBV?$basic_string@_WU?$char_traits@_W@std@@V?$allocator@_W@2@@std@@H@std@@PEAX@1@AEBUpiecewise_construct_t@1@$$QEAV?$tuple@AEBV?$basic_string@_WU?$char_traits@_W@std@@V?$allocator@_W@2@@std@@@1@$$QEAV?$tuple@$$$V@1@@Z 000000018000a250 f i i18nW.obj
 0001:000092d0       ??$_Insert_hint@AEAU?$pair@$$CBV?$basic_string@_WU?$char_traits@_W@std@@V?$allocator@_W@2@@std@@H@std@@PEAU?$_Tree_node@U?$pair@$$CBV?$basic_string@_WU?$char_traits@_W@std@@V?$allocator@_W@2@@std@@H@std@@PEAX@2@@?$_Tree@V?$_Tmap_traits@V?$basic_string@_WU?$char_traits@_W@std@@V?$allocator@_W@2@@std@@HU?$less@V?$basic_string@_WU?$char_traits@_W@std@@V?$allocator@_W@2@@std@@@2@V?$allocator@U?$pair@$$CBV?$basic_string@_WU?$char_traits@_W@std@@V?$allocator@_W@2@@std@@H@std@@@2@$0A@@std@@@std@@IEAA?AV?$_Tree_iterator@V?$_Tree_val@U?$_Tree_simple_types@U?$pair@$$CBV?$basic_string@_WU?$char_traits@_W@std@@V?$allocator@_W@2@@std@@H@std@@@std@@@std@@@1@V?$_Tree_const_iterator@V?$_Tree_val@U?$_Tree_simple_types@U?$pair@$$CBV?$basic_string@_WU?$char_traits@_W@std@@V?$allocator@_W@2@@std@@H@std@@@std@@@std@@@1@AEAU?$pair@$$CBV?$basic_string@_WU?$char_traits@_W@std@@V?$allocator@_W@2@@std@@H@1@PEAU?$_Tree_node@U?$pair@$$CBV?$basic_string@_WU?$char_traits@_W@std@@V?$allocator@_W@2@@std@@H@std@@PEAX@1@@Z 000000018000a2d0 f i i18nW.obj
 0001:00009580       ?_Destroy_if_not_nil@?$_Tree@V?$_Tmap_traits@V?$basic_string@_WU?$char_traits@_W@std@@V?$allocator@_W@2@@std@@HU?$less@V?$basic_string@_WU?$char_traits@_W@std@@V?$allocator@_W@2@@std@@@2@V?$allocator@U?$pair@$$CBV?$basic_string@_WU?$char_traits@_W@std@@V?$allocator@_W@2@@std@@H@std@@@2@$0A@@std@@@std@@IEAAXPEAU?$_Tree_node@U?$pair@$$CBV?$basic_string@_WU?$char_traits@_W@std@@V?$allocator@_W@2@@std@@H@std@@PEAX@2@@Z 000000018000a580 f i i18nW.obj
 0001:000095c0       ?_Buynode0@?$_Tree_buy@U?$pair@$$CBV?$basic_string@_WU?$char_traits@_W@std@@V?$allocator@_W@2@@std@@H@std@@V?$allocator@U?$pair@$$CBV?$basic_string@_WU?$char_traits@_W@std@@V?$allocator@_W@2@@std@@H@std@@@2@@std@@QEAAPEAU?$_Tree_node@U?$pair@$$CBV?$basic_string@_WU?$char_traits@_W@std@@V?$allocator@_W@2@@std@@H@std@@PEAX@2@XZ 000000018000a5c0 f i i18nW.obj
 0001:00009620       ??$_Insert_at@AEAU?$pair@$$CBV?$basic_string@_WU?$char_traits@_W@std@@V?$allocator@_W@2@@std@@H@std@@PEAU?$_Tree_node@U?$pair@$$CBV?$basic_string@_WU?$char_traits@_W@std@@V?$allocator@_W@2@@std@@H@std@@PEAX@2@@?$_Tree@V?$_Tmap_traits@V?$basic_string@_WU?$char_traits@_W@std@@V?$allocator@_W@2@@std@@HU?$less@V?$basic_string@_WU?$char_traits@_W@std@@V?$allocator@_W@2@@std@@@2@V?$allocator@U?$pair@$$CBV?$basic_string@_WU?$char_traits@_W@std@@V?$allocator@_W@2@@std@@H@std@@@2@$0A@@std@@@std@@IEAA?AV?$_Tree_iterator@V?$_Tree_val@U?$_Tree_simple_types@U?$pair@$$CBV?$basic_string@_WU?$char_traits@_W@std@@V?$allocator@_W@2@@std@@H@std@@@std@@@std@@@1@_NPEAU?$_Tree_node@U?$pair@$$CBV?$basic_string@_WU?$char_traits@_W@std@@V?$allocator@_W@2@@std@@H@std@@PEAX@1@AEAU?$pair@$$CBV?$basic_string@_WU?$char_traits@_W@std@@V?$allocator@_W@2@@std@@H@1@1@Z 000000018000a620 f i i18nW.obj
 0001:00009920       ??$_Insert_nohint@AEAU?$pair@$$CBV?$basic_string@_WU?$char_traits@_W@std@@V?$allocator@_W@2@@std@@H@std@@PEAU?$_Tree_node@U?$pair@$$CBV?$basic_string@_WU?$char_traits@_W@std@@V?$allocator@_W@2@@std@@H@std@@PEAX@2@@?$_Tree@V?$_Tmap_traits@V?$basic_string@_WU?$char_traits@_W@std@@V?$allocator@_W@2@@std@@HU?$less@V?$basic_string@_WU?$char_traits@_W@std@@V?$allocator@_W@2@@std@@@2@V?$allocator@U?$pair@$$CBV?$basic_string@_WU?$char_traits@_W@std@@V?$allocator@_W@2@@std@@H@std@@@2@$0A@@std@@@std@@IEAA?AU?$pair@V?$_Tree_iterator@V?$_Tree_val@U?$_Tree_simple_types@U?$pair@$$CBV?$basic_string@_WU?$char_traits@_W@std@@V?$allocator@_W@2@@std@@H@std@@@std@@@std@@@std@@_N@1@_NAEAU?$pair@$$CBV?$basic_string@_WU?$char_traits@_W@std@@V?$allocator@_W@2@@std@@H@1@PEAU?$_Tree_node@U?$pair@$$CBV?$basic_string@_WU?$char_traits@_W@std@@V?$allocator@_W@2@@std@@H@std@@PEAX@1@@Z 000000018000a920 f i i18nW.obj
 0001:00009b40       ??1CProfileIHVSecurity@@QEAA@XZ 000000018000ab40 f   CCXProfile.obj
 0001:00009ba0       ?IsValid@CProfileIHVSecurity@@QEAAHXZ 000000018000aba0 f   CCXProfile.obj
 0001:00009c50       ?xmlSet@CProfileIHVSecurity@@QEAAXPEB_W@Z 000000018000ac50 f   CCXProfile.obj
 0001:0000a3f0       ?xmlGet@CProfileIHVSecurity@@QEAAPEA_WXZ 000000018000b3f0 f   CCXProfile.obj
 0001:0000ac00       ?IsValid@CProfileIHVConnectivity@@QEAAHXZ 000000018000bc00 f   CCXProfile.obj
 0001:0000acf0       ?xmlSet@CProfileIHVConnectivity@@QEAAXPEB_W@Z 000000018000bcf0 f   CCXProfile.obj
 0001:0000b7d0       ?xmlGet@CProfileIHVConnectivity@@QEAAPEA_WXZ 000000018000c7d0 f   CCXProfile.obj
 0001:0000c3f0       ?Hex2Ssid@CProfileIHVConnectivity@@SA_NPEB_WPEAEPEAH@Z 000000018000d3f0 f   CCXProfile.obj
 0001:0000c590       ?Name2Ssid@CProfileIHVConnectivity@@SA_NPEB_WPEAEPEAH@Z 000000018000d590 f   CCXProfile.obj
 0001:0000c5f0       ?LoadStringResource@@YAKPEAUHINSTANCE__@@IAEAPEA_WPEAK@Z 000000018000d5f0 f   strings.obj
 0001:0000c6d0       ?OnInitDialog@CertPropertyDlg@@MEAAHPEAUHWND__@@@Z 000000018000d6d0 f   CertPropertyDlg.obj
 0001:0000c700       ?OnOK@CertPropertyDlg@@UEAAXXZ 000000018000d700 f   CertPropertyDlg.obj
 0001:0000c740       ?OnCancel@CertPropertyDlg@@UEAAXXZ 000000018000d740 f   CertPropertyDlg.obj
 0001:0000c760       ?CertificateFilterFunction@@YAHPEBU_CERT_CONTEXT@@PEAHPEAX@Z 000000018000d760 f   CertPropertyDlg.obj
 0001:0000c800       ?OnViewCertificate@CertPropertyDlg@@UEAAHXZ 000000018000d800 f   CertPropertyDlg.obj
 0001:0000c870       ?OnSelectCertificate@CertPropertyDlg@@UEAAHXZ 000000018000d870 f   CertPropertyDlg.obj
 0001:0000ca00       ?CheckValid@CertPropertyDlg@@UEBAKPEBU_CERT_CONTEXT@@@Z 000000018000da00 f   CertPropertyDlg.obj
 0001:0000ca30       ?SetCertificate@CertPropertyDlg@@EEAAXPEBU_CERT_CONTEXT@@@Z 000000018000da30 f   CertPropertyDlg.obj
 0001:0000ca70       ?Refresh@CertPropertyDlg@@EEAAXXZ 000000018000da70 f   CertPropertyDlg.obj
 0001:0000cbf0       ?DialogProc@CertPropertyDlg@@SA_JPEAUHWND__@@I_K_J@Z 000000018000dbf0 f   CertPropertyDlg.obj
 0001:0000ccf0       ?InitCertificateListView@@YAXPEAUHINSTANCE__@@PEAUHWND__@@PEAXP6AHPEBU_CERT_CONTEXT@@PEAH2@Z2@Z 000000018000dcf0 f   CertPropertyDlg.obj
 0001:0000cf20       ?CleanupCertificateListView@@YAXPEAUHWND__@@@Z 000000018000df20 f   CertPropertyDlg.obj
 0001:0000cfb0       ?Refresh@CertSelectorDlg@@EEAAXXZ 000000018000dfb0 f   CertPropertyDlg.obj
 0001:0000d040       ?DialogProc@CertSelectorDlg@@SA_JPEAUHWND__@@I_K_J@Z 000000018000e040 f   CertPropertyDlg.obj
 0001:0000d1c0       ?DialogProc@KeyInputDlg@@SA_JPEAUHWND__@@I_K_J@Z 000000018000e1c0 f   KeyInputDlgW.obj
 0001:0000d330       ??0KeyInputDlg@@QEAA@PEAUHINSTANCE__@@PEA_WHHK@Z 000000018000e330 f   KeyInputDlgW.obj
 0001:0000d400       ?OnInitDialog@KeyInputDlg@@UEAAHPEAUHWND__@@@Z 000000018000e400 f   KeyInputDlgW.obj
 0001:0000d440       ?InitEditGroup@KeyInputDlg@@UEAAXXZ 000000018000e440 f   KeyInputDlgW.obj
 0001:0000d530       ?Refresh@KeyInputDlg@@UEAAXXZ 000000018000e530 f   KeyInputDlgW.obj
 0001:0000d6d0       ?SelectEditGroup@KeyInputDlg@@IEAAXPEAU_tKeyInEditGroup@1@@Z 000000018000e6d0 f   KeyInputDlgW.obj
 0001:0000d770       ?ReflectEnableState@KeyInputDlg@@IEAAXPEAU_tKeyInEditGroup@1@@Z 000000018000e770 f   KeyInputDlgW.obj
 0001:0000d860       ?OnEditChange@KeyInputDlg@@UEAAXH@Z 000000018000e860 f   KeyInputDlgW.obj
 0001:0000d880       ?OnChangeKey@KeyInputDlg@@IEAAXPEAU_tKeyInEditGroup@1@@Z 000000018000e880 f   KeyInputDlgW.obj
 0001:0000da00       ?OnChangeConfirmKey@KeyInputDlg@@IEAAXPEAU_tKeyInEditGroup@1@@Z 000000018000ea00 f   KeyInputDlgW.obj
 0001:0000db90       ?UpdateKeyDisplay@KeyInputDlg@@IEAAXPEAU_tKeyInEditGroup@1@HH@Z 000000018000eb90 f   KeyInputDlgW.obj
 0001:0000dc80       ?OnEditFocus@KeyInputDlg@@UEAAXH@Z 000000018000ec80 f   KeyInputDlgW.obj
 0001:0000dcc0       ?OnHideChars@KeyInputDlg@@UEAAXXZ 000000018000ecc0 f   KeyInputDlgW.obj
 0001:0000dd10       ?HideEditGroup@KeyInputDlg@@IEAAXHPEAU_tKeyInEditGroup@1@H@Z 000000018000ed10 f   KeyInputDlgW.obj
 0001:0000de60       ?ReportError@KeyInputDlg@@IEAAXH@Z 000000018000ee60 f   KeyInputDlgW.obj
 0001:0000df10       ?IsValid@KeyInputDlg@@IEAAHPEAU_tKeyInEditGroup@1@@Z 000000018000ef10 f   KeyInputDlgW.obj
 0001:0000e060       ?ValidateKey@KeyInputDlg@@UEAAHPEB_W@Z 000000018000f060 f   KeyInputDlgW.obj
 0001:0000e100       ?OnOK@KeyInputDlg@@UEAAXXZ 000000018000f100 f   KeyInputDlgW.obj
 0001:0000e150       ?OnCancel@KeyInputDlg@@UEAAXXZ 000000018000f150 f   KeyInputDlgW.obj
 0001:0000e170       ?OnKeyDown@KeyInputDlg@@UEAAH_K_J@Z 000000018000f170 f   KeyInputDlgW.obj
 0001:0000e190       ?OnKeyDown@KeyInputDlg@@UEAAHPEAU_tKeyInEditGroup@1@_K_J@Z 000000018000f190 f   KeyInputDlgW.obj
 0001:0000e250       ?IsKeyModified@KeyInputDlg@@UEAAHXZ 000000018000f250 f   KeyInputDlgW.obj
 0001:0000e2a0       ?_com_issue_error@@YAXJ@Z  000000018000f2a0 f   comsuppw:comsupp.obj
 0001:0000e2b0       ??0_com_error@@QEAA@AEBV0@@Z 000000018000f2b0 f i comsuppw:comraise.obj
 0001:0000e2f0       ??1_com_error@@UEAA@XZ     000000018000f2f0 f i comsuppw:comraise.obj
 0001:0000e330       ??_G_com_error@@UEAAPEAXI@Z 000000018000f330 f i comsuppw:comraise.obj
 0001:0000e330       ??_E_com_error@@UEAAPEAXI@Z 000000018000f330 f i comsuppw:comraise.obj
 0001:0000e390       ?_com_raise_error@@YAXJPEAUIErrorInfo@@@Z 000000018000f390 f   comsuppw:comraise.obj
 0001:0000e3e0       __security_check_cookie    000000018000f3e0 f   LIBCMT:amdsecgs.obj
 0001:0000e400       wcsncat                    000000018000f400 f   LIBCMT:wcsncat.obj
 0001:0000e43c       ??3@YAXPEAX@Z              000000018000f43c f   LIBCMT:delete.obj
 0001:0000e444       ??8type_info@@QEBA_NAEBV0@@Z 000000018000f444 f   LIBCMT:typinfo.obj
 0001:0000e464       ??_Gtype_info@@UEAAPEAXI@Z 000000018000f464 f i LIBCMT:typinfo.obj
 0001:0000e464       ??_Etype_info@@UEAAPEAXI@Z 000000018000f464 f i LIBCMT:typinfo.obj
 0001:0000e4a0       ??0bad_alloc@std@@QEAA@AEBV01@@Z 000000018000f4a0 f i LIBCMT:new.obj
 0001:0000e4c4       ??1bad_alloc@std@@UEAA@XZ  000000018000f4c4 f i LIBCMT:new.obj
 0001:0000e4d4       ??2@YAPEAX_K@Z             000000018000f4d4 f   LIBCMT:new.obj
 0001:0000e540       ??_Gbad_alloc@std@@UEAAPEAXI@Z 000000018000f540 f i LIBCMT:new.obj
 0001:0000e540       ??_Ebad_alloc@std@@UEAAPEAXI@Z 000000018000f540 f i LIBCMT:new.obj
 0001:0000e57c       swprintf_s                 000000018000f57c f   LIBCMT:swprintf.obj
 0001:0000e5a0       wcsncpy_s                  000000018000f5a0 f   LIBCMT:wcsncpy_s.obj
 0001:0000e680       memcpy                     000000018000f680 f   LIBCMT:memcpy.obj
 0001:0000e680       memmove                    000000018000f680 f   LIBCMT:memcpy.obj
 0001:0000ebe8       ??_U@YAPEAX_K@Z            000000018000fbe8 f   LIBCMT:new2.obj
 0001:0000ebf0       ??_U@YAPEAX_KAEBUnothrow_t@std@@@Z 000000018000fbf0 f   LIBCMT:newaopnt.obj
 0001:0000ebf8       __onexitinit               000000018000fbf8 f   LIBCMT:onexit.obj
 0001:0000ec3c       _onexit                    000000018000fc3c f   LIBCMT:onexit.obj
 0001:0000ed48       atexit                     000000018000fd48 f   LIBCMT:onexit.obj
 0001:0000ed60       wcsstr                     000000018000fd60 f   LIBCMT:wcsstr.obj
 0001:0000ef5c       ??_V@YAXPEAX@Z             000000018000ff5c f   LIBCMT:delete2.obj
 0001:0000ef64       _purecall                  000000018000ff64 f   LIBCMT:purevirt.obj
 0001:0000ef90       memcpy_s                   000000018000ff90 f   LIBCMT:memcpy_s.obj
 0001:0000f018       ??2@YAPEAX_KAEBUnothrow_t@std@@@Z 0000000180010018 f   LIBCMT:newopnt.obj
 0001:0000f038       wcschr                     0000000180010038 f   LIBCMT:wcschr.obj
 0001:0000f2ac       wcstol                     00000001800102ac f   LIBCMT:wcstol.obj
 0001:0000f2b4       wcstoul                    00000001800102b4 f   LIBCMT:wcstol.obj
 0001:0000f2c0       ??0_LocaleUpdate@@QEAA@PEAUlocaleinfo_struct@@@Z 00000001800102c0 f i LIBCMT:wcsnicmp.obj
 0001:0000f368       _wcsnicmp                  0000000180010368 f   LIBCMT:wcsnicmp.obj
 0001:0000f400       _wcsnicmp_l                0000000180010400 f   LIBCMT:wcsnicmp.obj
 0001:0000f518       __raise_securityfailure    0000000180010518 f   LIBCMT:gs_report.obj
 0001:0000f564       __report_gsfailure         0000000180010564 f   LIBCMT:gs_report.obj
 0001:0000f638       wcscpy_s                   0000000180010638 f   LIBCMT:wcscpy_s.obj
 0001:0000f6a4       _wtoi                      00000001800106a4 f   LIBCMT:wtox.obj
 0001:0000f6b0       free                       00000001800106b0 f   LIBCMT:free.obj
 0001:0000f6f0       malloc                     00000001800106f0 f   LIBCMT:malloc.obj
 0001:0000f7a8       wcsspn                     00000001800107a8 f   LIBCMT:wcsspn.obj
 0001:0000f7ec       _wcsicmp                   00000001800107ec f   LIBCMT:wcsicmp.obj
 0001:0000f870       _wcsicmp_l                 0000000180010870 f   LIBCMT:wcsicmp.obj
 0001:0000f960       _itow                      0000000180010960 f   LIBCMT:xtow.obj
 0001:0000f9fc       _CRT_INIT                  00000001800109fc f   LIBCMT:dllcrt0.obj
 0001:0000fb5c       _DllMainCRTStartup         0000000180010b5c f   LIBCMT:dllcrt0.obj
 0001:0000fcbc       _CxxThrowException         0000000180010cbc f   LIBCMT:throw.obj
 0001:0000fdb0       __GSHandlerCheck_SEH       0000000180010db0 f   LIBCMT:gshandlerseh.obj
 0001:0000fe60       _alloca_probe              0000000180010e60 f   LIBCMT:chkstk.obj
 0001:0000fe60       __chkstk                   0000000180010e60 f   LIBCMT:chkstk.obj
 0001:0000fec0       memset                     0000000180010ec0 f   LIBCMT:memset.obj
 0001:000100ec       _fpmath                    00000001800110ec f   LIBCMT:fpinit.obj
 0001:000100f4       _cfltcvt_init              00000001800110f4 f   LIBCMT:fpinit.obj
 0001:00010190       strcmp                     0000000180011190 f   LIBCMT:strcmp.obj
 0001:000101f8       ?_Type_info_dtor@type_info@@CAXPEAV1@@Z 00000001800111f8 f   LIBCMT:typname.obj
 0001:00010264       ??0exception@std@@QEAA@AEBQEBD@Z 0000000180011264 f   LIBCMT:stdexcpt.obj
 0001:00010294       ??0exception@std@@QEAA@AEBQEBDH@Z 0000000180011294 f   LIBCMT:stdexcpt.obj
 0001:000102b0       ??0exception@std@@QEAA@AEBV01@@Z 00000001800112b0 f   LIBCMT:stdexcpt.obj
 0001:000102dc       ??1exception@std@@UEAA@XZ  00000001800112dc f   LIBCMT:stdexcpt.obj
 0001:000102ec       ??4exception@std@@QEAAAEAV01@AEBV01@@Z 00000001800112ec f   LIBCMT:stdexcpt.obj
 0001:00010330       ??_Gexception@std@@UEAAPEAXI@Z 0000000180011330 f i LIBCMT:stdexcpt.obj
 0001:00010330       ??_Eexception@std@@UEAAPEAXI@Z 0000000180011330 f i LIBCMT:stdexcpt.obj
 0001:0001036c       ?_Copy_str@exception@std@@AEAAXPEBD@Z 000000018001136c f   LIBCMT:stdexcpt.obj
 0001:000103c8       ?_Tidy@exception@std@@AEAAXXZ 00000001800113c8 f   LIBCMT:stdexcpt.obj
 0001:000103f0       ?what@exception@std@@UEBAPEBDXZ 00000001800113f0 f   LIBCMT:stdexcpt.obj
 0001:00010404       _callnewh                  0000000180011404 f   LIBCMT:handler.obj
 0001:00010438       _initp_heap_handler        0000000180011438 f   LIBCMT:handler.obj
 0001:00010440       _call_reportfault          0000000180011440 f   LIBCMT:invarg.obj
 0001:00010534       _initp_misc_invarg         0000000180011534 f   LIBCMT:invarg.obj
 0001:0001053c       _invalid_parameter         000000018001153c f   LIBCMT:invarg.obj
 0001:000105a4       _invalid_parameter_noinfo  00000001800115a4 f   LIBCMT:invarg.obj
 0001:000105c4       _invoke_watson             00000001800115c4 f   LIBCMT:invarg.obj
 0001:00010600       _flsbuf                    0000000180011600 f   LIBCMT:_flsbuf.obj
 0001:0001078c       _vswprintf_helper          000000018001178c f   LIBCMT:vswprnc.obj
 0001:000108a8       _vswprintf_s_l             00000001800118a8 f   LIBCMT:vswprnc.obj
 0001:00010924       __doserrno                 0000000180011924 f   LIBCMT:dosmap.obj
 0001:00010944       _dosmaperr                 0000000180011944 f   LIBCMT:dosmap.obj
 0001:00010994       _errno                     0000000180011994 f   LIBCMT:dosmap.obj
 0001:000109b4       _get_errno_from_oserr      00000001800119b4 f   LIBCMT:dosmap.obj
 0001:00010a04       __isa_available_init       0000000180011a04 f   LIBCMT:cpu_disp.obj
 0001:00010b7c       __crtCorExitProcess        0000000180011b7c f   LIBCMT:crt0dat.obj
 0001:00010bc0       __crtExitProcess           0000000180011bc0 f   LIBCMT:crt0dat.obj
 0001:00010bd8       __freeCrtMemory            0000000180011bd8 f   LIBCMT:crt0dat.obj
 0001:00010d20       _amsg_exit                 0000000180011d20 f   LIBCMT:crt0dat.obj
 0001:00010d48       _cexit                     0000000180011d48 f   LIBCMT:crt0dat.obj
 0001:00010d58       _cinit                     0000000180011d58 f   LIBCMT:crt0dat.obj
 0001:00010e08       _exit                      0000000180011e08 f   LIBCMT:crt0dat.obj
 0001:00010e14       _init_pointers             0000000180011e14 f   LIBCMT:crt0dat.obj
 0001:00010e94       _initterm_e                0000000180011e94 f   LIBCMT:crt0dat.obj
 0001:00010ed0       _lockexit                  0000000180011ed0 f   LIBCMT:crt0dat.obj
 0001:00010edc       _unlockexit                0000000180011edc f   LIBCMT:crt0dat.obj
 0001:00011080       _msize                     0000000180012080 f   LIBCMT:msize.obj
 0001:000110bc       _calloc_crt                00000001800120bc f   LIBCMT:crtheap.obj
 0001:0001113c       _malloc_crt                000000018001213c f   LIBCMT:crtheap.obj
 0001:000111b8       _realloc_crt               00000001800121b8 f   LIBCMT:crtheap.obj
 0001:0001123c       __C_specific_handler       000000018001223c f   LIBCMT:chandler.obj
 0001:00011420       _set_abort_behavior        0000000180012420 f   LIBCMT:abort.obj
 0001:0001143c       abort                      000000018001243c f   LIBCMT:abort.obj
 0001:00011494       _initp_misc_purevirt       0000000180012494 f   LIBCMT:inithelp.obj
 0001:0001149c       ?_GetEstablisherFrame@@YAPEA_KPEA_KPEAU_xDISPATCHER_CONTEXT@@PEBU_s_FuncInfo@@0@Z 000000018001249c f   LIBCMT:trnsctrl.obj
 0001:00011568       ?_GetRangeOfTrysToCheck@@YAPEBU_s_TryBlockMapEntry@@PEA_KPEBU_s_FuncInfo@@HHPEAI2PEAU_xDISPATCHER_CONTEXT@@@Z 0000000180012568 f   LIBCMT:trnsctrl.obj
 0001:00011694       ?__FrameUnwindToEmptyState@@YAXPEA_KPEAU_xDISPATCHER_CONTEXT@@PEBU_s_FuncInfo@@@Z 0000000180012694 f   LIBCMT:trnsctrl.obj
 0001:00011728       ?__SehTransFilter@@YAHPEAU_EXCEPTION_POINTERS@@PEAUEHExceptionRecord@@PEA_KPEAU_CONTEXT@@PEAU_xDISPATCHER_CONTEXT@@PEBU_s_FuncInfo@@PEAH@Z 0000000180012728 f   LIBCMT:trnsctrl.obj
 0001:000117cc       _CallSETranslator          00000001800127cc f   LIBCMT:trnsctrl.obj
 0001:00011820       _CreateFrameInfo           0000000180012820 f   LIBCMT:trnsctrl.obj
 0001:00011864       _FindAndUnlinkFrame        0000000180012864 f   LIBCMT:trnsctrl.obj
 0001:000118c4       _GetImageBase              00000001800128c4 f   LIBCMT:trnsctrl.obj
 0001:000118dc       _GetThrowImageBase         00000001800128dc f   LIBCMT:trnsctrl.obj
 0001:000118f4       _IsExceptionObjectToBeDestroyed 00000001800128f4 f   LIBCMT:trnsctrl.obj
 0001:00011928       _SetImageBase              0000000180012928 f   LIBCMT:trnsctrl.obj
 0001:00011944       _SetThrowImageBase         0000000180012944 f   LIBCMT:trnsctrl.obj
 0001:00011960       _UnwindNestedFrames        0000000180012960 f   LIBCMT:trnsctrl.obj
 0001:00011ad8       __CxxFrameHandler3         0000000180012ad8 f   LIBCMT:trnsctrl.obj
 0001:00011b60       iswctype                   0000000180012b60 f   LIBCMT:iswctype.obj
 0001:00011bc8       _wchartodigit              0000000180012bc8 f   LIBCMT:wchtodig.obj
 0001:00011d60       __addlocaleref             0000000180012d60 f   LIBCMT:localref.obj
 0001:00011dec       __freetlocinfo             0000000180012dec f   LIBCMT:localref.obj
 0001:00011f84       __removelocaleref          0000000180012f84 f   LIBCMT:localref.obj
 0001:00012028       __updatetlocinfo           0000000180013028 f   LIBCMT:localref.obj
 0001:000120a0       _updatetlocinfoEx_nolock   00000001800130a0 f   LIBCMT:localref.obj
 0001:00012104       __initmbctable             0000000180013104 f   LIBCMT:mbctype.obj
 0001:00012420       __updatetmbcinfo           0000000180013420 f   LIBCMT:mbctype.obj
 0001:000124dc       _setmbcp                   00000001800134dc f   LIBCMT:mbctype.obj
 0001:00012738       _setmbcp_nolock            0000000180013738 f   LIBCMT:mbctype.obj
 0001:000129e8       _towlower_l                00000001800139e8 f   LIBCMT:towlower.obj
 0001:00012ab4       _freefls                   0000000180013ab4 f   LIBCMT:tidtable.obj
 0001:00012be8       _freeptd                   0000000180013be8 f   LIBCMT:tidtable.obj
 0001:00012c24       _getptd                    0000000180013c24 f   LIBCMT:tidtable.obj
 0001:00012c48       _getptd_noexit             0000000180013c48 f   LIBCMT:tidtable.obj
 0001:00012ccc       _initptd                   0000000180013ccc f   LIBCMT:tidtable.obj
 0001:00012d90       _mtinit                    0000000180013d90 f   LIBCMT:tidtable.obj
 0001:00012e10       _mtterm                    0000000180013e10 f   LIBCMT:tidtable.obj
 0001:00012e34       _locterm                   0000000180013e34 f   LIBCMT:wsetloca.obj
 0001:00012e7c       __crt_debugger_hook        0000000180013e7c f   LIBCMT:dbghook.obj
 0001:00012e84       __crtCaptureCurrentContext 0000000180013e84 f   LIBCMT:winapisupp.obj
 0001:00012ef4       __crtCapturePreviousContext 0000000180013ef4 f   LIBCMT:winapisupp.obj
 0001:00012f68       __crtFlsAlloc              0000000180013f68 f   LIBCMT:winapisupp.obj
 0001:00012f84       __crtFlsFree               0000000180013f84 f   LIBCMT:winapisupp.obj
 0001:00012fa0       __crtFlsGetValue           0000000180013fa0 f   LIBCMT:winapisupp.obj
 0001:00012fbc       __crtFlsSetValue           0000000180013fbc f   LIBCMT:winapisupp.obj
 0001:00012fd8       __crtInitializeCriticalSectionEx 0000000180013fd8 f   LIBCMT:winapisupp.obj
 0001:00013004       __crtIsPackagedApp         0000000180014004 f   LIBCMT:winapisupp.obj
 0001:00013050       __crtLoadWinApiPointers    0000000180014050 f   LIBCMT:winapisupp.obj
 0001:0001344c       __crtSleep                 000000018001444c f   LIBCMT:winapisupp.obj
 0001:00013454       __crtTerminateProcess      0000000180014454 f   LIBCMT:winapisupp.obj
 0001:00013474       __crtUnhandledException    0000000180014474 f   LIBCMT:winapisupp.obj
 0001:00013494       _heap_init                 0000000180014494 f   LIBCMT:heapinit.obj
 0001:000134b4       _heap_term                 00000001800144b4 f   LIBCMT:heapinit.obj
 0001:000134c0       _FF_MSGBANNER              00000001800144c0 f   LIBCMT:crt0msg.obj
 0001:00013504       _GET_RTERRMSG              0000000180014504 f   LIBCMT:crt0msg.obj
 0001:00013534       _NMSG_WRITE                0000000180014534 f   LIBCMT:crt0msg.obj
 0001:000137a4       _XcptFilter                00000001800147a4 f   LIBCMT:winxfltr.obj
 0001:00013970       __CppXcptFilter            0000000180014970 f   LIBCMT:winxfltr.obj
 0001:00013984       _ioinit                    0000000180014984 f   LIBCMT:ioinit.obj
 0001:00013cb4       _ioterm                    0000000180014cb4 f   LIBCMT:ioinit.obj
 0001:00013d28       _setargv                   0000000180014d28 f   LIBCMT:stdargv.obj
 0001:00013fe4       _setenvp                   0000000180014fe4 f   LIBCMT:stdenvp.obj
 0001:00014118       __security_init_cookie     0000000180015118 f   LIBCMT:gs_support.obj
 0001:000141c4       __crtGetEnvironmentStringsA 00000001800151c4 f   LIBCMT:a_env.obj
 0001:000142b8       _RTC_Initialize            00000001800152b8 f   LIBCMT:initsect.obj
 0001:000142f0       _RTC_Terminate             00000001800152f0 f   LIBCMT:initsect.obj
 0001:00014328       __GSHandlerCheck           0000000180015328 f   LIBCMT:gshandler.obj
 0001:00014348       __GSHandlerCheckCommon     0000000180015348 f   LIBCMT:gshandler.obj
 0001:000143ac       _cfltcvt                   00000001800153ac f   LIBCMT:cvt.obj
 0001:000143d0       _cfltcvt_l                 00000001800153d0 f   LIBCMT:cvt.obj
 0001:00014450       _cftoa_l                   0000000180015450 f   LIBCMT:cvt.obj
 0001:000149fc       _cftoe_l                   00000001800159fc f   LIBCMT:cvt.obj
 0001:00014c58       _cftof_l                   0000000180015c58 f   LIBCMT:cvt.obj
 0001:00014d2c       _cftog_l                   0000000180015d2c f   LIBCMT:cvt.obj
 0001:00014e60       _cropzeros                 0000000180015e60 f   LIBCMT:cvt.obj
 0001:00014e68       _cropzeros_l               0000000180015e68 f   LIBCMT:cvt.obj
 0001:00014f00       _fassign                   0000000180015f00 f   LIBCMT:cvt.obj
 0001:00014f08       _fassign_l                 0000000180015f08 f   LIBCMT:cvt.obj
 0001:00014f48       _forcdecpt                 0000000180015f48 f   LIBCMT:cvt.obj
 0001:00014f50       _forcdecpt_l               0000000180015f50 f   LIBCMT:cvt.obj
 0001:00014fd0       _positive                  0000000180015fd0 f   LIBCMT:cvt.obj
 0001:00014fe4       _initp_misc_cfltcvt_tab    0000000180015fe4 f   LIBCMT:cmiscdat.obj
 0001:00015020       strcpy_s                   0000000180016020 f   LIBCMT:strcpy_s.obj
 0001:000150a0       strlen                     00000001800160a0 f   LIBCMT:strlen.obj
 0001:00015148       _lock                      0000000180016148 f   LIBCMT:mlock.obj
 0001:0001518c       _mtdeletelocks             000000018001618c f   LIBCMT:mlock.obj
 0001:00015214       _mtinitlocknum             0000000180016214 f   LIBCMT:mlock.obj
 0001:000152d4       _mtinitlocks               00000001800162d4 f   LIBCMT:mlock.obj
 0001:00015338       _unlock                    0000000180016338 f   LIBCMT:mlock.obj
 0001:00015360       _local_unwind              0000000180016360 f   LIBCMT:jmpuwind.obj
 0001:00015390       _NLG_Notify                0000000180016390 f   LIBCMT:jmpuwind.obj
 0001:000153b0       __NLG_Dispatch2            00000001800163b0 f   LIBCMT:jmpuwind.obj
 0001:000153c0       __NLG_Return2              00000001800163c0 f   LIBCMT:jmpuwind.obj
 0001:000153c4       __initstdio                00000001800163c4 f   LIBCMT:_file.obj
 0001:0001545c       __endstdio                 000000018001645c f   LIBCMT:_file.obj
 0001:0001548c       __iob_func                 000000018001648c f   LIBCMT:_file.obj
 0001:00015494       _lock_file                 0000000180016494 f   LIBCMT:_file.obj
 0001:000154fc       _lock_file2                00000001800164fc f   LIBCMT:_file.obj
 0001:00015530       _unlock_file               0000000180016530 f   LIBCMT:_file.obj
 0001:00015580       _unlock_file2              0000000180016580 f   LIBCMT:_file.obj
 0001:000155a0       _fileno                    00000001800165a0 f   LIBCMT:fileno.obj
 0001:000155c8       _isatty                    00000001800165c8 f   LIBCMT:isatty.obj
 0001:00015628       _write                     0000000180016628 f   LIBCMT:write.obj
 0001:0001570c       _write_nolock              000000018001670c f   LIBCMT:write.obj
 0001:00015f00       _lseeki64                  0000000180016f00 f   LIBCMT:lseeki64.obj
 0001:00015fe8       _lseeki64_nolock           0000000180016fe8 f   LIBCMT:lseeki64.obj
 0001:0001607c       _getbuf                    000000018001707c f   LIBCMT:_getbuf.obj
 0001:000160d0       _woutput_s_l               00000001800170d0 f   LIBCMT:woutputs.obj
 0001:00016ce4       _isleadbyte_l              0000000180017ce4 f i LIBCMT:_wctype.obj
 0001:00016d28       isleadbyte                 0000000180017d28 f i LIBCMT:_wctype.obj
 0001:00016d70       _get_printf_count_output   0000000180017d70 f   LIBCMT:printf.obj
 0001:00016d88       _fputwc_nolock             0000000180017d88 f   LIBCMT:fputwc.obj
 0001:00016f7c       _mbtowc_l                  0000000180017f7c f   LIBCMT:mbtowc.obj
 0001:000170d0       mbtowc                     00000001800180d0 f   LIBCMT:mbtowc.obj
 0001:000170e0       _FindPESection             00000001800180e0 f   LIBCMT:pesect.obj
 0001:00017130       _IsNonwritableInCurrentImage 0000000180018130 f   LIBCMT:pesect.obj
 0001:00017180       _ValidateImageBase         0000000180018180 f   LIBCMT:pesect.obj
 0001:000171b0       ?_inconsistency@@YAXXZ     00000001800181b0 f   LIBCMT:hooks.obj
 0001:000171d0       ?terminate@@YAXXZ          00000001800181d0 f   LIBCMT:hooks.obj
 0001:000171f0       _initp_eh_hooks            00000001800181f0 f   LIBCMT:hooks.obj
 0001:00017210       __get_sigabrt              0000000180018210 f   LIBCMT:winsig.obj
 0001:00017220       _initp_misc_winsig         0000000180018220 f   LIBCMT:winsig.obj
 0001:00017240       raise                      0000000180018240 f   LIBCMT:winsig.obj
 0001:00017474       _initp_misc_rand_s         0000000180018474 f   LIBCMT:rand_s.obj
 0001:0001747c       realloc                    000000018001847c f   LIBCMT:realloc.obj
 0001:00017550       _calloc_impl               0000000180018550 f   LIBCMT:calloc_impl.obj
 0001:000175ec       GetTableIndexFromLocaleName 00000001800185ec f   LIBCMT:winapinls.obj
 0001:00017678       __crtDownlevelLocaleNameToLCID 0000000180018678 f   LIBCMT:winapinls.obj
 0001:000176ac       __crtLCMapStringEx         00000001800186ac f   LIBCMT:winapinls.obj
 0001:0001773c       __wcsnicmp_ascii           000000018001873c f   LIBCMT:winapinls.obj
 0001:00017794       __DestructExceptionObject  0000000180018794 f   LIBCMT:frame.obj
 0001:00017804       ??0bad_exception@std@@QEAA@AEBV01@@Z 0000000180018804 f i LIBCMT:frame.obj
 0001:00017828       ??1bad_exception@std@@UEAA@XZ 0000000180018828 f i LIBCMT:frame.obj
 0001:00017838       ??_Gbad_exception@std@@UEAAPEAXI@Z 0000000180018838 f i LIBCMT:frame.obj
 0001:00017838       ??_Ebad_exception@std@@UEAAPEAXI@Z 0000000180018838 f i LIBCMT:frame.obj
 0001:0001812c       __AdjustPointer            000000018001912c f   LIBCMT:frame.obj
 0001:00018150       __BuildCatchObject         0000000180019150 f   LIBCMT:frame.obj
 0001:00018208       __BuildCatchObjectHelper   0000000180019208 f   LIBCMT:frame.obj
 0001:00018458       __CxxCallCatchBlock        0000000180019458 f   LIBCMT:frame.obj
 0001:0001865c       __FrameUnwindFilter        000000018001965c f   LIBCMT:frame.obj
 0001:000186b0       __FrameUnwindToState       00000001800196b0 f   LIBCMT:frame.obj
 0001:00018844       __InternalCxxFrameHandler  0000000180019844 f   LIBCMT:frame.obj
 0001:00018a68       __TypeMatch                0000000180019a68 f   LIBCMT:frame.obj
 0001:00018b98       ?__GetCurrentState@@YAHPEA_KPEAU_xDISPATCHER_CONTEXT@@PEBU_s_FuncInfo@@@Z 0000000180019b98 f   LIBCMT:ehstate.obj
 0001:00018bc0       ?__GetUnwindTryBlock@@YAHPEA_KPEAU_xDISPATCHER_CONTEXT@@PEBU_s_FuncInfo@@@Z 0000000180019bc0 f   LIBCMT:ehstate.obj
 0001:00018bec       ?__SetState@@YAXPEA_KPEAU_xDISPATCHER_CONTEXT@@PEBU_s_FuncInfo@@H@Z 0000000180019bec f   LIBCMT:ehstate.obj
 0001:00018bf8       ?__SetUnwindTryBlock@@YAXPEA_KPEAU_xDISPATCHER_CONTEXT@@PEBU_s_FuncInfo@@H@Z 0000000180019bf8 f   LIBCMT:ehstate.obj
 0001:00018c34       ?__StateFromControlPc@@YAHPEBU_s_FuncInfo@@PEAU_xDISPATCHER_CONTEXT@@@Z 0000000180019c34 f   LIBCMT:ehstate.obj
 0001:00018c3c       ?__StateFromIp@@YAHPEBU_s_FuncInfo@@PEAU_xDISPATCHER_CONTEXT@@_J@Z 0000000180019c3c f   LIBCMT:ehstate.obj
 0001:00018cc8       __free_lconv_mon           0000000180019cc8 f   LIBCMT:initmon.obj
 0001:00018dd4       __free_lconv_num           0000000180019dd4 f   LIBCMT:initnum.obj
 0001:00018e40       __free_lc_time             0000000180019e40 f   LIBCMT:inittime.obj
 0001:00019528       __crtLCMapStringA          000000018001a528 f   LIBCMT:a_map.obj
 0001:00019738       __crtGetStringTypeA        000000018001a738 f   LIBCMT:a_str.obj
 0001:000197b4       __crtLCMapStringW          000000018001a7b4 f   LIBCMT:w_map.obj
 0001:00019810       memcmp                     000000018001a810 f   LIBCMT:memcmp.obj
 0001:000198d8       wcscat_s                   000000018001a8d8 f   LIBCMT:wcscat_s.obj
 0001:00019960       wcslen                     000000018001a960 f   LIBCMT:wcslen.obj
 0001:0001997c       wcsnlen                    000000018001a97c f   LIBCMT:wcslen_s.obj
 0001:0001999c       _atodbl_l                  000000018001a99c f   LIBCMT:atodbl.obj
 0001:00019a64       _atoflt_l                  000000018001aa64 f   LIBCMT:atodbl.obj
 0001:00019b2c       _set_error_mode            000000018001ab2c f   LIBCMT:errmode.obj
 0001:00019b6c       __crtMessageBoxW           000000018001ab6c f   LIBCMT:crtmboxw.obj
 0001:00019e5c       _ismbblead                 000000018001ae5c f   LIBCMT:ismbbyte.obj
 0001:00019e70       isdigit                    000000018001ae70 f i LIBCMT:_ctype.obj
 0001:00019eec       _tolower_l                 000000018001aeec f   LIBCMT:tolower.obj
 0001:0001a040       tolower                    000000018001b040 f   LIBCMT:tolower.obj
 0001:0001a060       strrchr                    000000018001b060 f   LIBCMT:strrchr.obj
 0001:0001a1a4       _fptostr                   000000018001b1a4 f   LIBCMT:_fptostr.obj
 0001:0001a270       __dtold                    000000018001b270 f   LIBCMT:cfout.obj
 0001:0001a340       _fltout2                   000000018001b340 f   LIBCMT:cfout.obj
 0001:0001a3f8       _fptrap                    000000018001b3f8 f   LIBCMT:crt0fp.obj
 0001:0001a404       _fcloseall                 000000018001b404 f   LIBCMT:closeall.obj
 0001:0001a4ac       _fflush_nolock             000000018001b4ac f   LIBCMT:fflush.obj
 0001:0001a4f8       _flush                     000000018001b4f8 f   LIBCMT:fflush.obj
 0001:0001a574       _flushall                  000000018001b574 f   LIBCMT:fflush.obj
 0001:0001a668       __lock_fhandle             000000018001b668 f   LIBCMT:osfinfo.obj
 0001:0001a700       _free_osfhnd               000000018001b700 f   LIBCMT:osfinfo.obj
 0001:0001a7ac       _get_osfhandle             000000018001b7ac f   LIBCMT:osfinfo.obj
 0001:0001a820       _unlock_fhandle            000000018001b820 f   LIBCMT:osfinfo.obj
 0001:0001a84c       _putwch_nolock             000000018001b84c f   LIBCMT:putwch.obj
 0001:0001a8a8       _wctomb_s_l                000000018001b8a8 f   LIBCMT:wctomb.obj
 0001:0001aa34       wctomb_s                   000000018001ba34 f   LIBCMT:wctomb.obj
 0001:0001aa48       _flswbuf                   000000018001ba48 f   LIBCMT:_flswbuf.obj
 0001:0001abd8       ?_ValidateWrite@@YAHPEAXI@Z 000000018001bbd8 f   LIBCMT:validate.obj
 0001:0001abd8       ?_ValidateExecute@@YAHP6A_JXZ@Z 000000018001bbd8 f   LIBCMT:validate.obj
 0001:0001abd8       ?_ValidateRead@@YAHPEBXI@Z 000000018001bbd8 f   LIBCMT:validate.obj
 0001:0001ac00       _CallSettingFrame          000000018001bc00 f   LIBCMT:handlers.obj
 0001:0001ac40       _GetNextInstrOffset        000000018001bc40 f   LIBCMT:handlers.obj
 0001:0001ac50       _ld12tod                   000000018001bc50 f   LIBCMT:intrncvt.obj
 0001:0001b208       _ld12tof                   000000018001c208 f   LIBCMT:intrncvt.obj
 0001:0001b7c0       __strgtold12_l             000000018001c7c0 f   LIBCMT:strgtold.obj
 0001:0001c01c       _isctype_l                 000000018001d01c f   LIBCMT:isctype.obj
 0001:0001c0f8       $I10_OUTPUT                000000018001d0f8 f   LIBCMT:x10fout.obj
 0001:0001cbc4       _fclose_nolock             000000018001dbc4 f   LIBCMT:fclose.obj
 0001:0001cc40       fclose                     000000018001dc40 f   LIBCMT:fclose.obj
 0001:0001cca8       _commit                    000000018001dca8 f   LIBCMT:commit.obj
 0001:0001cd80       __termconout               000000018001dd80 f   LIBCMT:initcon.obj
 0001:0001cda0       __initconout               000000018001dda0 f   LIBCMT:initcon.obj
 0001:0001cddc       __mtold12                  000000018001dddc f   LIBCMT:mantold.obj
 0001:0001d008       _close                     000000018001e008 f   LIBCMT:close.obj
 0001:0001d0cc       _close_nolock              000000018001e0cc f   LIBCMT:close.obj
 0001:0001d188       _freebuf                   000000018001e188 f   LIBCMT:_freebuf.obj
 0001:0001d1c0       ?_Syserror_map@std@@YAPEBDH@Z 000000018001e1c0 f   libcpmt:syserror.obj
 0001:0001d1e8       ?_Winerror_map@std@@YAPEBDH@Z 000000018001e1e8 f   libcpmt:syserror.obj
 0001:0001d210       ??0length_error@std@@QEAA@AEBV01@@Z 000000018001e210 f i libcpmt:xthrow.obj
 0001:0001d234       ??0logic_error@std@@QEAA@AEBV01@@Z 000000018001e234 f i libcpmt:xthrow.obj
 0001:0001d258       ??0out_of_range@std@@QEAA@AEBV01@@Z 000000018001e258 f i libcpmt:xthrow.obj
 0001:0001d27c       ??1length_error@std@@UEAA@XZ 000000018001e27c f i libcpmt:xthrow.obj
 0001:0001d27c       ??1out_of_range@std@@UEAA@XZ 000000018001e27c f i libcpmt:xthrow.obj
 0001:0001d284       ??_Elength_error@std@@UEAAPEAXI@Z 000000018001e284 f i libcpmt:xthrow.obj
 0001:0001d284       ??_Elogic_error@std@@UEAAPEAXI@Z 000000018001e284 f i libcpmt:xthrow.obj
 0001:0001d284       ??_Eout_of_range@std@@UEAAPEAXI@Z 000000018001e284 f i libcpmt:xthrow.obj
 0001:0001d284       ??_Gout_of_range@std@@UEAAPEAXI@Z 000000018001e284 f i libcpmt:xthrow.obj
 0001:0001d284       ??_Glength_error@std@@UEAAPEAXI@Z 000000018001e284 f i libcpmt:xthrow.obj
 0001:0001d284       ??_Glogic_error@std@@UEAAPEAXI@Z 000000018001e284 f i libcpmt:xthrow.obj
 0001:0001d2b4       ?_Xbad_alloc@std@@YAXXZ    000000018001e2b4 f   libcpmt:xthrow.obj
 0001:0001d2f8       ?_Xlength_error@std@@YAXPEBD@Z 000000018001e2f8 f   libcpmt:xthrow.obj
 0001:0001d330       ?_Xout_of_range@std@@YAXPEBD@Z 000000018001e330 f   libcpmt:xthrow.obj
 0001:0001d366       IsProcessorFeaturePresent  000000018001e366 f   kernel32:KERNEL32.dll
 0001:0001d36c       RtlUnwindEx                000000018001e36c f   kernel32:KERNEL32.dll
 0001:0001d374       __GSHandlerCheck_EH        000000018001e374 f   LIBCMT:gshandlereh.obj
 0002:00000000       __imp_RegOpenKeyExW        0000000180020000     advapi32:ADVAPI32.dll
 0002:00000008       __imp_RegCloseKey          0000000180020008     advapi32:ADVAPI32.dll
 0002:00000010       __imp_RegCreateKeyExW      0000000180020010     advapi32:ADVAPI32.dll
 0002:00000018       __imp_RegDeleteKeyW        0000000180020018     advapi32:ADVAPI32.dll
 0002:00000020       __imp_RegSetValueExW       0000000180020020     advapi32:ADVAPI32.dll
 0002:00000028       __imp_RegEnumKeyW          0000000180020028     advapi32:ADVAPI32.dll
 0002:00000030       __imp_RegGetValueW         0000000180020030     advapi32:ADVAPI32.dll
 0002:00000038       __imp_RegQueryValueExW     0000000180020038     advapi32:ADVAPI32.dll
 0002:00000040       \177ADVAPI32_NULL_THUNK_DATA 0000000180020040     advapi32:ADVAPI32.dll
 0002:00000048       __imp_CryptBinaryToStringW 0000000180020048     crypt32:CRYPT32.dll
 0002:00000050       __imp_CertCompareCertificateName 0000000180020050     crypt32:CRYPT32.dll
 0002:00000058       __imp_CertNameToStrW       0000000180020058     crypt32:CRYPT32.dll
 0002:00000060       __imp_CertGetNameStringW   0000000180020060     crypt32:CRYPT32.dll
 0002:00000068       __imp_CryptStringToBinaryW 0000000180020068     crypt32:CRYPT32.dll
 0002:00000070       __imp_CertDuplicateCertificateContext 0000000180020070     crypt32:CRYPT32.dll
 0002:00000078       __imp_CertDuplicateStore   0000000180020078     crypt32:CRYPT32.dll
 0002:00000080       __imp_CertEnumCertificatesInStore 0000000180020080     crypt32:CRYPT32.dll
 0002:00000088       __imp_CertGetCertificateContextProperty 0000000180020088     crypt32:CRYPT32.dll
 0002:00000090       __imp_CertCloseStore       0000000180020090     crypt32:CRYPT32.dll
 0002:00000098       __imp_CertFindCertificateInStore 0000000180020098     crypt32:CRYPT32.dll
 0002:000000a0       __imp_CertCompareCertificate 00000001800200a0     crypt32:CRYPT32.dll
 0002:000000a8       __imp_CertFreeCertificateContext 00000001800200a8     crypt32:CRYPT32.dll
 0002:000000b0       __imp_CertOpenSystemStoreW 00000001800200b0     crypt32:CRYPT32.dll
 0002:000000b8       __imp_CryptUnprotectData   00000001800200b8     crypt32:CRYPT32.dll
 0002:000000c0       __imp_CryptProtectData     00000001800200c0     crypt32:CRYPT32.dll
 0002:000000c8       \177CRYPT32_NULL_THUNK_DATA 00000001800200c8     crypt32:CRYPT32.dll
 0002:000000d0       __imp_CryptUIDlgViewCertificateW 00000001800200d0     cryptui:CRYPTUI.dll
 0002:000000d8       \177CRYPTUI_NULL_THUNK_DATA 00000001800200d8     cryptui:CRYPTUI.dll
 0002:000000e0       __imp_QueryActCtxW         00000001800200e0     kernel32:KERNEL32.dll
 0002:000000e8       __imp_CreateActCtxW        00000001800200e8     kernel32:KERNEL32.dll
 0002:000000f0       __imp_ActivateActCtx       00000001800200f0     kernel32:KERNEL32.dll
 0002:000000f8       __imp_LoadLibraryW         00000001800200f8     kernel32:KERNEL32.dll
 0002:00000100       __imp_GetModuleFileNameW   0000000180020100     kernel32:KERNEL32.dll
 0002:00000108       __imp_DeactivateActCtx     0000000180020108     kernel32:KERNEL32.dll
 0002:00000110       __imp_GetLastError         0000000180020110     kernel32:KERNEL32.dll
 0002:00000118       __imp_SetLastError         0000000180020118     kernel32:KERNEL32.dll
 0002:00000120       __imp_GetProcAddress       0000000180020120     kernel32:KERNEL32.dll
 0002:00000128       __imp_DisableThreadLibraryCalls 0000000180020128     kernel32:KERNEL32.dll
 0002:00000130       __imp_LocalAlloc           0000000180020130     kernel32:KERNEL32.dll
 0002:00000138       __imp_OutputDebugStringA   0000000180020138     kernel32:KERNEL32.dll
 0002:00000140       __imp_FindActCtxSectionStringW 0000000180020140     kernel32:KERNEL32.dll
 0002:00000148       __imp_InitializeCriticalSection 0000000180020148     kernel32:KERNEL32.dll
 0002:00000150       __imp_GetDateFormatW       0000000180020150     kernel32:KERNEL32.dll
 0002:00000158       __imp_SystemTimeToFileTime 0000000180020158     kernel32:KERNEL32.dll
 0002:00000160       __imp_CompareFileTime      0000000180020160     kernel32:KERNEL32.dll
 0002:00000168       __imp_FileTimeToSystemTime 0000000180020168     kernel32:KERNEL32.dll
 0002:00000170       __imp_FileTimeToLocalFileTime 0000000180020170     kernel32:KERNEL32.dll
 0002:00000178       __imp_GetSystemTime        0000000180020178     kernel32:KERNEL32.dll
 0002:00000180       __imp_GetModuleHandleW     0000000180020180     kernel32:KERNEL32.dll
 0002:00000188       __imp_EnumResourceNamesW   0000000180020188     kernel32:KERNEL32.dll
 0002:00000190       __imp_FindResourceExW      0000000180020190     kernel32:KERNEL32.dll
 0002:00000198       __imp_LoadResource         0000000180020198     kernel32:KERNEL32.dll
 0002:000001a0       __imp_GetUserDefaultLangID 00000001800201a0     kernel32:KERNEL32.dll
 0002:000001a8       __imp_LeaveCriticalSection 00000001800201a8     kernel32:KERNEL32.dll
 0002:000001b0       __imp_SetThreadLocale      00000001800201b0     kernel32:KERNEL32.dll
 0002:000001b8       __imp_GetThreadLocale      00000001800201b8     kernel32:KERNEL32.dll
 0002:000001c0       __imp_EnterCriticalSection 00000001800201c0     kernel32:KERNEL32.dll
 0002:000001c8       __imp_DeleteCriticalSection 00000001800201c8     kernel32:KERNEL32.dll
 0002:000001d0       __imp_GetModuleHandleExW   00000001800201d0     kernel32:KERNEL32.dll
 0002:000001d8       __imp_CreateFileW          00000001800201d8     kernel32:KERNEL32.dll
 0002:000001e0       __imp_FlushFileBuffers     00000001800201e0     kernel32:KERNEL32.dll
 0002:000001e8       __imp_WriteConsoleW        00000001800201e8     kernel32:KERNEL32.dll
 0002:000001f0       __imp_SetStdHandle         00000001800201f0     kernel32:KERNEL32.dll
 0002:000001f8       __imp_OutputDebugStringW   00000001800201f8     kernel32:KERNEL32.dll
 0002:00000200       __imp_LCMapStringW         0000000180020200     kernel32:KERNEL32.dll
 0002:00000208       __imp_HeapReAlloc          0000000180020208     kernel32:KERNEL32.dll
 0002:00000210       __imp_LoadLibraryExW       0000000180020210     kernel32:KERNEL32.dll
 0002:00000218       __imp_SetFilePointerEx     0000000180020218     kernel32:KERNEL32.dll
 0002:00000220       __imp_GetConsoleMode       0000000180020220     kernel32:KERNEL32.dll
 0002:00000228       __imp_GetConsoleCP         0000000180020228     kernel32:KERNEL32.dll
 0002:00000230       __imp_FreeEnvironmentStringsW 0000000180020230     kernel32:KERNEL32.dll
 0002:00000238       __imp_GetEnvironmentStringsW 0000000180020238     kernel32:KERNEL32.dll
 0002:00000240       __imp_GetSystemTimeAsFileTime 0000000180020240     kernel32:KERNEL32.dll
 0002:00000248       __imp_GetCurrentProcessId  0000000180020248     kernel32:KERNEL32.dll
 0002:00000250       __imp_QueryPerformanceCounter 0000000180020250     kernel32:KERNEL32.dll
 0002:00000258       __imp_GetModuleFileNameA   0000000180020258     kernel32:KERNEL32.dll
 0002:00000260       __imp_GetFileType          0000000180020260     kernel32:KERNEL32.dll
 0002:00000268       __imp_WriteFile            0000000180020268     kernel32:KERNEL32.dll
 0002:00000270       __imp_LocalFree            0000000180020270     kernel32:KERNEL32.dll
 0002:00000278       __imp_GetProcessHeap       0000000180020278     kernel32:KERNEL32.dll
 0002:00000280       __imp_HeapFree             0000000180020280     kernel32:KERNEL32.dll
 0002:00000288       __imp_HeapAlloc            0000000180020288     kernel32:KERNEL32.dll
 0002:00000290       __imp_GetStdHandle         0000000180020290     kernel32:KERNEL32.dll
 0002:00000298       __imp_FreeLibrary          0000000180020298     kernel32:KERNEL32.dll
 0002:000002a0       __imp_GetStartupInfoW      00000001800202a0     kernel32:KERNEL32.dll
 0002:000002a8       __imp_TlsFree              00000001800202a8     kernel32:KERNEL32.dll
 0002:000002b0       __imp_TlsSetValue          00000001800202b0     kernel32:KERNEL32.dll
 0002:000002b8       __imp_TlsGetValue          00000001800202b8     kernel32:KERNEL32.dll
 0002:000002c0       __imp_TlsAlloc             00000001800202c0     kernel32:KERNEL32.dll
 0002:000002c8       __imp_TerminateProcess     00000001800202c8     kernel32:KERNEL32.dll
 0002:000002d0       __imp_CloseHandle          00000001800202d0     kernel32:KERNEL32.dll
 0002:000002d8       __imp_GetCurrentProcess    00000001800202d8     kernel32:KERNEL32.dll
 0002:000002e0       __imp_Sleep                00000001800202e0     kernel32:KERNEL32.dll
 0002:000002e8       __imp_InitializeCriticalSectionAndSpinCount 00000001800202e8     kernel32:KERNEL32.dll
 0002:000002f0       __imp_SetUnhandledExceptionFilter 00000001800202f0     kernel32:KERNEL32.dll
 0002:000002f8       __imp_UnhandledExceptionFilter 00000001800202f8     kernel32:KERNEL32.dll
 0002:00000300       __imp_RtlVirtualUnwind     0000000180020300     kernel32:KERNEL32.dll
 0002:00000308       __imp_RtlCaptureContext    0000000180020308     kernel32:KERNEL32.dll
 0002:00000310       __imp_GetCPInfo            0000000180020310     kernel32:KERNEL32.dll
 0002:00000318       __imp_GetOEMCP             0000000180020318     kernel32:KERNEL32.dll
 0002:00000320       __imp_GetACP               0000000180020320     kernel32:KERNEL32.dll
 0002:00000328       __imp_EncodePointer        0000000180020328     kernel32:KERNEL32.dll
 0002:00000330       __imp_DecodePointer        0000000180020330     kernel32:KERNEL32.dll
 0002:00000338       __imp_IsDebuggerPresent    0000000180020338     kernel32:KERNEL32.dll
 0002:00000340       __imp_IsProcessorFeaturePresent 0000000180020340     kernel32:KERNEL32.dll
 0002:00000348       __imp_GetCommandLineA      0000000180020348     kernel32:KERNEL32.dll
 0002:00000350       __imp_GetCurrentThreadId   0000000180020350     kernel32:KERNEL32.dll
 0002:00000358       __imp_RtlPcToFileHeader    0000000180020358     kernel32:KERNEL32.dll
 0002:00000360       __imp_RaiseException       0000000180020360     kernel32:KERNEL32.dll
 0002:00000368       __imp_ExitProcess          0000000180020368     kernel32:KERNEL32.dll
 0002:00000370       __imp_MultiByteToWideChar  0000000180020370     kernel32:KERNEL32.dll
 0002:00000378       __imp_WideCharToMultiByte  0000000180020378     kernel32:KERNEL32.dll
 0002:00000380       __imp_HeapSize             0000000180020380     kernel32:KERNEL32.dll
 0002:00000388       __imp_RtlUnwindEx          0000000180020388     kernel32:KERNEL32.dll
 0002:00000390       __imp_RtlLookupFunctionEntry 0000000180020390     kernel32:KERNEL32.dll
 0002:00000398       __imp_GetStringTypeW       0000000180020398     kernel32:KERNEL32.dll
 0002:000003a0       __imp_IsValidCodePage      00000001800203a0     kernel32:KERNEL32.dll
 0002:000003a8       \177KERNEL32_NULL_THUNK_DATA 00000001800203a8     kernel32:KERNEL32.dll
 0002:000003b0       __imp_SysFreeString        00000001800203b0     oleaut32:OLEAUT32.dll
 0002:000003b8       __imp_SysStringByteLen     00000001800203b8     oleaut32:OLEAUT32.dll
 0002:000003c0       __imp_VariantInit          00000001800203c0     oleaut32:OLEAUT32.dll
 0002:000003c8       __imp_SysAllocStringByteLen 00000001800203c8     oleaut32:OLEAUT32.dll
 0002:000003d0       __imp_VariantClear         00000001800203d0     oleaut32:OLEAUT32.dll
 0002:000003d8       __imp_SysStringLen         00000001800203d8     oleaut32:OLEAUT32.dll
 0002:000003e0       __imp_SysAllocString       00000001800203e0     oleaut32:OLEAUT32.dll
 0002:000003e8       \177OLEAUT32_NULL_THUNK_DATA 00000001800203e8     oleaut32:OLEAUT32.dll
 0002:000003f0       __imp_UuidToStringW        00000001800203f0     rpcrt4:RPCRT4.dll
 0002:000003f8       __imp_RpcStringFreeW       00000001800203f8     rpcrt4:RPCRT4.dll
 0002:00000400       \177RPCRT4_NULL_THUNK_DATA 0000000180020400     rpcrt4:RPCRT4.dll
 0002:00000408       __imp_MessageBoxW          0000000180020408     user32:USER32.dll
 0002:00000410       __imp_LoadStringW          0000000180020410     user32:USER32.dll
 0002:00000418       __imp_SetWindowLongPtrW    0000000180020418     user32:USER32.dll
 0002:00000420       __imp_EnableWindow         0000000180020420     user32:USER32.dll
 0002:00000428       __imp_SetWindowTextW       0000000180020428     user32:USER32.dll
 0002:00000430       __imp_GetPropW             0000000180020430     user32:USER32.dll
 0002:00000438       __imp_GetWindowTextLengthW 0000000180020438     user32:USER32.dll
 0002:00000440       __imp_GetFocus             0000000180020440     user32:USER32.dll
 0002:00000448       __imp_InvalidateRect       0000000180020448     user32:USER32.dll
 0002:00000450       __imp_UpdateWindow         0000000180020450     user32:USER32.dll
 0002:00000458       __imp_GetClientRect        0000000180020458     user32:USER32.dll
 0002:00000460       __imp_SendMessageW         0000000180020460     user32:USER32.dll
 0002:00000468       __imp_GetWindowTextW       0000000180020468     user32:USER32.dll
 0002:00000470       __imp_GetWindow            0000000180020470     user32:USER32.dll
 0002:00000478       __imp_GetWindowLongPtrW    0000000180020478     user32:USER32.dll
 0002:00000480       __imp_EndDialog            0000000180020480     user32:USER32.dll
 0002:00000488       __imp_CheckDlgButton       0000000180020488     user32:USER32.dll
 0002:00000490       __imp_ShowWindow           0000000180020490     user32:USER32.dll
 0002:00000498       __imp_IsDlgButtonChecked   0000000180020498     user32:USER32.dll
 0002:000004a0       __imp_RemovePropW          00000001800204a0     user32:USER32.dll
 0002:000004a8       __imp_PostMessageW         00000001800204a8     user32:USER32.dll
 0002:000004b0       __imp_DialogBoxParamW      00000001800204b0     user32:USER32.dll
 0002:000004b8       __imp_GetParent            00000001800204b8     user32:USER32.dll
 0002:000004c0       __imp_SetPropW             00000001800204c0     user32:USER32.dll
 0002:000004c8       __imp_GetDlgItem           00000001800204c8     user32:USER32.dll
 0002:000004d0       \177USER32_NULL_THUNK_DATA 00000001800204d0     user32:USER32.dll
 0002:000004d8       __imp_CLSIDFromString      00000001800204d8     ole32:ole32.dll
 0002:000004e0       __imp_StringFromIID        00000001800204e0     ole32:ole32.dll
 0002:000004e8       __imp_CoTaskMemFree        00000001800204e8     ole32:ole32.dll
 0002:000004f0       __imp_CoCreateInstance     00000001800204f0     ole32:ole32.dll
 0002:000004f8       __imp_CoTaskMemAlloc       00000001800204f8     ole32:ole32.dll
 0002:00000500       __imp_StringFromCLSID      0000000180020500     ole32:ole32.dll
 0002:00000508       \177ole32_NULL_THUNK_DATA  0000000180020508     ole32:ole32.dll
 0002:00000510       __xc_a                     0000000180020510     LIBCMT:crt0init.obj
 0002:00000548       __xc_z                     0000000180020548     LIBCMT:crt0init.obj
 0002:00000550       __xi_a                     0000000180020550     LIBCMT:crt0init.obj
 0002:00000578       __xi_z                     0000000180020578     LIBCMT:crt0init.obj
 0002:00000580       __xp_a                     0000000180020580     LIBCMT:crt0init.obj
 0002:000005a0       __xp_z                     00000001800205a0     LIBCMT:crt0init.obj
 0002:000005a8       __xt_a                     00000001800205a8     LIBCMT:crt0init.obj
 0002:000005b0       __xt_z                     00000001800205b0     LIBCMT:crt0init.obj
 0002:000005f8       ??_7_com_error@@6B@        00000001800205f8     comsuppw:comraise.obj
 0002:00000600       IID_IUnknown               0000000180020600     uuid:unknwn_i.obj
 0002:00000610       IID_IClassFactory          0000000180020610     uuid:unknwn_i.obj
 0002:00000620       IID_IWizardExtension       0000000180020620     uuid:shguids2.obj
 0002:00000630       IID_IPropertyBag           0000000180020630     uuid:oaidl_i.obj
 0002:00000640       IID_IObjectWithSite        0000000180020640     uuid:ocidl_i.obj
 0002:00000658       ??_7type_info@@6B@         0000000180020658     LIBCMT:typinfo.obj
 0002:00000668       ??_7bad_alloc@std@@6B@     0000000180020668     LIBCMT:new.obj
 0002:00000678       ??_C@_0P@GHFPNOJB@bad?5allocation?$AA@ 0000000180020678     LIBCMT:new.obj
 0002:000006c0       _pDefaultRawDllMain        00000001800206c0     LIBCMT:dllcrt0.obj
 0002:000006c0       _pRawDllMain               00000001800206c0     LIBCMT:dllcrt0.obj
 0002:00000710       _FPinit                    0000000180020710     LIBCMT:fpinit.obj
 0002:00000720       ??_7exception@std@@6B@     0000000180020720     LIBCMT:stdexcpt.obj
 0002:00000730       ??_C@_0BC@EOODALEL@Unknown?5exception?$AA@ 0000000180020730     LIBCMT:stdexcpt.obj
 0002:00000748       ??_C@_1BI@BGOHAHKC@?$AAm?$AAs?$AAc?$AAo?$AAr?$AAe?$AAe?$AA?4?$AAd?$AAl?$AAl?$AA?$AA@ 0000000180020748     LIBCMT:crt0dat.obj
 0002:00000760       ??_C@_0P@MIGLKIOC@CorExitProcess?$AA@ 0000000180020760     LIBCMT:crt0dat.obj
 0002:00000828       ??_C@_1M@HPNHIDJI@?$AAj?$AAa?$AA?9?$AAJ?$AAP?$AA?$AA@ 0000000180020828     LIBCMT:mbctype.obj
 0002:00000838       ??_C@_1M@BIBDDEMK@?$AAz?$AAh?$AA?9?$AAC?$AAN?$AA?$AA@ 0000000180020838     LIBCMT:mbctype.obj
 0002:00000848       ??_C@_1M@JLOOOEGK@?$AAk?$AAo?$AA?9?$AAK?$AAR?$AA?$AA@ 0000000180020848     LIBCMT:mbctype.obj
 0002:00000858       ??_C@_1M@CLNBBOPM@?$AAz?$AAh?$AA?9?$AAT?$AAW?$AA?$AA@ 0000000180020858     LIBCMT:mbctype.obj
 0002:00000864       ??_C@_03KOEHGMDN@Sun?$AA@  0000000180020864     LIBCMT:nlsdata.obj
 0002:00000868       ??_C@_03PDAGKDH@Mon?$AA@   0000000180020868     LIBCMT:nlsdata.obj
 0002:0000086c       ??_C@_03NAGEINEP@Tue?$AA@  000000018002086c     LIBCMT:nlsdata.obj
 0002:00000870       ??_C@_03MHOMLAJA@Wed?$AA@  0000000180020870     LIBCMT:nlsdata.obj
 0002:00000874       ??_C@_03IOFIKPDN@Thu?$AA@  0000000180020874     LIBCMT:nlsdata.obj
 0002:00000878       ??_C@_03IDIOELNC@Fri?$AA@  0000000180020878     LIBCMT:nlsdata.obj
 0002:0000087c       ??_C@_03FEFJNEK@Sat?$AA@   000000018002087c     LIBCMT:nlsdata.obj
 0002:00000880       ??_C@_06OOPIFAJ@Sunday?$AA@ 0000000180020880     LIBCMT:nlsdata.obj
 0002:00000888       ??_C@_06JLEDEDGH@Monday?$AA@ 0000000180020888     LIBCMT:nlsdata.obj
 0002:00000890       ??_C@_07BAAGCFCM@Tuesday?$AA@ 0000000180020890     LIBCMT:nlsdata.obj
 0002:00000898       ??_C@_09DLIGFAKA@Wednesday?$AA@ 0000000180020898     LIBCMT:nlsdata.obj
 0002:000008a8       ??_C@_08HACCIKIA@Thursday?$AA@ 00000001800208a8     LIBCMT:nlsdata.obj
 0002:000008b4       ??_C@_06JECMNKMI@Friday?$AA@ 00000001800208b4     LIBCMT:nlsdata.obj
 0002:000008c0       ??_C@_08INBOOONO@Saturday?$AA@ 00000001800208c0     LIBCMT:nlsdata.obj
 0002:000008cc       ??_C@_03JIHJHPIE@Jan?$AA@  00000001800208cc     LIBCMT:nlsdata.obj
 0002:000008d0       ??_C@_03HJBDCHOM@Feb?$AA@  00000001800208d0     LIBCMT:nlsdata.obj
 0002:000008d4       ??_C@_03ODNJBKGA@Mar?$AA@  00000001800208d4     LIBCMT:nlsdata.obj
 0002:000008d8       ??_C@_03LEOLGMJP@Apr?$AA@  00000001800208d8     LIBCMT:nlsdata.obj
 0002:000008dc       ??_C@_03CNMDKL@May?$AA@    00000001800208dc     LIBCMT:nlsdata.obj
 0002:000008e0       ??_C@_03IDFGHECI@Jun?$AA@  00000001800208e0     LIBCMT:nlsdata.obj
 0002:000008e4       ??_C@_03LBGABGKK@Jul?$AA@  00000001800208e4     LIBCMT:nlsdata.obj
 0002:000008e8       ??_C@_03IFJFEIGA@Aug?$AA@  00000001800208e8     LIBCMT:nlsdata.obj
 0002:000008ec       ??_C@_03GGCAPAJC@Sep?$AA@  00000001800208ec     LIBCMT:nlsdata.obj
 0002:000008f0       ??_C@_03BMAOKBAD@Oct?$AA@  00000001800208f0     LIBCMT:nlsdata.obj
 0002:000008f4       ??_C@_03JPJOFNIA@Nov?$AA@  00000001800208f4     LIBCMT:nlsdata.obj
 0002:000008f8       ??_C@_03MKABNOCG@Dec?$AA@  00000001800208f8     LIBCMT:nlsdata.obj
 0002:00000900       ??_C@_07CGJPFGJA@January?$AA@ 0000000180020900     LIBCMT:nlsdata.obj
 0002:00000908       ??_C@_08GNJGEPFN@February?$AA@ 0000000180020908     LIBCMT:nlsdata.obj
 0002:00000914       ??_C@_05HPCKOFNC@March?$AA@ 0000000180020914     LIBCMT:nlsdata.obj
 0002:0000091c       ??_C@_05DMJDNLEJ@April?$AA@ 000000018002091c     LIBCMT:nlsdata.obj
 0002:00000924       ??_C@_04CNLMGBGM@June?$AA@ 0000000180020924     LIBCMT:nlsdata.obj
 0002:0000092c       ??_C@_04MIEPOIFP@July?$AA@ 000000018002092c     LIBCMT:nlsdata.obj
 0002:00000934       ??_C@_06LBBHFDDG@August?$AA@ 0000000180020934     LIBCMT:nlsdata.obj
 0002:00000940       ??_C@_09BHHEALKD@September?$AA@ 0000000180020940     LIBCMT:nlsdata.obj
 0002:00000950       ??_C@_07JJNFCEND@October?$AA@ 0000000180020950     LIBCMT:nlsdata.obj
 0002:00000958       ??_C@_08HCHEGEOA@November?$AA@ 0000000180020958     LIBCMT:nlsdata.obj
 0002:00000968       ??_C@_08EDHMEBNP@December?$AA@ 0000000180020968     LIBCMT:nlsdata.obj
 0002:00000974       ??_C@_02DEDBPAFC@AM?$AA@   0000000180020974     LIBCMT:nlsdata.obj
 0002:00000978       ??_C@_02CJNFDJBF@PM?$AA@   0000000180020978     LIBCMT:nlsdata.obj
 0002:00000980       ??_C@_08BPBNCDIB@MM?1dd?1yy?$AA@ 0000000180020980     LIBCMT:nlsdata.obj
 0002:00000990       ??_C@_0BE@CKGJFCPC@dddd?0?5MMMM?5dd?0?5yyyy?$AA@ 0000000180020990     LIBCMT:nlsdata.obj
 0002:000009a8       ??_C@_08JCCMCCIL@HH?3mm?3ss?$AA@ 00000001800209a8     LIBCMT:nlsdata.obj
 0002:000009b8       ??_C@_17MBGCMIPB@?$AAS?$AAu?$AAn?$AA?$AA@ 00000001800209b8     LIBCMT:nlsdata.obj
 0002:000009c0       ??_C@_17KBOMKBF@?$AAM?$AAo?$AAn?$AA?$AA@ 00000001800209c0     LIBCMT:nlsdata.obj
 0002:000009c8       ??_C@_17BMKGEGOJ@?$AAT?$AAu?$AAe?$AA?$AA@ 00000001800209c8     LIBCMT:nlsdata.obj
 0002:000009d0       ??_C@_17CJEDCEPE@?$AAW?$AAe?$AAd?$AA?$AA@ 00000001800209d0     LIBCMT:nlsdata.obj
 0002:000009d8       ??_C@_17PDPHAADD@?$AAT?$AAh?$AAu?$AA?$AA@ 00000001800209d8     LIBCMT:nlsdata.obj
 0002:000009e0       ??_C@_17HFOLPPLP@?$AAF?$AAr?$AAi?$AA?$AA@ 00000001800209e0     LIBCMT:nlsdata.obj
 0002:000009e8       ??_C@_17GGIBDPIH@?$AAS?$AAa?$AAt?$AA?$AA@ 00000001800209e8     LIBCMT:nlsdata.obj
 0002:000009f0       ??_C@_1O@IHNHDHPB@?$AAS?$AAu?$AAn?$AAd?$AAa?$AAy?$AA?$AA@ 00000001800209f0     LIBCMT:nlsdata.obj
 0002:00000a00       ??_C@_1O@MMNBFLIA@?$AAM?$AAo?$AAn?$AAd?$AAa?$AAy?$AA?$AA@ 0000000180020a00     LIBCMT:nlsdata.obj
 0002:00000a10       ??_C@_1BA@ENFBFFEK@?$AAT?$AAu?$AAe?$AAs?$AAd?$AAa?$AAy?$AA?$AA@ 0000000180020a10     LIBCMT:nlsdata.obj
 0002:00000a20       ??_C@_1BE@EBOGMDOH@?$AAW?$AAe?$AAd?$AAn?$AAe?$AAs?$AAd?$AAa?$AAy?$AA?$AA@ 0000000180020a20     LIBCMT:nlsdata.obj
 0002:00000a38       ??_C@_1BC@HHMNLIHE@?$AAT?$AAh?$AAu?$AAr?$AAs?$AAd?$AAa?$AAy?$AA?$AA@ 0000000180020a38     LIBCMT:nlsdata.obj
 0002:00000a50       ??_C@_1O@PDICJHAG@?$AAF?$AAr?$AAi?$AAd?$AAa?$AAy?$AA?$AA@ 0000000180020a50     LIBCMT:nlsdata.obj
 0002:00000a60       ??_C@_1BC@ENMNNPAJ@?$AAS?$AAa?$AAt?$AAu?$AAr?$AAd?$AAa?$AAy?$AA?$AA@ 0000000180020a60     LIBCMT:nlsdata.obj
 0002:00000a78       ??_C@_17DKNBKCHM@?$AAJ?$AAa?$AAn?$AA?$AA@ 0000000180020a78     LIBCMT:nlsdata.obj
 0002:00000a80       ??_C@_17LMDJEKJN@?$AAF?$AAe?$AAb?$AA?$AA@ 0000000180020a80     LIBCMT:nlsdata.obj
 0002:00000a88       ??_C@_17CKNLEDEC@?$AAM?$AAa?$AAr?$AA?$AA@ 0000000180020a88     LIBCMT:nlsdata.obj
 0002:00000a90       ??_C@_17LFPOIHDD@?$AAA?$AAp?$AAr?$AA?$AA@ 0000000180020a90     LIBCMT:nlsdata.obj
 0002:00000a98       ??_C@_17PNNKMEED@?$AAM?$AAa?$AAy?$AA?$AA@ 0000000180020a98     LIBCMT:nlsdata.obj
 0002:00000aa0       ??_C@_17KCJGOCPB@?$AAJ?$AAu?$AAn?$AA?$AA@ 0000000180020aa0     LIBCMT:nlsdata.obj
 0002:00000aa8       ??_C@_17IJPCKHK@?$AAJ?$AAu?$AAl?$AA?$AA@ 0000000180020aa8     LIBCMT:nlsdata.obj
 0002:00000ab0       ??_C@_17ICPELBCN@?$AAA?$AAu?$AAg?$AA?$AA@ 0000000180020ab0     LIBCMT:nlsdata.obj
 0002:00000ab8       ??_C@_17HCHCOKMG@?$AAS?$AAe?$AAp?$AA?$AA@ 0000000180020ab8     LIBCMT:nlsdata.obj
 0002:00000ac0       ??_C@_17FNLKOI@?$AAO?$AAc?$AAt?$AA?$AA@ 0000000180020ac0     LIBCMT:nlsdata.obj
 0002:00000ac8       ??_C@_17BBDMLCIG@?$AAN?$AAo?$AAv?$AA?$AA@ 0000000180020ac8     LIBCMT:nlsdata.obj
 0002:00000ad0       ??_C@_17EGKACKIF@?$AAD?$AAe?$AAc?$AA?$AA@ 0000000180020ad0     LIBCMT:nlsdata.obj
 0002:00000ad8       ??_C@_1BA@EFMEIEBA@?$AAJ?$AAa?$AAn?$AAu?$AAa?$AAr?$AAy?$AA?$AA@ 0000000180020ad8     LIBCMT:nlsdata.obj
 0002:00000ae8       ??_C@_1BC@JGDDFFAM@?$AAF?$AAe?$AAb?$AAr?$AAu?$AAa?$AAr?$AAy?$AA?$AA@ 0000000180020ae8     LIBCMT:nlsdata.obj
 0002:00000b00       ??_C@_1M@IKEENEDF@?$AAM?$AAa?$AAr?$AAc?$AAh?$AA?$AA@ 0000000180020b00     LIBCMT:nlsdata.obj
 0002:00000b10       ??_C@_1M@GJNLMHFD@?$AAA?$AAp?$AAr?$AAi?$AAl?$AA?$AA@ 0000000180020b10     LIBCMT:nlsdata.obj
 0002:00000b20       ??_C@_19EPFLPGAP@?$AAJ?$AAu?$AAn?$AAe?$AA?$AA@ 0000000180020b20     LIBCMT:nlsdata.obj
 0002:00000b30       ??_C@_19BIFMLPCD@?$AAJ?$AAu?$AAl?$AAy?$AA?$AA@ 0000000180020b30     LIBCMT:nlsdata.obj
 0002:00000b40       ??_C@_1O@PAHLKOAC@?$AAA?$AAu?$AAg?$AAu?$AAs?$AAt?$AA?$AA@ 0000000180020b40     LIBCMT:nlsdata.obj
 0002:00000b50       ??_C@_1BE@DKAAMBJL@?$AAS?$AAe?$AAp?$AAt?$AAe?$AAm?$AAb?$AAe?$AAr?$AA?$AA@ 0000000180020b50     LIBCMT:nlsdata.obj
 0002:00000b68       ??_C@_1BA@EPANDLNG@?$AAO?$AAc?$AAt?$AAo?$AAb?$AAe?$AAr?$AA?$AA@ 0000000180020b68     LIBCMT:nlsdata.obj
 0002:00000b78       ??_C@_1BC@BGLIFPF@?$AAN?$AAo?$AAv?$AAe?$AAm?$AAb?$AAe?$AAr?$AA?$AA@ 0000000180020b78     LIBCMT:nlsdata.obj
 0002:00000b90       ??_C@_1BC@FEMKIFH@?$AAD?$AAe?$AAc?$AAe?$AAm?$AAb?$AAe?$AAr?$AA?$AA@ 0000000180020b90     LIBCMT:nlsdata.obj
 0002:00000ba4       ??_C@_15ODEHAHHF@?$AAA?$AAM?$AA?$AA@ 0000000180020ba4     LIBCMT:nlsdata.obj
 0002:00000bac       ??_C@_15CLMNNGEL@?$AAP?$AAM?$AA?$AA@ 0000000180020bac     LIBCMT:nlsdata.obj
 0002:00000bb8       ??_C@_1BC@IEBCMHCM@?$AAM?$AAM?$AA?1?$AAd?$AAd?$AA?1?$AAy?$AAy?$AA?$AA@ 0000000180020bb8     LIBCMT:nlsdata.obj
 0002:00000bd0       ??_C@_1CI@KNAKOEBC@?$AAd?$AAd?$AAd?$AAd?$AA?0?$AA?5?$AAM?$AAM?$AAM?$AAM?$AA?5?$AAd?$AAd?$AA?0?$AA?5?$AAy?$AAy?$AAy?$AAy?$AA?$AA@ 0000000180020bd0     LIBCMT:nlsdata.obj
 0002:00000bf8       ??_C@_1BC@GDGBMEMK@?$AAH?$AAH?$AA?3?$AAm?$AAm?$AA?3?$AAs?$AAs?$AA?$AA@ 0000000180020bf8     LIBCMT:nlsdata.obj
 0002:00000c10       ??_C@_1M@BMHNFIME@?$AAe?$AAn?$AA?9?$AAU?$AAS?$AA?$AA@ 0000000180020c10     LIBCMT:nlsdata.obj
 0002:00000ca0       ??_C@_08KNHFBNJ@FlsAlloc?$AA@ 0000000180020ca0     LIBCMT:winapisupp.obj
 0002:00000cb0       ??_C@_07PEJMOBNF@FlsFree?$AA@ 0000000180020cb0     LIBCMT:winapisupp.obj
 0002:00000cb8       ??_C@_0M@GDNOONDI@FlsGetValue?$AA@ 0000000180020cb8     LIBCMT:winapisupp.obj
 0002:00000cc8       ??_C@_0M@JCPCPOEF@FlsSetValue?$AA@ 0000000180020cc8     LIBCMT:winapisupp.obj
 0002:00000cd8       ??_C@_0BM@HCFOFFN@InitializeCriticalSectionEx?$AA@ 0000000180020cd8     LIBCMT:winapisupp.obj
 0002:00000cf8       ??_C@_0P@DLHPPCNH@CreateEventExW?$AA@ 0000000180020cf8     LIBCMT:winapisupp.obj
 0002:00000d08       ??_C@_0BD@KIEEOEEH@CreateSemaphoreExW?$AA@ 0000000180020d08     LIBCMT:winapisupp.obj
 0002:00000d20       ??_C@_0BI@BKLFFAPO@SetThreadStackGuarantee?$AA@ 0000000180020d20     LIBCMT:winapisupp.obj
 0002:00000d38       ??_C@_0BG@OGFAJCKC@CreateThreadpoolTimer?$AA@ 0000000180020d38     LIBCMT:winapisupp.obj
 0002:00000d50       ??_C@_0BD@LPLEMMDI@SetThreadpoolTimer?$AA@ 0000000180020d50     LIBCMT:winapisupp.obj
 0002:00000d68       ??_C@_0CA@FMNJENH@WaitForThreadpoolTimerCallbacks?$AA@ 0000000180020d68     LIBCMT:winapisupp.obj
 0002:00000d88       ??_C@_0BF@DCFCCNOC@CloseThreadpoolTimer?$AA@ 0000000180020d88     LIBCMT:winapisupp.obj
 0002:00000da0       ??_C@_0BF@FLABGKKM@CreateThreadpoolWait?$AA@ 0000000180020da0     LIBCMT:winapisupp.obj
 0002:00000db8       ??_C@_0BC@MGCOHNA@SetThreadpoolWait?$AA@ 0000000180020db8     LIBCMT:winapisupp.obj
 0002:00000dd0       ??_C@_0BE@OCIOMIMP@CloseThreadpoolWait?$AA@ 0000000180020dd0     LIBCMT:winapisupp.obj
 0002:00000de8       ??_C@_0BJ@LKGHFHBO@FlushProcessWriteBuffers?$AA@ 0000000180020de8     LIBCMT:winapisupp.obj
 0002:00000e08       ??_C@_0BP@KALKKPMO@FreeLibraryWhenCallbackReturns?$AA@ 0000000180020e08     LIBCMT:winapisupp.obj
 0002:00000e28       ??_C@_0BK@DFNBACLA@GetCurrentProcessorNumber?$AA@ 0000000180020e28     LIBCMT:winapisupp.obj
 0002:00000e48       ??_C@_0BP@KHGALBC@GetLogicalProcessorInformation?$AA@ 0000000180020e48     LIBCMT:winapisupp.obj
 0002:00000e68       ??_C@_0BE@FKKLLFLM@CreateSymbolicLinkW?$AA@ 0000000180020e68     LIBCMT:winapisupp.obj
 0002:00000e80       ??_C@_0BJ@OHNKDLIJ@SetDefaultDllDirectories?$AA@ 0000000180020e80     LIBCMT:winapisupp.obj
 0002:00000ea0       ??_C@_0BE@LJANKFHF@EnumSystemLocalesEx?$AA@ 0000000180020ea0     LIBCMT:winapisupp.obj
 0002:00000eb8       ??_C@_0BA@IHGNDAEB@CompareStringEx?$AA@ 0000000180020eb8     LIBCMT:winapisupp.obj
 0002:00000ec8       ??_C@_0BA@EPCJIIPD@GetDateFormatEx?$AA@ 0000000180020ec8     LIBCMT:winapisupp.obj
 0002:00000ed8       ??_C@_0BA@ONOKGCMP@GetLocaleInfoEx?$AA@ 0000000180020ed8     LIBCMT:winapisupp.obj
 0002:00000ee8       ??_C@_0BA@CIJJKCJJ@GetTimeFormatEx?$AA@ 0000000180020ee8     LIBCMT:winapisupp.obj
 0002:00000ef8       ??_C@_0BJ@PBCCBIPI@GetUserDefaultLocaleName?$AA@ 0000000180020ef8     LIBCMT:winapisupp.obj
 0002:00000f18       ??_C@_0BC@CELBKLLA@IsValidLocaleName?$AA@ 0000000180020f18     LIBCMT:winapisupp.obj
 0002:00000f30       ??_C@_0O@KKBNKAPF@LCMapStringEx?$AA@ 0000000180020f30     LIBCMT:winapisupp.obj
 0002:00000f40       ??_C@_0BE@JOGNEJCI@GetCurrentPackageId?$AA@ 0000000180020f40     LIBCMT:winapisupp.obj
 0002:00000f58       ??_C@_0P@CDHHOHKP@GetTickCount64?$AA@ 0000000180020f58     LIBCMT:winapisupp.obj
 0002:00000f68       ??_C@_0BO@KPCLFDJJ@GetFileInformationByHandleExW?$AA@ 0000000180020f68     LIBCMT:winapisupp.obj
 0002:00000f88       ??_C@_0BM@MHIDLABK@SetFileInformationByHandleW?$AA@ 0000000180020f88     LIBCMT:winapisupp.obj
 0002:00001120       ??_C@_1FK@PGACCAFB@?$AAR?$AA6?$AA0?$AA0?$AA2?$AA?$AN?$AA?6?$AA?9?$AA?5?$AAf?$AAl?$AAo?$AAa?$AAt?$AAi?$AAn?$AAg?$AA?5?$AAp?$AAo?$AAi?$AAn?$AAt?$AA?5?$AAs?$AAu?$AAp?$AAp?$AAo?$AAr?$AAt?$AA?5@ 0000000180021120     LIBCMT:crt0msg.obj
 0002:00001180       ??_C@_1FE@LLNEDJMD@?$AAR?$AA6?$AA0?$AA0?$AA8?$AA?$AN?$AA?6?$AA?9?$AA?5?$AAn?$AAo?$AAt?$AA?5?$AAe?$AAn?$AAo?$AAu?$AAg?$AAh?$AA?5?$AAs?$AAp?$AAa?$AAc?$AAe?$AA?5?$AAf?$AAo?$AAr?$AA?5?$AAa?$AAr@ 0000000180021180     LIBCMT:crt0msg.obj
 0002:000011e0       ??_C@_1FI@HONFMGBI@?$AAR?$AA6?$AA0?$AA0?$AA9?$AA?$AN?$AA?6?$AA?9?$AA?5?$AAn?$AAo?$AAt?$AA?5?$AAe?$AAn?$AAo?$AAu?$AAg?$AAh?$AA?5?$AAs?$AAp?$AAa?$AAc?$AAe?$AA?5?$AAf?$AAo?$AAr?$AA?5?$AAe?$AAn@ 00000001800211e0     LIBCMT:crt0msg.obj
 0002:00001240       ??_C@_1EG@BEHAGFJD@?$AAR?$AA6?$AA0?$AA1?$AA0?$AA?$AN?$AA?6?$AA?9?$AA?5?$AAa?$AAb?$AAo?$AAr?$AAt?$AA?$CI?$AA?$CJ?$AA?5?$AAh?$AAa?$AAs?$AA?5?$AAb?$AAe?$AAe?$AAn?$AA?5?$AAc?$AAa?$AAl?$AAl?$AAe?$AAd@ 0000000180021240     LIBCMT:crt0msg.obj
 0002:00001290       ??_C@_1FI@LOGNIKDM@?$AAR?$AA6?$AA0?$AA1?$AA6?$AA?$AN?$AA?6?$AA?9?$AA?5?$AAn?$AAo?$AAt?$AA?5?$AAe?$AAn?$AAo?$AAu?$AAg?$AAh?$AA?5?$AAs?$AAp?$AAa?$AAc?$AAe?$AA?5?$AAf?$AAo?$AAr?$AA?5?$AAt?$AAh@ 0000000180021290     LIBCMT:crt0msg.obj
 0002:000012f0       ??_C@_1FK@BEOGODMC@?$AAR?$AA6?$AA0?$AA1?$AA7?$AA?$AN?$AA?6?$AA?9?$AA?5?$AAu?$AAn?$AAe?$AAx?$AAp?$AAe?$AAc?$AAt?$AAe?$AAd?$AA?5?$AAm?$AAu?$AAl?$AAt?$AAi?$AAt?$AAh?$AAr?$AAe?$AAa?$AAd?$AA?5@ 00000001800212f0     LIBCMT:crt0msg.obj
 0002:00001350       ??_C@_1EC@JIBHAOPH@?$AAR?$AA6?$AA0?$AA1?$AA8?$AA?$AN?$AA?6?$AA?9?$AA?5?$AAu?$AAn?$AAe?$AAx?$AAp?$AAe?$AAc?$AAt?$AAe?$AAd?$AA?5?$AAh?$AAe?$AAa?$AAp?$AA?5?$AAe?$AAr?$AAr?$AAo?$AAr?$AA?$AN?$AA?6@ 0000000180021350     LIBCMT:crt0msg.obj
 0002:000013a0       ??_C@_1FC@ECHBIFBC@?$AAR?$AA6?$AA0?$AA1?$AA9?$AA?$AN?$AA?6?$AA?9?$AA?5?$AAu?$AAn?$AAa?$AAb?$AAl?$AAe?$AA?5?$AAt?$AAo?$AA?5?$AAo?$AAp?$AAe?$AAn?$AA?5?$AAc?$AAo?$AAn?$AAs?$AAo?$AAl?$AAe?$AA?5@ 00000001800213a0     LIBCMT:crt0msg.obj
 0002:00001400       ??_C@_1GK@FHCKBEFA@?$AAR?$AA6?$AA0?$AA2?$AA4?$AA?$AN?$AA?6?$AA?9?$AA?5?$AAn?$AAo?$AAt?$AA?5?$AAe?$AAn?$AAo?$AAu?$AAg?$AAh?$AA?5?$AAs?$AAp?$AAa?$AAc?$AAe?$AA?5?$AAf?$AAo?$AAr?$AA?5?$AA_?$AAo@ 0000000180021400     LIBCMT:crt0msg.obj
 0002:00001470       ??_C@_1EM@MAADIHMB@?$AAR?$AA6?$AA0?$AA2?$AA5?$AA?$AN?$AA?6?$AA?9?$AA?5?$AAp?$AAu?$AAr?$AAe?$AA?5?$AAv?$AAi?$AAr?$AAt?$AAu?$AAa?$AAl?$AA?5?$AAf?$AAu?$AAn?$AAc?$AAt?$AAi?$AAo?$AAn?$AA?5?$AAc@ 0000000180021470     LIBCMT:crt0msg.obj
 0002:000014c0       ??_C@_1GK@MCAAGJMO@?$AAR?$AA6?$AA0?$AA2?$AA6?$AA?$AN?$AA?6?$AA?9?$AA?5?$AAn?$AAo?$AAt?$AA?5?$AAe?$AAn?$AAo?$AAu?$AAg?$AAh?$AA?5?$AAs?$AAp?$AAa?$AAc?$AAe?$AA?5?$AAf?$AAo?$AAr?$AA?5?$AAs?$AAt@ 00000001800214c0     LIBCMT:crt0msg.obj
 0002:00001530       ??_C@_1GK@MFGOKLAG@?$AAR?$AA6?$AA0?$AA2?$AA7?$AA?$AN?$AA?6?$AA?9?$AA?5?$AAn?$AAo?$AAt?$AA?5?$AAe?$AAn?$AAo?$AAu?$AAg?$AAh?$AA?5?$AAs?$AAp?$AAa?$AAc?$AAe?$AA?5?$AAf?$AAo?$AAr?$AA?5?$AAl?$AAo@ 0000000180021530     LIBCMT:crt0msg.obj
 0002:000015a0       ??_C@_1EK@HHFLMAOL@?$AAR?$AA6?$AA0?$AA2?$AA8?$AA?$AN?$AA?6?$AA?9?$AA?5?$AAu?$AAn?$AAa?$AAb?$AAl?$AAe?$AA?5?$AAt?$AAo?$AA?5?$AAi?$AAn?$AAi?$AAt?$AAi?$AAa?$AAl?$AAi?$AAz?$AAe?$AA?5?$AAh?$AAe@ 00000001800215a0     LIBCMT:crt0msg.obj
 0002:000015f0       ??_C@_1DO@BMFCDCD@?$AAR?$AA6?$AA0?$AA3?$AA0?$AA?$AN?$AA?6?$AA?9?$AA?5?$AAC?$AAR?$AAT?$AA?5?$AAn?$AAo?$AAt?$AA?5?$AAi?$AAn?$AAi?$AAt?$AAi?$AAa?$AAl?$AAi?$AAz?$AAe?$AAd?$AA?$AN?$AA?6?$AA?$AA@ 00000001800215f0     LIBCMT:crt0msg.obj
 0002:00001630       ??_C@_1MG@ENCOOIDF@?$AAR?$AA6?$AA0?$AA3?$AA1?$AA?$AN?$AA?6?$AA?9?$AA?5?$AAA?$AAt?$AAt?$AAe?$AAm?$AAp?$AAt?$AA?5?$AAt?$AAo?$AA?5?$AAi?$AAn?$AAi?$AAt?$AAi?$AAa?$AAl?$AAi?$AAz?$AAe?$AA?5?$AAt@ 0000000180021630     LIBCMT:crt0msg.obj
 0002:00001700       ??_C@_1GG@GOPILAJP@?$AAR?$AA6?$AA0?$AA3?$AA2?$AA?$AN?$AA?6?$AA?9?$AA?5?$AAn?$AAo?$AAt?$AA?5?$AAe?$AAn?$AAo?$AAu?$AAg?$AAh?$AA?5?$AAs?$AAp?$AAa?$AAc?$AAe?$AA?5?$AAf?$AAo?$AAr?$AA?5?$AAl?$AAo@ 0000000180021700     LIBCMT:crt0msg.obj
 0002:00001770       ??_C@_1BOO@KGEDBGAJ@?$AAR?$AA6?$AA0?$AA3?$AA3?$AA?$AN?$AA?6?$AA?9?$AA?5?$AAA?$AAt?$AAt?$AAe?$AAm?$AAp?$AAt?$AA?5?$AAt?$AAo?$AA?5?$AAu?$AAs?$AAe?$AA?5?$AAM?$AAS?$AAI?$AAL?$AA?5?$AAc?$AAo?$AAd@ 0000000180021770     LIBCMT:crt0msg.obj
 0002:00001960       ??_C@_1GG@MKFPEKFO@?$AAR?$AA6?$AA0?$AA3?$AA4?$AA?$AN?$AA?6?$AA?9?$AA?5?$AAi?$AAn?$AAc?$AAo?$AAn?$AAs?$AAi?$AAs?$AAt?$AAe?$AAn?$AAt?$AA?5?$AAo?$AAn?$AAe?$AAx?$AAi?$AAt?$AA?5?$AAb?$AAe?$AAg@ 0000000180021960     LIBCMT:crt0msg.obj
 0002:000019c8       ??_C@_1BO@BFCDCGC@?$AAD?$AAO?$AAM?$AAA?$AAI?$AAN?$AA?5?$AAe?$AAr?$AAr?$AAo?$AAr?$AA?$AN?$AA?6?$AA?$AA@ 00000001800219c8     LIBCMT:crt0msg.obj
 0002:000019e8       ??_C@_1BK@KMOMNAAI@?$AAS?$AAI?$AAN?$AAG?$AA?5?$AAe?$AAr?$AAr?$AAo?$AAr?$AA?$AN?$AA?6?$AA?$AA@ 00000001800219e8     LIBCMT:crt0msg.obj
 0002:00001a08       ??_C@_1BM@JBBEPPHI@?$AAT?$AAL?$AAO?$AAS?$AAS?$AA?5?$AAe?$AAr?$AAr?$AAo?$AAr?$AA?$AN?$AA?6?$AA?$AA@ 0000000180021a08     LIBCMT:crt0msg.obj
 0002:00001a24       ??_C@_15JNBOKNOG@?$AA?$AN?$AA?6?$AA?$AA@ 0000000180021a24     LIBCMT:crt0msg.obj
 0002:00001a30       ??_C@_1BO@BKOMIGKJ@?$AAr?$AAu?$AAn?$AAt?$AAi?$AAm?$AAe?$AA?5?$AAe?$AAr?$AAr?$AAo?$AAr?$AA?5?$AA?$AA@ 0000000180021a30     LIBCMT:crt0msg.obj
 0002:00001a50       ??_C@_1DE@JNGNBFGO@?$AAR?$AAu?$AAn?$AAt?$AAi?$AAm?$AAe?$AA?5?$AAE?$AAr?$AAr?$AAo?$AAr?$AA?$CB?$AA?6?$AA?6?$AAP?$AAr?$AAo?$AAg?$AAr?$AAa?$AAm?$AA?3?$AA?5?$AA?$AA@ 0000000180021a50     LIBCMT:crt0msg.obj
 0002:00001a88       ??_C@_1CO@EAEJAADC@?$AA?$DM?$AAp?$AAr?$AAo?$AAg?$AAr?$AAa?$AAm?$AA?5?$AAn?$AAa?$AAm?$AAe?$AA?5?$AAu?$AAn?$AAk?$AAn?$AAo?$AAw?$AAn?$AA?$DO?$AA?$AA@ 0000000180021a88     LIBCMT:crt0msg.obj
 0002:00001ab8       ??_C@_15IABLJNFO@?$AA?6?$AA?6?$AA?$AA@ 0000000180021ab8     LIBCMT:crt0msg.obj
 0002:00001ac0       ??_C@_1EK@MBDPDCGA@?$AAM?$AAi?$AAc?$AAr?$AAo?$AAs?$AAo?$AAf?$AAt?$AA?5?$AAV?$AAi?$AAs?$AAu?$AAa?$AAl?$AA?5?$AAC?$AA?$CL?$AA?$CL?$AA?5?$AAR?$AAu?$AAn?$AAt?$AAi?$AAm?$AAe?$AA?5?$AAL?$AAi?$AAb@ 0000000180021ac0     LIBCMT:crt0msg.obj
 0002:00001b10       _XcptActTab                0000000180021b10     LIBCMT:winxfltr.obj
 0002:00001bd0       _XcptActTabCount           0000000180021bd0     LIBCMT:winxfltr.obj
 0002:00001bd4       _XcptActTabSize            0000000180021bd4     LIBCMT:winxfltr.obj
 0002:00001bd8       _First_FPE_Indx            0000000180021bd8     LIBCMT:winxfltr.obj
 0002:00001bdc       _Num_FPE                   0000000180021bdc     LIBCMT:winxfltr.obj
 0002:00001be0       ??_C@_05KLBDPFGC@e?$CL000?$AA@ 0000000180021be0     LIBCMT:cvt.obj
 0002:00001be8       __real@0000000000000000    0000000180021be8     LIBCMT:cvt.obj
 0002:00001f08       ??_C@_08EHJDFFNH@__based?$CI?$AA@ 0000000180021f08     LIBCMT:undname.obj
 0002:00001f18       ??_C@_07KOLFKCDI@__cdecl?$AA@ 0000000180021f18     LIBCMT:undname.obj
 0002:00001f20       ??_C@_08GHMPAG@__pascal?$AA@ 0000000180021f20     LIBCMT:undname.obj
 0002:00001f30       ??_C@_09IFJBGAPI@__stdcall?$AA@ 0000000180021f30     LIBCMT:undname.obj
 0002:00001f40       ??_C@_0L@NPHFGOKO@__thiscall?$AA@ 0000000180021f40     LIBCMT:undname.obj
 0002:00001f50       ??_C@_0L@JMKHOMEK@__fastcall?$AA@ 0000000180021f50     LIBCMT:undname.obj
 0002:00001f60       ??_C@_0N@BCKKPABJ@__vectorcall?$AA@ 0000000180021f60     LIBCMT:undname.obj
 0002:00001f70       ??_C@_09HIJEGCPM@__clrcall?$AA@ 0000000180021f70     LIBCMT:undname.obj
 0002:00001f7c       ??_C@_06GHPCKEAG@__eabi?$AA@ 0000000180021f7c     LIBCMT:undname.obj
 0002:00001f88       ??_C@_07JOMMBBKO@__ptr64?$AA@ 0000000180021f88     LIBCMT:undname.obj
 0002:00001f90       ??_C@_0L@PILCLIHE@__restrict?$AA@ 0000000180021f90     LIBCMT:undname.obj
 0002:00001fa0       ??_C@_0M@GFIIJFMG@__unaligned?$AA@ 0000000180021fa0     LIBCMT:undname.obj
 0002:00001fb0       ??_C@_09DHDLOLLB@restrict?$CI?$AA@ 0000000180021fb0     LIBCMT:undname.obj
 0002:00001fba       ??_C@_00CNPNBAHC@?$AA@     0000000180021fba     LIBCMT:undname.obj
 0002:00001fbc       ??_C@_04NIHEBCM@?5new?$AA@ 0000000180021fbc     LIBCMT:undname.obj
 0002:00001fc8       ??_C@_07FPCDHGMM@?5delete?$AA@ 0000000180021fc8     LIBCMT:undname.obj
 0002:00001fd0       ??_C@_01NEMOKFLO@?$DN?$AA@ 0000000180021fd0     LIBCMT:undname.obj
 0002:00001fd4       ??_C@_02GPIOPFAK@?$DO?$DO?$AA@ 0000000180021fd4     LIBCMT:undname.obj
 0002:00001fd8       ??_C@_02FODMEDOG@?$DM?$DM?$AA@ 0000000180021fd8     LIBCMT:undname.obj
 0002:00001fdc       ??_C@_01DCLJPIOD@?$CB?$AA@ 0000000180021fdc     LIBCMT:undname.obj
 0002:00001fe0       ??_C@_02EGOFBIJA@?$DN?$DN?$AA@ 0000000180021fe0     LIBCMT:undname.obj
 0002:00001fe4       ??_C@_02FDNJECIE@?$CB?$DN?$AA@ 0000000180021fe4     LIBCMT:undname.obj
 0002:00001fe8       ??_C@_02GPECMEKF@?$FL?$FN?$AA@ 0000000180021fe8     LIBCMT:undname.obj
 0002:00001ff0       ??_C@_08LHJFAFGD@operator?$AA@ 0000000180021ff0     LIBCMT:undname.obj
 0002:00001ffc       ??_C@_02HBOOOICD@?9?$DO?$AA@ 0000000180021ffc     LIBCMT:undname.obj
 0002:00002000       ??_C@_01NBENCBCI@?$CK?$AA@ 0000000180022000     LIBCMT:undname.obj
 0002:00002004       ??_C@_02ECNGHCIF@?$CL?$CL?$AA@ 0000000180022004     LIBCMT:undname.obj
 0002:00002008       ??_C@_02BAABKJLB@?9?9?$AA@ 0000000180022008     LIBCMT:undname.obj
 0002:0000200c       ??_C@_01JOAMLHOP@?9?$AA@   000000018002200c     LIBCMT:undname.obj
 0002:00002010       ??_C@_01MIFGBAGJ@?$CL?$AA@ 0000000180022010     LIBCMT:undname.obj
 0002:00002014       ??_C@_01HNPIGOCE@?$CG?$AA@ 0000000180022014     LIBCMT:undname.obj
 0002:00002018       ??_C@_03MNHNFDLC@?9?$DO?$CK?$AA@ 0000000180022018     LIBCMT:undname.obj
 0002:0000201c       ??_C@_01KMDKNFGN@?1?$AA@   000000018002201c     LIBCMT:undname.obj
 0002:00002020       ??_C@_01FGNFDNOH@?$CF?$AA@ 0000000180022020     LIBCMT:undname.obj
 0002:00002024       ??_C@_01MNNFJEPP@?$DM?$AA@ 0000000180022024     LIBCMT:undname.obj
 0002:00002028       ??_C@_02EHCHHCKH@?$DM?$DN?$AA@ 0000000180022028     LIBCMT:undname.obj
 0002:0000202c       ??_C@_01PPODPGHN@?$DO?$AA@ 000000018002202c     LIBCMT:undname.obj
 0002:00002030       ??_C@_02EEKDKGMJ@?$DO?$DN?$AA@ 0000000180022030     LIBCMT:undname.obj
 0002:00002034       ??_C@_01IHBHIGKO@?0?$AA@   0000000180022034     LIBCMT:undname.obj
 0002:00002038       ??_C@_02HCKGKOFO@?$CI?$CJ?$AA@ 0000000180022038     LIBCMT:undname.obj
 0002:0000203c       ??_C@_01PJKLJHI@?$HO?$AA@  000000018002203c     LIBCMT:undname.obj
 0002:00002040       ??_C@_01JKBOJNNK@?$FO?$AA@ 0000000180022040     LIBCMT:undname.obj
 0002:00002044       ??_C@_01DNKMNLPK@?$HM?$AA@ 0000000180022044     LIBCMT:undname.obj
 0002:00002048       ??_C@_02PPKAJPJL@?$CG?$CG?$AA@ 0000000180022048     LIBCMT:undname.obj
 0002:0000204c       ??_C@_02NONPIBCD@?$HM?$HM?$AA@ 000000018002204c     LIBCMT:undname.obj
 0002:00002050       ??_C@_02FPIMKNGF@?$CK?$DN?$AA@ 0000000180022050     LIBCMT:undname.obj
 0002:00002054       ??_C@_02FOEOMHFC@?$CL?$DN?$AA@ 0000000180022054     LIBCMT:undname.obj
 0002:00002058       ??_C@_02FKMDLLOA@?9?$DN?$AA@ 0000000180022058     LIBCMT:undname.obj
 0002:0000205c       ??_C@_02FJEHGPIO@?1?$DN?$AA@ 000000018002205c     LIBCMT:undname.obj
 0002:00002060       ??_C@_02FENAOKFI@?$CF?$DN?$AA@ 0000000180022060     LIBCMT:undname.obj
 0002:00002064       ??_C@_03IKFCCPFF@?$DO?$DO?$DN?$AA@ 0000000180022064     LIBCMT:undname.obj
 0002:00002068       ??_C@_03CDNPDDLA@?$DM?$DM?$DN?$AA@ 0000000180022068     LIBCMT:undname.obj
 0002:0000206c       ??_C@_02FGJGFEAB@?$CG?$DN?$AA@ 000000018002206c     LIBCMT:undname.obj
 0002:00002070       ??_C@_02DHLNPPGH@?$HM?$DN?$AA@ 0000000180022070     LIBCMT:undname.obj
 0002:00002074       ??_C@_02MHEGNOJ@?$FO?$DN?$AA@ 0000000180022074     LIBCMT:undname.obj
 0002:00002078       ??_C@_09IFPLHPGF@?$GAvftable?8?$AA@ 0000000180022078     LIBCMT:undname.obj
 0002:00002088       ??_C@_09BLBHBJP@?$GAvbtable?8?$AA@ 0000000180022088     LIBCMT:undname.obj
 0002:00002098       ??_C@_07FEEIOKP@?$GAvcall?8?$AA@ 0000000180022098     LIBCMT:undname.obj
 0002:000020a0       ??_C@_08LLFFHHDJ@?$GAtypeof?8?$AA@ 00000001800220a0     LIBCMT:undname.obj
 0002:000020b0       ??_C@_0BF@KDPPACIK@?$GAlocal?5static?5guard?8?$AA@ 00000001800220b0     LIBCMT:undname.obj
 0002:000020c8       ??_C@_08OBABFOLI@?$GAstring?8?$AA@ 00000001800220c8     LIBCMT:undname.obj
 0002:000020d8       ??_C@_0BD@JDLKDPAB@?$GAvbase?5destructor?8?$AA@ 00000001800220d8     LIBCMT:undname.obj
 0002:000020f0       ??_C@_0BN@DEGPLNFK@?$GAvector?5deleting?5destructor?8?$AA@ 00000001800220f0     LIBCMT:undname.obj
 0002:00002110       ??_C@_0BO@OBMKPJIG@?$GAdefault?5constructor?5closure?8?$AA@ 0000000180022110     LIBCMT:undname.obj
 0002:00002130       ??_C@_0BN@IMDCHIKM@?$GAscalar?5deleting?5destructor?8?$AA@ 0000000180022130     LIBCMT:undname.obj
 0002:00002150       ??_C@_0BO@PFGOCPJJ@?$GAvector?5constructor?5iterator?8?$AA@ 0000000180022150     LIBCMT:undname.obj
 0002:00002170       ??_C@_0BN@LFPFMEDL@?$GAvector?5destructor?5iterator?8?$AA@ 0000000180022170     LIBCMT:undname.obj
 0002:00002190       ??_C@_0CE@IKBNEHA@?$GAvector?5vbase?5constructor?5iterat@ 0000000180022190     LIBCMT:undname.obj
 0002:000021b8       ??_C@_0BL@NILFHHPC@?$GAvirtual?5displacement?5map?8?$AA@ 00000001800221b8     LIBCMT:undname.obj
 0002:000021d8       ??_C@_0CB@JONCMFFK@?$GAeh?5vector?5constructor?5iterator?8@ 00000001800221d8     LIBCMT:undname.obj
 0002:00002200       ??_C@_0CA@GCEOPDGL@?$GAeh?5vector?5destructor?5iterator?8?$AA@ 0000000180022200     LIBCMT:undname.obj
 0002:00002220       ??_C@_0CH@OOJPLCPH@?$GAeh?5vector?5vbase?5constructor?5ite@ 0000000180022220     LIBCMT:undname.obj
 0002:00002248       ??_C@_0BL@LLKPOHJI@?$GAcopy?5constructor?5closure?8?$AA@ 0000000180022248     LIBCMT:undname.obj
 0002:00002268       ??_C@_0BA@KBCDOMBN@?$GAudt?5returning?8?$AA@ 0000000180022268     LIBCMT:undname.obj
 0002:00002278       ??_C@_03KLGMFNMG@?$GAEH?$AA@ 0000000180022278     LIBCMT:undname.obj
 0002:0000227c       ??_C@_05KHLCHHI@?$GARTTI?$AA@ 000000018002227c     LIBCMT:undname.obj
 0002:00002288       ??_C@_0BA@KKLDJDLB@?$GAlocal?5vftable?8?$AA@ 0000000180022288     LIBCMT:undname.obj
 0002:00002298       ??_C@_0CE@IIHCMGGL@?$GAlocal?5vftable?5constructor?5closu@ 0000000180022298     LIBCMT:undname.obj
 0002:000022bc       ??_C@_06FHBGPFGH@?5new?$FL?$FN?$AA@ 00000001800222bc     LIBCMT:undname.obj
 0002:000022c8       ??_C@_09LBNFPBCA@?5delete?$FL?$FN?$AA@ 00000001800222c8     LIBCMT:undname.obj
 0002:000022d8       ??_C@_0P@HJKNJFNN@?$GAomni?5callsig?8?$AA@ 00000001800222d8     LIBCMT:undname.obj
 0002:000022e8       ??_C@_0BL@CNOONJFP@?$GAplacement?5delete?5closure?8?$AA@ 00000001800222e8     LIBCMT:undname.obj
 0002:00002308       ??_C@_0BN@CKNJLHMB@?$GAplacement?5delete?$FL?$FN?5closure?8?$AA@ 0000000180022308     LIBCMT:undname.obj
 0002:00002328       ??_C@_0CG@CFDHKGGD@?$GAmanaged?5vector?5constructor?5iter@ 0000000180022328     LIBCMT:undname.obj
 0002:00002350       ??_C@_0CF@IMGKMJNO@?$GAmanaged?5vector?5destructor?5itera@ 0000000180022350     LIBCMT:undname.obj
 0002:00002378       ??_C@_0CG@HLDDJMAG@?$GAeh?5vector?5copy?5constructor?5iter@ 0000000180022378     LIBCMT:undname.obj
 0002:000023a0       ??_C@_0CM@FCBBDIGB@?$GAeh?5vector?5vbase?5copy?5constructo@ 00000001800223a0     LIBCMT:undname.obj
 0002:000023d0       ??_C@_0BL@CLIPGLGB@?$GAdynamic?5initializer?5for?5?8?$AA@ 00000001800223d0     LIBCMT:undname.obj
 0002:000023f0       ??_C@_0CB@PDBIFEP@?$GAdynamic?5atexit?5destructor?5for?5?8@ 00000001800223f0     LIBCMT:undname.obj
 0002:00002418       ??_C@_0CD@CGAJBKEJ@?$GAvector?5copy?5constructor?5iterato@ 0000000180022418     LIBCMT:undname.obj
 0002:00002440       ??_C@_0CJ@GJELGAMM@?$GAvector?5vbase?5copy?5constructor?5i@ 0000000180022440     LIBCMT:undname.obj
 0002:00002470       ??_C@_0CL@FGIJHLCE@?$GAmanaged?5vector?5copy?5constructor@ 0000000180022470     LIBCMT:undname.obj
 0002:000024a0       ??_C@_0BM@PMGGMLDN@?$GAlocal?5static?5thread?5guard?8?$AA@ 00000001800224a0     LIBCMT:undname.obj
 0002:000024c0       ??_C@_0BC@DAFEJGAK@?5Type?5Descriptor?8?$AA@ 00000001800224c0     LIBCMT:undname.obj
 0002:000024d8       ??_C@_0BM@LDKODKLH@?5Base?5Class?5Descriptor?5at?5?$CI?$AA@ 00000001800224d8     LIBCMT:undname.obj
 0002:000024f8       ??_C@_0BD@LGICGFMM@?5Base?5Class?5Array?8?$AA@ 00000001800224f8     LIBCMT:undname.obj
 0002:00002510       ??_C@_0BN@MECKDCOJ@?5Class?5Hierarchy?5Descriptor?8?$AA@ 0000000180022510     LIBCMT:undname.obj
 0002:00002530       ??_C@_0BK@CFCOFLF@?5Complete?5Object?5Locator?8?$AA@ 0000000180022530     LIBCMT:undname.obj
 0002:0000254c       ??_C@_06OJHGLDPL@?$CInull?$CJ?$AA@ 000000018002254c     LIBCMT:output.obj
 0002:00002558       ??_C@_1O@CEDCILHN@?$AA?$CI?$AAn?$AAu?$AAl?$AAl?$AA?$CJ?$AA?$AA@ 0000000180022558     LIBCMT:output.obj
 0002:00002570       __lookuptable              0000000180022570     LIBCMT:output.obj
 0002:000025d0       LcidToLocaleNameTable      00000001800225d0     LIBCMT:winapinls.obj
 0002:00003410       LocaleNameToIndexTable     0000000180023410     LIBCMT:winapinls.obj
 0002:00004250       ??_C@_15EMKDOKLE@?$AAa?$AAr?$AA?$AA@ 0000000180024250     LIBCMT:winapinls.obj
 0002:00004258       ??_C@_15KNPADPLH@?$AAb?$AAg?$AA?$AA@ 0000000180024258     LIBCMT:winapinls.obj
 0002:00004260       ??_C@_15EDMHLDMO@?$AAc?$AAa?$AA?$AA@ 0000000180024260     LIBCMT:winapinls.obj
 0002:00004268       ??_C@_1O@BPEAJADD@?$AAz?$AAh?$AA?9?$AAC?$AAH?$AAS?$AA?$AA@ 0000000180024268     LIBCMT:winapinls.obj
 0002:00004278       ??_C@_15LJNHCMNK@?$AAc?$AAs?$AA?$AA@ 0000000180024278     LIBCMT:winapinls.obj
 0002:00004280       ??_C@_15FOMCIDHG@?$AAd?$AAa?$AA?$AA@ 0000000180024280     LIBCMT:winapinls.obj
 0002:00004288       ??_C@_15NBKABECB@?$AAd?$AAe?$AA?$AA@ 0000000180024288     LIBCMT:winapinls.obj
 0002:00004290       ??_C@_15GHPEIIAO@?$AAe?$AAl?$AA?$AA@ 0000000180024290     LIBCMT:winapinls.obj
 0002:00004298       ??_C@_15MNPNEAIF@?$AAe?$AAn?$AA?$AA@ 0000000180024298     LIBCMT:winapinls.obj
 0002:000042a0       ??_C@_15GPIOMPMH@?$AAe?$AAs?$AA?$AA@ 00000001800242a0     LIBCMT:winapinls.obj
 0002:000042a8       ??_C@_15NGLOAKJC@?$AAf?$AAi?$AA?$AA@ 00000001800242a8     LIBCMT:winapinls.obj
 0002:000042b0       ??_C@_15FBKGNKAM@?$AAf?$AAr?$AA?$AA@ 00000001800242b0     LIBCMT:winapinls.obj
 0002:000042b8       ??_C@_15KGGCNEFK@?$AAh?$AAe?$AA?$AA@ 00000001800242b8     LIBCMT:winapinls.obj
 0002:000042c0       ??_C@_15PGHLIDMF@?$AAh?$AAu?$AA?$AA@ 00000001800242c0     LIBCMT:winapinls.obj
 0002:000042c8       ??_C@_15BIEMAPLM@?$AAi?$AAs?$AA?$AA@ 00000001800242c8     LIBCMT:winapinls.obj
 0002:000042d0       ??_C@_15IFJLDHAF@?$AAi?$AAt?$AA?$AA@ 00000001800242d0     LIBCMT:winapinls.obj
 0002:000042d8       ??_C@_15GEMIOCAG@?$AAj?$AAa?$AA?$AA@ 00000001800242d8     LIBCMT:winapinls.obj
 0002:000042e0       ??_C@_15EPELEGJA@?$AAk?$AAo?$AA?$AA@ 00000001800242e0     LIBCMT:winapinls.obj
 0002:000042e8       ??_C@_15NDDHIMN@?$AAn?$AAl?$AA?$AA@ 00000001800242e8     LIBCMT:winapinls.obj
 0002:000042f0       ??_C@_15BPIGNHCD@?$AAn?$AAo?$AA?$AA@ 00000001800242f0     LIBCMT:winapinls.obj
 0002:000042f8       ??_C@_15DEOPBLCG@?$AAp?$AAl?$AA?$AA@ 00000001800242f8     LIBCMT:winapinls.obj
 0002:00004300       ??_C@_15KBECGEFG@?$AAp?$AAt?$AA?$AA@ 0000000180024300     LIBCMT:winapinls.obj
 0002:00004308       ??_C@_15GLJCBFMD@?$AAr?$AAo?$AA?$AA@ 0000000180024308     LIBCMT:winapinls.obj
 0002:00004310       ??_C@_15FEDGKCDI@?$AAr?$AAu?$AA?$AA@ 0000000180024310     LIBCMT:winapinls.obj
 0002:00004318       ??_C@_15GLKMLLHM@?$AAh?$AAr?$AA?$AA@ 0000000180024318     LIBCMT:winapinls.obj
 0002:00004320       ??_C@_15CPKMFBDB@?$AAs?$AAk?$AA?$AA@ 0000000180024320     LIBCMT:winapinls.obj
 0002:00004328       ??_C@_15BAAIOGMK@?$AAs?$AAq?$AA?$AA@ 0000000180024328     LIBCMT:winapinls.obj
 0002:00004330       ??_C@_15INNPNOHD@?$AAs?$AAv?$AA?$AA@ 0000000180024330     LIBCMT:winapinls.obj
 0002:00004338       ??_C@_15CABMMOGH@?$AAt?$AAh?$AA?$AA@ 0000000180024338     LIBCMT:winapinls.obj
 0002:00004340       ??_C@_15BPLIHJJM@?$AAt?$AAr?$AA?$AA@ 0000000180024340     LIBCMT:winapinls.obj
 0002:00004348       ??_C@_15NEOEKKDJ@?$AAu?$AAr?$AA?$AA@ 0000000180024348     LIBCMT:winapinls.obj
 0002:00004350       ??_C@_15NFICGAJK@?$AAi?$AAd?$AA?$AA@ 0000000180024350     LIBCMT:winapinls.obj
 0002:00004358       ??_C@_15PJPFLCCM@?$AAu?$AAk?$AA?$AA@ 0000000180024358     LIBCMT:winapinls.obj
 0002:00004360       ??_C@_15HPJPHDM@?$AAb?$AAe?$AA?$AA@ 0000000180024360     LIBCMT:winapinls.obj
 0002:00004368       ??_C@_15LCHLGJII@?$AAs?$AAl?$AA?$AA@ 0000000180024368     LIBCMT:winapinls.obj
 0002:00004370       ??_C@_15PCFJPHHO@?$AAe?$AAt?$AA?$AA@ 0000000180024370     LIBCMT:winapinls.obj
 0002:00004378       ??_C@_15HPFPGODN@?$AAl?$AAv?$AA?$AA@ 0000000180024378     LIBCMT:winapinls.obj
 0002:00004380       ??_C@_15NFFGKGLG@?$AAl?$AAt?$AA?$AA@ 0000000180024380     LIBCMT:winapinls.obj
 0002:00004388       ??_C@_15BDAKCCHN@?$AAf?$AAa?$AA?$AA@ 0000000180024388     LIBCMT:winapinls.obj
 0002:00004390       ??_C@_15NFGIAIAJ@?$AAv?$AAi?$AA?$AA@ 0000000180024390     LIBCMT:winapinls.obj
 0002:00004398       ??_C@_15LMKNDMHN@?$AAh?$AAy?$AA?$AA@ 0000000180024398     LIBCMT:winapinls.obj
 0002:000043a0       ??_C@_15IJBHMCFL@?$AAa?$AAz?$AA?$AA@ 00000001800243a0     LIBCMT:winapinls.obj
 0002:000043a8       ??_C@_15EKOFJABL@?$AAe?$AAu?$AA?$AA@ 00000001800243a8     LIBCMT:winapinls.obj
 0002:000043b0       ??_C@_15BGHADCNK@?$AAm?$AAk?$AA?$AA@ 00000001800243b0     LIBCMT:winapinls.obj
 0002:000043b8       ??_C@_15JDNICKHM@?$AAa?$AAf?$AA?$AA@ 00000001800243b8     LIBCMT:winapinls.obj
 0002:000043c0       ??_C@_15KPJEDBKD@?$AAk?$AAa?$AA?$AA@ 00000001800243c0     LIBCMT:winapinls.obj
 0002:000043c8       ??_C@_15PDNFFFEO@?$AAf?$AAo?$AA?$AA@ 00000001800243c8     LIBCMT:winapinls.obj
 0002:000043d0       ??_C@_15OMLEGLOC@?$AAh?$AAi?$AA?$AA@ 00000001800243d0     LIBCMT:winapinls.obj
 0002:000043d8       ??_C@_15IDNNENKK@?$AAm?$AAs?$AA?$AA@ 00000001800243d8     LIBCMT:winapinls.obj
 0002:000043e0       ??_C@_15MACJNBMH@?$AAk?$AAk?$AA?$AA@ 00000001800243e0     LIBCMT:winapinls.obj
 0002:000043e8       ??_C@_15DKDJEOND@?$AAk?$AAy?$AA?$AA@ 00000001800243e8     LIBCMT:winapinls.obj
 0002:000043f0       ??_C@_15DFGDLJBG@?$AAs?$AAw?$AA?$AA@ 00000001800243f0     LIBCMT:winapinls.obj
 0002:000043f8       ??_C@_15BBFAICNG@?$AAu?$AAz?$AA?$AA@ 00000001800243f8     LIBCMT:winapinls.obj
 0002:00004400       ??_C@_15DKNDCGEA@?$AAt?$AAt?$AA?$AA@ 0000000180024400     LIBCMT:winapinls.obj
 0002:00004408       ??_C@_15MGIFMDPL@?$AAp?$AAa?$AA?$AA@ 0000000180024408     LIBCMT:winapinls.obj
 0002:00004410       ??_C@_15HCNDBBA@?$AAg?$AAu?$AA?$AA@ 0000000180024410     LIBCMT:winapinls.obj
 0002:00004418       ??_C@_15FNBEIBON@?$AAt?$AAa?$AA?$AA@ 0000000180024418     LIBCMT:winapinls.obj
 0002:00004420       ??_C@_15NCHGBGLK@?$AAt?$AAe?$AA?$AA@ 0000000180024420     LIBCMT:winapinls.obj
 0002:00004428       ??_C@_15PHPHCBPF@?$AAk?$AAn?$AA?$AA@ 0000000180024428     LIBCMT:winapinls.obj
 0002:00004430       ??_C@_15DLGBCKMP@?$AAm?$AAr?$AA?$AA@ 0000000180024430     LIBCMT:winapinls.obj
 0002:00004438       ??_C@_15EABBLBFF@?$AAs?$AAa?$AA?$AA@ 0000000180024438     LIBCMT:winapinls.obj
 0002:00004440       ??_C@_15CBKOMCOI@?$AAm?$AAn?$AA?$AA@ 0000000180024440     LIBCMT:winapinls.obj
 0002:00004448       ??_C@_15CKDMCJAF@?$AAg?$AAl?$AA?$AA@ 0000000180024448     LIBCMT:winapinls.obj
 0002:00004450       ??_C@_17CNJFBPG@?$AAk?$AAo?$AAk?$AA?$AA@ 0000000180024450     LIBCMT:winapinls.obj
 0002:00004458       ??_C@_17FFBJICPL@?$AAs?$AAy?$AAr?$AA?$AA@ 0000000180024458     LIBCMT:winapinls.obj
 0002:00004460       ??_C@_17KPNDCPAF@?$AAd?$AAi?$AAv?$AA?$AA@ 0000000180024460     LIBCMT:winapinls.obj
 0002:00004468       ??_C@_1M@OKAHONE@?$AAa?$AAr?$AA?9?$AAS?$AAA?$AA?$AA@ 0000000180024468     LIBCMT:winapinls.obj
 0002:00004478       ??_C@_1M@FFFIGIGK@?$AAb?$AAg?$AA?9?$AAB?$AAG?$AA?$AA@ 0000000180024478     LIBCMT:winapinls.obj
 0002:00004488       ??_C@_1M@BJNKEDC@?$AAc?$AAa?$AA?9?$AAE?$AAS?$AA?$AA@ 0000000180024488     LIBCMT:winapinls.obj
 0002:00004498       ??_C@_1M@IJJHFJHA@?$AAc?$AAs?$AA?9?$AAC?$AAZ?$AA?$AA@ 0000000180024498     LIBCMT:winapinls.obj
 0002:000044a8       ??_C@_1M@CLPEOBGI@?$AAd?$AAa?$AA?9?$AAD?$AAK?$AA?$AA@ 00000001800244a8     LIBCMT:winapinls.obj
 0002:000044b8       ??_C@_1M@MCMADGCB@?$AAd?$AAe?$AA?9?$AAD?$AAE?$AA?$AA@ 00000001800244b8     LIBCMT:winapinls.obj
 0002:000044c8       ??_C@_1M@OOCKEMAM@?$AAe?$AAl?$AA?9?$AAG?$AAR?$AA?$AA@ 00000001800244c8     LIBCMT:winapinls.obj
 0002:000044d8       ??_C@_1M@DDNJFGID@?$AAf?$AAi?$AA?9?$AAF?$AAI?$AA?$AA@ 00000001800244d8     LIBCMT:winapinls.obj
 0002:000044e8       ??_C@_1M@GLIPPMAC@?$AAf?$AAr?$AA?9?$AAF?$AAR?$AA?$AA@ 00000001800244e8     LIBCMT:winapinls.obj
 0002:000044f8       ??_C@_1M@GFMCHPE@?$AAh?$AAe?$AA?9?$AAI?$AAL?$AA?$AA@ 00000001800244f8     LIBCMT:winapinls.obj
 0002:00004508       ??_C@_1M@MHLPGNKM@?$AAh?$AAu?$AA?9?$AAH?$AAU?$AA?$AA@ 0000000180024508     LIBCMT:winapinls.obj
 0002:00004518       ??_C@_1M@LPDDNNPN@?$AAi?$AAs?$AA?9?$AAI?$AAS?$AA?$AA@ 0000000180024518     LIBCMT:winapinls.obj
 0002:00004528       ??_C@_1M@MADIPODN@?$AAi?$AAt?$AA?9?$AAI?$AAT?$AA?$AA@ 0000000180024528     LIBCMT:winapinls.obj
 0002:00004538       ??_C@_1M@IHBJJGG@?$AAn?$AAl?$AA?9?$AAN?$AAL?$AA?$AA@ 0000000180024538     LIBCMT:winapinls.obj
 0002:00004548       ??_C@_1M@EANAGDL@?$AAn?$AAb?$AA?9?$AAN?$AAO?$AA?$AA@ 0000000180024548     LIBCMT:winapinls.obj
 0002:00004558       ??_C@_1M@NEIEMEGP@?$AAp?$AAl?$AA?9?$AAP?$AAL?$AA?$AA@ 0000000180024558     LIBCMT:winapinls.obj
 0002:00004568       ??_C@_1M@BOCFIGEP@?$AAp?$AAt?$AA?9?$AAB?$AAR?$AA?$AA@ 0000000180024568     LIBCMT:winapinls.obj
 0002:00004578       ??_C@_1M@IMPFOPBG@?$AAr?$AAo?$AA?9?$AAR?$AAO?$AA?$AA@ 0000000180024578     LIBCMT:winapinls.obj
 0002:00004588       ??_C@_1M@IDNNEJMM@?$AAr?$AAu?$AA?9?$AAR?$AAU?$AA?$AA@ 0000000180024588     LIBCMT:winapinls.obj
 0002:00004598       ??_C@_1M@LILEEOGM@?$AAh?$AAr?$AA?9?$AAH?$AAR?$AA?$AA@ 0000000180024598     LIBCMT:winapinls.obj
 0002:000045a8       ??_C@_1M@FKIFEHPB@?$AAs?$AAk?$AA?9?$AAS?$AAK?$AA?$AA@ 00000001800245a8     LIBCMT:winapinls.obj
 0002:000045b8       ??_C@_1M@LJMAMNPJ@?$AAs?$AAq?$AA?9?$AAA?$AAL?$AA?$AA@ 00000001800245b8     LIBCMT:winapinls.obj
 0002:000045c8       ??_C@_1M@GIAKDKJK@?$AAs?$AAv?$AA?9?$AAS?$AAE?$AA?$AA@ 00000001800245c8     LIBCMT:winapinls.obj
 0002:000045d8       ??_C@_1M@MKJKIKCL@?$AAt?$AAh?$AA?9?$AAT?$AAH?$AA?$AA@ 00000001800245d8     LIBCMT:winapinls.obj
 0002:000045e8       ??_C@_1M@MFLCCMPB@?$AAt?$AAr?$AA?9?$AAT?$AAR?$AA?$AA@ 00000001800245e8     LIBCMT:winapinls.obj
 0002:000045f8       ??_C@_1M@OIJHDKJN@?$AAu?$AAr?$AA?9?$AAP?$AAK?$AA?$AA@ 00000001800245f8     LIBCMT:winapinls.obj
 0002:00004608       ??_C@_1M@LHIPCIEK@?$AAi?$AAd?$AA?9?$AAI?$AAD?$AA?$AA@ 0000000180024608     LIBCMT:winapinls.obj
 0002:00004618       ??_C@_1M@MFMOBGI@?$AAu?$AAk?$AA?9?$AAU?$AAA?$AA?$AA@ 0000000180024618     LIBCMT:winapinls.obj
 0002:00004628       ??_C@_1M@OBGLJIPL@?$AAb?$AAe?$AA?9?$AAB?$AAY?$AA?$AA@ 0000000180024628     LIBCMT:winapinls.obj
 0002:00004638       ??_C@_1M@BCFAJEAD@?$AAs?$AAl?$AA?9?$AAS?$AAI?$AA?$AA@ 0000000180024638     LIBCMT:winapinls.obj
 0002:00004648       ??_C@_1M@FKFFEDDN@?$AAe?$AAt?$AA?9?$AAE?$AAE?$AA?$AA@ 0000000180024648     LIBCMT:winapinls.obj
 0002:00004658       ??_C@_1M@KGKKAACI@?$AAl?$AAv?$AA?9?$AAL?$AAV?$AA?$AA@ 0000000180024658     LIBCMT:winapinls.obj
 0002:00004668       ??_C@_1M@IFGBIJO@?$AAl?$AAt?$AA?9?$AAL?$AAT?$AA?$AA@ 0000000180024668     LIBCMT:winapinls.obj
 0002:00004678       ??_C@_1M@FGEAHEDM@?$AAf?$AAa?$AA?9?$AAI?$AAR?$AA?$AA@ 0000000180024678     LIBCMT:winapinls.obj
 0002:00004688       ??_C@_1M@KBMAIBFN@?$AAv?$AAi?$AA?9?$AAV?$AAN?$AA?$AA@ 0000000180024688     LIBCMT:winapinls.obj
 0002:00004698       ??_C@_1M@GPCBKDJK@?$AAh?$AAy?$AA?9?$AAA?$AAM?$AA?$AA@ 0000000180024698     LIBCMT:winapinls.obj
 0002:000046a8       ??_C@_1BG@BECMDDJB@?$AAa?$AAz?$AA?9?$AAA?$AAZ?$AA?9?$AAL?$AAa?$AAt?$AAn?$AA?$AA@ 00000001800246a8     LIBCMT:winapinls.obj
 0002:000046c0       ??_C@_1M@MAOFCAEA@?$AAe?$AAu?$AA?9?$AAE?$AAS?$AA?$AA@ 00000001800246c0     LIBCMT:winapinls.obj
 0002:000046d0       ??_C@_1M@IGHABKPI@?$AAm?$AAk?$AA?9?$AAM?$AAK?$AA?$AA@ 00000001800246d0     LIBCMT:winapinls.obj
 0002:000046e0       ??_C@_1M@IAIGNEJG@?$AAt?$AAn?$AA?9?$AAZ?$AAA?$AA?$AA@ 00000001800246e0     LIBCMT:winapinls.obj
 0002:000046f0       ??_C@_1M@IIJCOJFA@?$AAx?$AAh?$AA?9?$AAZ?$AAA?$AA?$AA@ 00000001800246f0     LIBCMT:winapinls.obj
 0002:00004700       ??_C@_1M@LGPJHNJH@?$AAz?$AAu?$AA?9?$AAZ?$AAA?$AA?$AA@ 0000000180024700     LIBCMT:winapinls.obj
 0002:00004710       ??_C@_1M@HOKAOIO@?$AAa?$AAf?$AA?9?$AAZ?$AAA?$AA?$AA@ 0000000180024710     LIBCMT:winapinls.obj
 0002:00004720       ??_C@_1M@DPCLHLIE@?$AAk?$AAa?$AA?9?$AAG?$AAE?$AA?$AA@ 0000000180024720     LIBCMT:winapinls.obj
 0002:00004730       ??_C@_1M@BLKMHJBI@?$AAf?$AAo?$AA?9?$AAF?$AAO?$AA?$AA@ 0000000180024730     LIBCMT:winapinls.obj
 0002:00004740       ??_C@_1M@LGGJAPPB@?$AAh?$AAi?$AA?9?$AAI?$AAN?$AA?$AA@ 0000000180024740     LIBCMT:winapinls.obj
 0002:00004750       ??_C@_1M@FIKPIHFE@?$AAm?$AAt?$AA?9?$AAM?$AAT?$AA?$AA@ 0000000180024750     LIBCMT:winapinls.obj
 0002:00004760       ??_C@_1M@HEGGPBFA@?$AAs?$AAe?$AA?9?$AAN?$AAO?$AA?$AA@ 0000000180024760     LIBCMT:winapinls.obj
 0002:00004770       ??_C@_1M@EIBJEEPA@?$AAm?$AAs?$AA?9?$AAM?$AAY?$AA?$AA@ 0000000180024770     LIBCMT:winapinls.obj
 0002:00004780       ??_C@_1M@FHLBGMPP@?$AAk?$AAk?$AA?9?$AAK?$AAZ?$AA?$AA@ 0000000180024780     LIBCMT:winapinls.obj
 0002:00004790       ??_C@_1M@NGJJLCGI@?$AAk?$AAy?$AA?9?$AAK?$AAG?$AA?$AA@ 0000000180024790     LIBCMT:winapinls.obj
 0002:000047a0       ??_C@_1M@GIENNBFC@?$AAs?$AAw?$AA?9?$AAK?$AAE?$AA?$AA@ 00000001800247a0     LIBCMT:winapinls.obj
 0002:000047b0       ??_C@_1BG@NDGMJIMJ@?$AAu?$AAz?$AA?9?$AAU?$AAZ?$AA?9?$AAL?$AAa?$AAt?$AAn?$AA?$AA@ 00000001800247b0     LIBCMT:winapinls.obj
 0002:000047c8       ??_C@_1M@IDCCIHBC@?$AAt?$AAt?$AA?9?$AAR?$AAU?$AA?$AA@ 00000001800247c8     LIBCMT:winapinls.obj
 0002:000047d8       ??_C@_1M@LOICPMOJ@?$AAb?$AAn?$AA?9?$AAI?$AAN?$AA?$AA@ 00000001800247d8     LIBCMT:winapinls.obj
 0002:000047e8       ??_C@_1M@KPKKNEAH@?$AAp?$AAa?$AA?9?$AAI?$AAN?$AA?$AA@ 00000001800247e8     LIBCMT:winapinls.obj
 0002:000047f8       ??_C@_1M@PJGPPBOG@?$AAg?$AAu?$AA?9?$AAI?$AAN?$AA?$AA@ 00000001800247f8     LIBCMT:winapinls.obj
 0002:00004808       ??_C@_1M@KMKMOPHI@?$AAt?$AAa?$AA?9?$AAI?$AAN?$AA?$AA@ 0000000180024808     LIBCMT:winapinls.obj
 0002:00004818       ??_C@_1M@KFEHEPAC@?$AAt?$AAe?$AA?9?$AAI?$AAN?$AA?$AA@ 0000000180024818     LIBCMT:winapinls.obj
 0002:00004828       ??_C@_1M@CDCLMGHI@?$AAk?$AAn?$AA?9?$AAI?$AAN?$AA?$AA@ 0000000180024828     LIBCMT:winapinls.obj
 0002:00004838       ??_C@_1M@MIODLDKF@?$AAm?$AAl?$AA?9?$AAI?$AAN?$AA?$AA@ 0000000180024838     LIBCMT:winapinls.obj
 0002:00004848       ??_C@_1M@PBIEACPO@?$AAm?$AAr?$AA?9?$AAI?$AAN?$AA?$AA@ 0000000180024848     LIBCMT:winapinls.obj
 0002:00004858       ??_C@_1M@NIDEAGPH@?$AAs?$AAa?$AA?9?$AAI?$AAN?$AA?$AA@ 0000000180024858     LIBCMT:winapinls.obj
 0002:00004868       ??_C@_1M@FHIHCBIO@?$AAm?$AAn?$AA?9?$AAM?$AAN?$AA?$AA@ 0000000180024868     LIBCMT:winapinls.obj
 0002:00004878       ??_C@_1M@JAIJPENP@?$AAc?$AAy?$AA?9?$AAG?$AAB?$AA?$AA@ 0000000180024878     LIBCMT:winapinls.obj
 0002:00004888       ??_C@_1M@PHGFBEPN@?$AAg?$AAl?$AA?9?$AAE?$AAS?$AA?$AA@ 0000000180024888     LIBCMT:winapinls.obj
 0002:00004898       ??_C@_1O@KPIPDNCP@?$AAk?$AAo?$AAk?$AA?9?$AAI?$AAN?$AA?$AA@ 0000000180024898     LIBCMT:winapinls.obj
 0002:000048a8       ??_C@_1O@KNHJLDJA@?$AAs?$AAy?$AAr?$AA?9?$AAS?$AAY?$AA?$AA@ 00000001800248a8     LIBCMT:winapinls.obj
 0002:000048b8       ??_C@_1O@MKEKBLAH@?$AAd?$AAi?$AAv?$AA?9?$AAM?$AAV?$AA?$AA@ 00000001800248b8     LIBCMT:winapinls.obj
 0002:000048c8       ??_C@_1O@OHDCKDDF@?$AAq?$AAu?$AAz?$AA?9?$AAB?$AAO?$AA?$AA@ 00000001800248c8     LIBCMT:winapinls.obj
 0002:000048d8       ??_C@_1M@LEPJNLFD@?$AAn?$AAs?$AA?9?$AAZ?$AAA?$AA?$AA@ 00000001800248d8     LIBCMT:winapinls.obj
 0002:000048e8       ??_C@_1M@OMLEIIJB@?$AAm?$AAi?$AA?9?$AAN?$AAZ?$AA?$AA@ 00000001800248e8     LIBCMT:winapinls.obj
 0002:000048f8       ??_C@_1M@PMPEAILG@?$AAa?$AAr?$AA?9?$AAI?$AAQ?$AA?$AA@ 00000001800248f8     LIBCMT:winapinls.obj
 0002:00004908       ??_C@_1M@CNKPNOEE@?$AAd?$AAe?$AA?9?$AAC?$AAH?$AA?$AA@ 0000000180024908     LIBCMT:winapinls.obj
 0002:00004918       ??_C@_1M@LKMGMLKO@?$AAe?$AAn?$AA?9?$AAG?$AAB?$AA?$AA@ 0000000180024918     LIBCMT:winapinls.obj
 0002:00004928       ??_C@_1M@PGKJFFGL@?$AAe?$AAs?$AA?9?$AAM?$AAX?$AA?$AA@ 0000000180024928     LIBCMT:winapinls.obj
 0002:00004938       ??_C@_1M@DNNANBDC@?$AAf?$AAr?$AA?9?$AAB?$AAE?$AA?$AA@ 0000000180024938     LIBCMT:winapinls.obj
 0002:00004948       ??_C@_1M@HLGMDFHM@?$AAi?$AAt?$AA?9?$AAC?$AAH?$AA?$AA@ 0000000180024948     LIBCMT:winapinls.obj
 0002:00004958       ??_C@_1M@CLLBGJH@?$AAn?$AAl?$AA?9?$AAB?$AAE?$AA?$AA@ 0000000180024958     LIBCMT:winapinls.obj
 0002:00004968       ??_C@_1M@BODBOGLF@?$AAn?$AAn?$AA?9?$AAN?$AAO?$AA?$AA@ 0000000180024968     LIBCMT:winapinls.obj
 0002:00004978       ??_C@_1M@HFFAHKAD@?$AAp?$AAt?$AA?9?$AAP?$AAT?$AA?$AA@ 0000000180024978     LIBCMT:winapinls.obj
 0002:00004988       ??_C@_1BG@LNOAKHIE@?$AAs?$AAr?$AA?9?$AAS?$AAP?$AA?9?$AAL?$AAa?$AAt?$AAn?$AA?$AA@ 0000000180024988     LIBCMT:winapinls.obj
 0002:000049a0       ??_C@_1M@HBMHBGAK@?$AAs?$AAv?$AA?9?$AAF?$AAI?$AA?$AA@ 00000001800249a0     LIBCMT:winapinls.obj
 0002:000049b0       ??_C@_1BG@DGCJGJBE@?$AAa?$AAz?$AA?9?$AAA?$AAZ?$AA?9?$AAC?$AAy?$AAr?$AAl?$AA?$AA@ 00000001800249b0     LIBCMT:winapinls.obj
 0002:000049c8       ??_C@_1M@KEJDAAHB@?$AAs?$AAe?$AA?9?$AAS?$AAE?$AA?$AA@ 00000001800249c8     LIBCMT:winapinls.obj
 0002:000049d8       ??_C@_1M@HEIBJJAD@?$AAm?$AAs?$AA?9?$AAB?$AAN?$AA?$AA@ 00000001800249d8     LIBCMT:winapinls.obj
 0002:000049e8       ??_C@_1BG@PBGJMCEM@?$AAu?$AAz?$AA?9?$AAU?$AAZ?$AA?9?$AAC?$AAy?$AAr?$AAl?$AA?$AA@ 00000001800249e8     LIBCMT:winapinls.obj
 0002:00004a00       ??_C@_1O@LAOBCMDF@?$AAq?$AAu?$AAz?$AA?9?$AAE?$AAC?$AA?$AA@ 0000000180024a00     LIBCMT:winapinls.obj
 0002:00004a10       ??_C@_1M@POEEMAIO@?$AAa?$AAr?$AA?9?$AAE?$AAG?$AA?$AA@ 0000000180024a10     LIBCMT:winapinls.obj
 0002:00004a20       ??_C@_1M@EFAKDEDL@?$AAz?$AAh?$AA?9?$AAH?$AAK?$AA?$AA@ 0000000180024a20     LIBCMT:winapinls.obj
 0002:00004a30       ??_C@_1M@HKKIJHGI@?$AAd?$AAe?$AA?9?$AAA?$AAT?$AA?$AA@ 0000000180024a30     LIBCMT:winapinls.obj
 0002:00004a40       ??_C@_1M@KBFBEHJF@?$AAe?$AAn?$AA?9?$AAA?$AAU?$AA?$AA@ 0000000180024a40     LIBCMT:winapinls.obj
 0002:00004a50       ??_C@_1M@MNPLFAAH@?$AAe?$AAs?$AA?9?$AAE?$AAS?$AA?$AA@ 0000000180024a50     LIBCMT:winapinls.obj
 0002:00004a60       ??_C@_1M@HJOOJFMA@?$AAf?$AAr?$AA?9?$AAC?$AAA?$AA?$AA@ 0000000180024a60     LIBCMT:winapinls.obj
 0002:00004a70       ??_C@_1BG@JPOFPNAB@?$AAs?$AAr?$AA?9?$AAS?$AAP?$AA?9?$AAC?$AAy?$AAr?$AAl?$AA?$AA@ 0000000180024a70     LIBCMT:winapinls.obj
 0002:00004a88       ??_C@_1M@LNFOCMOB@?$AAs?$AAe?$AA?9?$AAF?$AAI?$AA?$AA@ 0000000180024a88     LIBCMT:winapinls.obj
 0002:00004a98       ??_C@_1O@MGJBOAMB@?$AAq?$AAu?$AAz?$AA?9?$AAP?$AAE?$AA?$AA@ 0000000180024a98     LIBCMT:winapinls.obj
 0002:00004aa8       ??_C@_1M@GJINLBOK@?$AAa?$AAr?$AA?9?$AAL?$AAY?$AA?$AA@ 0000000180024aa8     LIBCMT:winapinls.obj
 0002:00004ab8       ??_C@_1M@GGMNHJNL@?$AAz?$AAh?$AA?9?$AAS?$AAG?$AA?$AA@ 0000000180024ab8     LIBCMT:winapinls.obj
 0002:00004ac8       ??_C@_1M@HOIKODND@?$AAd?$AAe?$AA?9?$AAL?$AAU?$AA?$AA@ 0000000180024ac8     LIBCMT:winapinls.obj
 0002:00004ad8       ??_C@_1M@DDOCCGFG@?$AAe?$AAn?$AA?9?$AAC?$AAA?$AA?$AA@ 0000000180024ad8     LIBCMT:winapinls.obj
 0002:00004ae8       ??_C@_1M@BNOEMJLF@?$AAe?$AAs?$AA?9?$AAG?$AAT?$AA?$AA@ 0000000180024ae8     LIBCMT:winapinls.obj
 0002:00004af8       ??_C@_1M@EOGNKEK@?$AAf?$AAr?$AA?9?$AAC?$AAH?$AA?$AA@ 0000000180024af8     LIBCMT:winapinls.obj
 0002:00004b08       ??_C@_1M@FLIDJFHL@?$AAh?$AAr?$AA?9?$AAB?$AAA?$AA?$AA@ 0000000180024b08     LIBCMT:winapinls.obj
 0002:00004b18       ??_C@_1O@FMCELNAJ@?$AAs?$AAm?$AAj?$AA?9?$AAN?$AAO?$AA?$AA@ 0000000180024b18     LIBCMT:winapinls.obj
 0002:00004b28       ??_C@_1M@JHGLJMGJ@?$AAa?$AAr?$AA?9?$AAD?$AAZ?$AA?$AA@ 0000000180024b28     LIBCMT:winapinls.obj
 0002:00004b38       ??_C@_1M@JKKFDCNP@?$AAz?$AAh?$AA?9?$AAM?$AAO?$AA?$AA@ 0000000180024b38     LIBCMT:winapinls.obj
 0002:00004b48       ??_C@_1M@GEEFALPE@?$AAd?$AAe?$AA?9?$AAL?$AAI?$AA?$AA@ 0000000180024b48     LIBCMT:winapinls.obj
 0002:00004b58       ??_C@_1M@IGEOFBG@?$AAe?$AAn?$AA?9?$AAN?$AAZ?$AA?$AA@ 0000000180024b58     LIBCMT:winapinls.obj
 0002:00004b68       ??_C@_1M@KDBONEHP@?$AAe?$AAs?$AA?9?$AAC?$AAR?$AA?$AA@ 0000000180024b68     LIBCMT:winapinls.obj
 0002:00004b78       ??_C@_1M@FHMDOHNN@?$AAf?$AAr?$AA?9?$AAL?$AAU?$AA?$AA@ 0000000180024b78     LIBCMT:winapinls.obj
 0002:00004b88       ??_C@_1BG@NFKKMAFG@?$AAb?$AAs?$AA?9?$AAB?$AAA?$AA?9?$AAL?$AAa?$AAt?$AAn?$AA?$AA@ 0000000180024b88     LIBCMT:winapinls.obj
 0002:00004ba0       ??_C@_1O@IMNBEMCI@?$AAs?$AAm?$AAj?$AA?9?$AAS?$AAE?$AA?$AA@ 0000000180024ba0     LIBCMT:winapinls.obj
 0002:00004bb0       ??_C@_1M@DHHMBNDP@?$AAa?$AAr?$AA?9?$AAM?$AAA?$AA?$AA@ 0000000180024bb0     LIBCMT:winapinls.obj
 0002:00004bc0       ??_C@_1M@BNBLJCGH@?$AAe?$AAn?$AA?9?$AAI?$AAE?$AA?$AA@ 0000000180024bc0     LIBCMT:winapinls.obj
 0002:00004bd0       ??_C@_1M@GEPAFMDL@?$AAe?$AAs?$AA?9?$AAP?$AAA?$AA?$AA@ 0000000180024bd0     LIBCMT:winapinls.obj
 0002:00004be0       ??_C@_1M@OJONDMDL@?$AAf?$AAr?$AA?9?$AAM?$AAC?$AA?$AA@ 0000000180024be0     LIBCMT:winapinls.obj
 0002:00004bf0       ??_C@_1BG@OBCNFJB@?$AAs?$AAr?$AA?9?$AAB?$AAA?$AA?9?$AAL?$AAa?$AAt?$AAn?$AA?$AA@ 0000000180024bf0     LIBCMT:winapinls.obj
 0002:00004c08       ??_C@_1O@KEMEEGPO@?$AAs?$AAm?$AAa?$AA?9?$AAN?$AAO?$AA?$AA@ 0000000180024c08     LIBCMT:winapinls.obj
 0002:00004c18       ??_C@_1M@ELMGFODK@?$AAa?$AAr?$AA?9?$AAT?$AAN?$AA?$AA@ 0000000180024c18     LIBCMT:winapinls.obj
 0002:00004c28       ??_C@_1M@BHDLHFAF@?$AAe?$AAn?$AA?9?$AAZ?$AAA?$AA?$AA@ 0000000180024c28     LIBCMT:winapinls.obj
 0002:00004c38       ??_C@_1M@BMGIGLIF@?$AAe?$AAs?$AA?9?$AAD?$AAO?$AA?$AA@ 0000000180024c38     LIBCMT:winapinls.obj
 0002:00004c48       ??_C@_1BG@CMBHIPBE@?$AAs?$AAr?$AA?9?$AAB?$AAA?$AA?9?$AAC?$AAy?$AAr?$AAl?$AA?$AA@ 0000000180024c48     LIBCMT:winapinls.obj
 0002:00004c60       ??_C@_1O@HEDBLHNP@?$AAs?$AAm?$AAa?$AA?9?$AAS?$AAE?$AA?$AA@ 0000000180024c60     LIBCMT:winapinls.obj
 0002:00004c70       ??_C@_1M@DAGCADIM@?$AAa?$AAr?$AA?9?$AAO?$AAM?$AA?$AA@ 0000000180024c70     LIBCMT:winapinls.obj
 0002:00004c80       ??_C@_1M@FODLMICG@?$AAe?$AAn?$AA?9?$AAJ?$AAM?$AA?$AA@ 0000000180024c80     LIBCMT:winapinls.obj
 0002:00004c90       ??_C@_1M@DNMLCIHB@?$AAe?$AAs?$AA?9?$AAV?$AAE?$AA?$AA@ 0000000180024c90     LIBCMT:winapinls.obj
 0002:00004ca0       ??_C@_1O@EOKHMKJK@?$AAs?$AAm?$AAs?$AA?9?$AAF?$AAI?$AA?$AA@ 0000000180024ca0     LIBCMT:winapinls.obj
 0002:00004cb0       ??_C@_1M@CAFJMKOF@?$AAa?$AAr?$AA?9?$AAY?$AAE?$AA?$AA@ 0000000180024cb0     LIBCMT:winapinls.obj
 0002:00004cc0       ??_C@_1M@CBFHIJLI@?$AAe?$AAn?$AA?9?$AAC?$AAB?$AA?$AA@ 0000000180024cc0     LIBCMT:winapinls.obj
 0002:00004cd0       ??_C@_1M@BGNFLDN@?$AAe?$AAs?$AA?9?$AAC?$AAO?$AA?$AA@ 0000000180024cd0     LIBCMT:winapinls.obj
 0002:00004ce0       ??_C@_1O@JMPHMAMC@?$AAs?$AAm?$AAn?$AA?9?$AAF?$AAI?$AA?$AA@ 0000000180024ce0     LIBCMT:winapinls.obj
 0002:00004cf0       ??_C@_1M@JLANABKE@?$AAa?$AAr?$AA?9?$AAS?$AAY?$AA?$AA@ 0000000180024cf0     LIBCMT:winapinls.obj
 0002:00004d00       ??_C@_1M@HPKGCFGN@?$AAe?$AAn?$AA?9?$AAB?$AAZ?$AA?$AA@ 0000000180024d00     LIBCMT:winapinls.obj
 0002:00004d10       ??_C@_1M@OLJCMLGM@?$AAe?$AAs?$AA?9?$AAP?$AAE?$AA?$AA@ 0000000180024d10     LIBCMT:winapinls.obj
 0002:00004d20       ??_C@_1M@MKKGFKLE@?$AAa?$AAr?$AA?9?$AAJ?$AAO?$AA?$AA@ 0000000180024d20     LIBCMT:winapinls.obj
 0002:00004d30       ??_C@_1M@EKPGLDNI@?$AAe?$AAn?$AA?9?$AAT?$AAT?$AA?$AA@ 0000000180024d30     LIBCMT:winapinls.obj
 0002:00004d40       ??_C@_1M@OONGHFHE@?$AAe?$AAs?$AA?9?$AAA?$AAR?$AA?$AA@ 0000000180024d40     LIBCMT:winapinls.obj
 0002:00004d50       ??_C@_1M@OOJFGBHE@?$AAa?$AAr?$AA?9?$AAL?$AAB?$AA?$AA@ 0000000180024d50     LIBCMT:winapinls.obj
 0002:00004d60       ??_C@_1M@GCEJHNEG@?$AAe?$AAn?$AA?9?$AAZ?$AAW?$AA?$AA@ 0000000180024d60     LIBCMT:winapinls.obj
 0002:00004d70       ??_C@_1M@JNOCAHJI@?$AAe?$AAs?$AA?9?$AAE?$AAC?$AA?$AA@ 0000000180024d70     LIBCMT:winapinls.obj
 0002:00004d80       ??_C@_1M@JEFHPGGB@?$AAa?$AAr?$AA?9?$AAK?$AAW?$AA?$AA@ 0000000180024d80     LIBCMT:winapinls.obj
 0002:00004d90       ??_C@_1M@MLKIBJOJ@?$AAe?$AAn?$AA?9?$AAP?$AAH?$AA?$AA@ 0000000180024d90     LIBCMT:winapinls.obj
 0002:00004da0       ??_C@_1M@BDNIPEND@?$AAe?$AAs?$AA?9?$AAC?$AAL?$AA?$AA@ 0000000180024da0     LIBCMT:winapinls.obj
 0002:00004db0       ??_C@_1M@MPNMEKBD@?$AAa?$AAr?$AA?9?$AAA?$AAE?$AA?$AA@ 0000000180024db0     LIBCMT:winapinls.obj
 0002:00004dc0       ??_C@_1M@KBJALCPI@?$AAe?$AAs?$AA?9?$AAU?$AAY?$AA?$AA@ 0000000180024dc0     LIBCMT:winapinls.obj
 0002:00004dd0       ??_C@_1M@LLCCOAGA@?$AAa?$AAr?$AA?9?$AAB?$AAH?$AA?$AA@ 0000000180024dd0     LIBCMT:winapinls.obj
 0002:00004de0       ??_C@_1M@PBFNCDEL@?$AAe?$AAs?$AA?9?$AAP?$AAY?$AA?$AA@ 0000000180024de0     LIBCMT:winapinls.obj
 0002:00004df0       ??_C@_1M@EDGINPNP@?$AAa?$AAr?$AA?9?$AAQ?$AAA?$AA?$AA@ 0000000180024df0     LIBCMT:winapinls.obj
 0002:00004e00       ??_C@_1M@MKDBIIJI@?$AAe?$AAs?$AA?9?$AAB?$AAO?$AA?$AA@ 0000000180024e00     LIBCMT:winapinls.obj
 0002:00004e10       ??_C@_1M@CPKKEBLD@?$AAe?$AAs?$AA?9?$AAS?$AAV?$AA?$AA@ 0000000180024e10     LIBCMT:winapinls.obj
 0002:00004e20       ??_C@_1M@NDBGMMJL@?$AAe?$AAs?$AA?9?$AAH?$AAN?$AA?$AA@ 0000000180024e20     LIBCMT:winapinls.obj
 0002:00004e30       ??_C@_1M@JIJIBHDP@?$AAe?$AAs?$AA?9?$AAN?$AAI?$AA?$AA@ 0000000180024e30     LIBCMT:winapinls.obj
 0002:00004e40       ??_C@_1M@CGFMKEEK@?$AAe?$AAs?$AA?9?$AAP?$AAR?$AA?$AA@ 0000000180024e40     LIBCMT:winapinls.obj
 0002:00004e50       ??_C@_1O@ICJHKIIK@?$AAz?$AAh?$AA?9?$AAC?$AAH?$AAT?$AA?$AA@ 0000000180024e50     LIBCMT:winapinls.obj
 0002:00004e60       ??_C@_15CLNEJCE@?$AAs?$AAr?$AA?$AA@ 0000000180024e60     LIBCMT:winapinls.obj
 0002:00004e68       ??_C@_1M@KAHEKEIG@?$AAa?$AAf?$AA?9?$AAz?$AAa?$AA?$AA@ 0000000180024e68     LIBCMT:winapinls.obj
 0002:00004e78       ??_C@_1M@GIECOABL@?$AAa?$AAr?$AA?9?$AAa?$AAe?$AA?$AA@ 0000000180024e78     LIBCMT:winapinls.obj
 0002:00004e88       ??_C@_1M@BMLMEKGI@?$AAa?$AAr?$AA?9?$AAb?$AAh?$AA?$AA@ 0000000180024e88     LIBCMT:winapinls.obj
 0002:00004e98       ??_C@_1M@DAPFDGGB@?$AAa?$AAr?$AA?9?$AAd?$AAz?$AA?$AA@ 0000000180024e98     LIBCMT:winapinls.obj
 0002:00004ea8       ??_C@_1M@FJNKGKIG@?$AAa?$AAr?$AA?9?$AAe?$AAg?$AA?$AA@ 0000000180024ea8     LIBCMT:winapinls.obj
 0002:00004eb8       ??_C@_1M@FLGKKCLO@?$AAa?$AAr?$AA?9?$AAi?$AAq?$AA?$AA@ 0000000180024eb8     LIBCMT:winapinls.obj
 0002:00004ec8       ??_C@_1M@GNDIPALM@?$AAa?$AAr?$AA?9?$AAj?$AAo?$AA?$AA@ 0000000180024ec8     LIBCMT:winapinls.obj
 0002:00004ed8       ??_C@_1M@DDMJFMGJ@?$AAa?$AAr?$AA?9?$AAk?$AAw?$AA?$AA@ 0000000180024ed8     LIBCMT:winapinls.obj
 0002:00004ee8       ??_C@_1M@EJALMLHM@?$AAa?$AAr?$AA?9?$AAl?$AAb?$AA?$AA@ 0000000180024ee8     LIBCMT:winapinls.obj
 0002:00004ef8       ??_C@_1M@MOBDBLOC@?$AAa?$AAr?$AA?9?$AAl?$AAy?$AA?$AA@ 0000000180024ef8     LIBCMT:winapinls.obj
 0002:00004f08       ??_C@_1M@JAOCLHDH@?$AAa?$AAr?$AA?9?$AAm?$AAa?$AA?$AA@ 0000000180024f08     LIBCMT:winapinls.obj
 0002:00004f18       ??_C@_1M@JHPMKJIE@?$AAa?$AAr?$AA?9?$AAo?$AAm?$AA?$AA@ 0000000180024f18     LIBCMT:winapinls.obj
 0002:00004f28       ??_C@_1M@OEPGHFNH@?$AAa?$AAr?$AA?9?$AAq?$AAa?$AA?$AA@ 0000000180024f28     LIBCMT:winapinls.obj
 0002:00004f38       ??_C@_1M@KJDONENM@?$AAa?$AAr?$AA?9?$AAs?$AAa?$AA?$AA@ 0000000180024f38     LIBCMT:winapinls.obj
 0002:00004f48       ??_C@_1M@DMJDKLKM@?$AAa?$AAr?$AA?9?$AAs?$AAy?$AA?$AA@ 0000000180024f48     LIBCMT:winapinls.obj
 0002:00004f58       ??_C@_1M@OMFIPEDC@?$AAa?$AAr?$AA?9?$AAt?$AAn?$AA?$AA@ 0000000180024f58     LIBCMT:winapinls.obj
 0002:00004f68       ??_C@_1M@IHMHGAON@?$AAa?$AAr?$AA?9?$AAy?$AAe?$AA?$AA@ 0000000180024f68     LIBCMT:winapinls.obj
 0002:00004f78       ??_C@_1BG@KDCPGJGB@?$AAa?$AAz?$AA?9?$AAa?$AAz?$AA?9?$AAc?$AAy?$AAr?$AAl?$AA?$AA@ 0000000180024f78     LIBCMT:winapinls.obj
 0002:00004f90       ??_C@_1BG@IBCKDDOE@?$AAa?$AAz?$AA?9?$AAa?$AAz?$AA?9?$AAl?$AAa?$AAt?$AAn?$AA?$AA@ 0000000180024f90     LIBCMT:winapinls.obj
 0002:00004fa8       ??_C@_1M@EGPFDCPD@?$AAb?$AAe?$AA?9?$AAb?$AAy?$AA?$AA@ 0000000180024fa8     LIBCMT:winapinls.obj
 0002:00004fb8       ??_C@_1M@PCMGMCGC@?$AAb?$AAg?$AA?9?$AAb?$AAg?$AA?$AA@ 0000000180024fb8     LIBCMT:winapinls.obj
 0002:00004fc8       ??_C@_1M@BJBMFGOB@?$AAb?$AAn?$AA?9?$AAi?$AAn?$AA?$AA@ 0000000180024fc8     LIBCMT:winapinls.obj
 0002:00004fd8       ??_C@_1BG@EAKMMACD@?$AAb?$AAs?$AA?9?$AAb?$AAa?$AA?9?$AAl?$AAa?$AAt?$AAn?$AA?$AA@ 0000000180024fd8     LIBCMT:winapinls.obj
 0002:00004ff0       ??_C@_1M@KGADAODK@?$AAc?$AAa?$AA?9?$AAe?$AAs?$AA?$AA@ 0000000180024ff0     LIBCMT:winapinls.obj
 0002:00005000       ??_C@_1M@COAJPDHI@?$AAc?$AAs?$AA?9?$AAc?$AAz?$AA?$AA@ 0000000180025000     LIBCMT:winapinls.obj
 0002:00005010       ??_C@_1M@DHBHFONH@?$AAc?$AAy?$AA?9?$AAg?$AAb?$AA?$AA@ 0000000180025010     LIBCMT:winapinls.obj
 0002:00005020       ??_C@_1M@IMGKELGA@?$AAd?$AAa?$AA?9?$AAd?$AAk?$AA?$AA@ 0000000180025020     LIBCMT:winapinls.obj
 0002:00005030       ??_C@_1M@NNDGDNGA@?$AAd?$AAe?$AA?9?$AAa?$AAt?$AA?$AA@ 0000000180025030     LIBCMT:winapinls.obj
 0002:00005040       ??_C@_1M@IKDBHEEM@?$AAd?$AAe?$AA?9?$AAc?$AAh?$AA?$AA@ 0000000180025040     LIBCMT:winapinls.obj
 0002:00005050       ??_C@_1M@GFFOJMCJ@?$AAd?$AAe?$AA?9?$AAd?$AAe?$AA?$AA@ 0000000180025050     LIBCMT:winapinls.obj
 0002:00005060       ??_C@_1M@MDNLKBPM@?$AAd?$AAe?$AA?9?$AAl?$AAi?$AA?$AA@ 0000000180025060     LIBCMT:winapinls.obj
 0002:00005070       ??_C@_1M@NJBEEJNL@?$AAd?$AAe?$AA?9?$AAl?$AAu?$AA?$AA@ 0000000180025070     LIBCMT:winapinls.obj
 0002:00005080       ??_C@_1O@GNNELBAP@?$AAd?$AAi?$AAv?$AA?9?$AAm?$AAv?$AA?$AA@ 0000000180025080     LIBCMT:winapinls.obj
 0002:00005090       ??_C@_1M@EJLEOGAE@?$AAe?$AAl?$AA?9?$AAg?$AAr?$AA?$AA@ 0000000180025090     LIBCMT:winapinls.obj
 0002:000050a0       ??_C@_1M@GMPONJN@?$AAe?$AAn?$AA?9?$AAa?$AAu?$AA?$AA@ 00000001800250a0     LIBCMT:winapinls.obj
 0002:000050b0       ??_C@_1M@NIDIIPGF@?$AAe?$AAn?$AA?9?$AAb?$AAz?$AA?$AA@ 00000001800250b0     LIBCMT:winapinls.obj
 0002:000050c0       ??_C@_1M@JEHMIMFO@?$AAe?$AAn?$AA?9?$AAc?$AAa?$AA?$AA@ 00000001800250c0     LIBCMT:winapinls.obj
 0002:000050d0       ??_C@_1M@IGMJCDLA@?$AAe?$AAn?$AA?9?$AAc?$AAb?$AA?$AA@ 00000001800250d0     LIBCMT:winapinls.obj
 0002:000050e0       ??_C@_1M@BNFIGBKG@?$AAe?$AAn?$AA?9?$AAg?$AAb?$AA?$AA@ 00000001800250e0     LIBCMT:winapinls.obj
 0002:000050f0       ??_C@_1M@LKIFDIGP@?$AAe?$AAn?$AA?9?$AAi?$AAe?$AA?$AA@ 00000001800250f0     LIBCMT:winapinls.obj
 0002:00005100       ??_C@_1M@PJKFGCCO@?$AAe?$AAn?$AA?9?$AAj?$AAm?$AA?$AA@ 0000000180025100     LIBCMT:winapinls.obj
 0002:00005110       ??_C@_1M@KPPKEPBO@?$AAe?$AAn?$AA?9?$AAn?$AAz?$AA?$AA@ 0000000180025110     LIBCMT:winapinls.obj
 0002:00005120       ??_C@_1M@GMDGLDOB@?$AAe?$AAn?$AA?9?$AAp?$AAh?$AA?$AA@ 0000000180025120     LIBCMT:winapinls.obj
 0002:00005130       ??_C@_1M@ONGIBJNA@?$AAe?$AAn?$AA?9?$AAt?$AAt?$AA?$AA@ 0000000180025130     LIBCMT:winapinls.obj
 0002:00005140       ??_C@_1M@LLODPCMM@?$AAe?$AAn?$AA?9?$AAu?$AAs?$AA?$AA@ 0000000180025140     LIBCMT:winapinls.obj
 0002:00005150       ??_C@_1M@LAKFNPAN@?$AAe?$AAn?$AA?9?$AAz?$AAa?$AA?$AA@ 0000000180025150     LIBCMT:winapinls.obj
 0002:00005160       ??_C@_1M@MFNHNHEO@?$AAe?$AAn?$AA?9?$AAz?$AAw?$AA?$AA@ 0000000180025160     LIBCMT:winapinls.obj
 0002:00005170       ??_C@_1M@EJEINPHM@?$AAe?$AAs?$AA?9?$AAa?$AAr?$AA?$AA@ 0000000180025170     LIBCMT:winapinls.obj
 0002:00005180       ??_C@_1M@GNKPCCJA@?$AAe?$AAs?$AA?9?$AAb?$AAo?$AA?$AA@ 0000000180025180     LIBCMT:winapinls.obj
 0002:00005190       ??_C@_1M@LEEGFONL@?$AAe?$AAs?$AA?9?$AAc?$AAl?$AA?$AA@ 0000000180025190     LIBCMT:winapinls.obj
 0002:000051a0       ??_C@_1M@KGPDPBDF@?$AAe?$AAs?$AA?9?$AAc?$AAo?$AA?$AA@ 00000001800251a0     LIBCMT:winapinls.obj
 0002:000051b0       ??_C@_1M@EIAHOHH@?$AAe?$AAs?$AA?9?$AAc?$AAr?$AA?$AA@ 00000001800251b0     LIBCMT:winapinls.obj
 0002:000051c0       ??_C@_1M@LLPGMBIN@?$AAe?$AAs?$AA?9?$AAd?$AAo?$AA?$AA@ 00000001800251c0     LIBCMT:winapinls.obj
 0002:000051d0       ??_C@_1M@DKHMKNJA@?$AAe?$AAs?$AA?9?$AAe?$AAc?$AA?$AA@ 00000001800251d0     LIBCMT:winapinls.obj
 0002:000051e0       ??_C@_1M@GKGFPKAP@?$AAe?$AAs?$AA?9?$AAe?$AAs?$AA?$AA@ 00000001800251e0     LIBCMT:winapinls.obj
 0002:000051f0       ??_C@_1M@LKHKGDLN@?$AAe?$AAs?$AA?9?$AAg?$AAt?$AA?$AA@ 00000001800251f0     LIBCMT:winapinls.obj
 0002:00005200       ??_C@_1M@HEIIGGJD@?$AAe?$AAs?$AA?9?$AAh?$AAn?$AA?$AA@ 0000000180025200     LIBCMT:winapinls.obj
 0002:00005210       ??_C@_1M@FBDHPPGD@?$AAe?$AAs?$AA?9?$AAm?$AAx?$AA?$AA@ 0000000180025210     LIBCMT:winapinls.obj
 0002:00005220       ??_C@_1M@DPAGLNDH@?$AAe?$AAs?$AA?9?$AAn?$AAi?$AA?$AA@ 0000000180025220     LIBCMT:winapinls.obj
 0002:00005230       ??_C@_1M@MDGOPGDD@?$AAe?$AAs?$AA?9?$AAp?$AAa?$AA?$AA@ 0000000180025230     LIBCMT:winapinls.obj
 0002:00005240       ??_C@_1M@EMAMGBGE@?$AAe?$AAs?$AA?9?$AAp?$AAe?$AA?$AA@ 0000000180025240     LIBCMT:winapinls.obj
 0002:00005250       ??_C@_1M@IBMCAOEC@?$AAe?$AAs?$AA?9?$AAp?$AAr?$AA?$AA@ 0000000180025250     LIBCMT:winapinls.obj
 0002:00005260       ??_C@_1M@FGMDIJED@?$AAe?$AAs?$AA?9?$AAp?$AAy?$AA?$AA@ 0000000180025260     LIBCMT:winapinls.obj
 0002:00005270       ??_C@_1M@IIDEOLLL@?$AAe?$AAs?$AA?9?$AAs?$AAv?$AA?$AA@ 0000000180025270     LIBCMT:winapinls.obj
 0002:00005280       ??_C@_1M@GAOBIPA@?$AAe?$AAs?$AA?9?$AAu?$AAy?$AA?$AA@ 0000000180025280     LIBCMT:winapinls.obj
 0002:00005290       ??_C@_1M@JKFFICHJ@?$AAe?$AAs?$AA?9?$AAv?$AAe?$AA?$AA@ 0000000180025290     LIBCMT:winapinls.obj
 0002:000052a0       ??_C@_1M@PNMLOJDF@?$AAe?$AAt?$AA?9?$AAe?$AAe?$AA?$AA@ 00000001800252a0     LIBCMT:winapinls.obj
 0002:000052b0       ??_C@_1M@GHHLIKEI@?$AAe?$AAu?$AA?9?$AAe?$AAs?$AA?$AA@ 00000001800252b0     LIBCMT:winapinls.obj
 0002:000052c0       ??_C@_1M@PBNONODE@?$AAf?$AAa?$AA?9?$AAi?$AAr?$AA?$AA@ 00000001800252c0     LIBCMT:winapinls.obj
 0002:000052d0       ??_C@_1M@JEEHPMIL@?$AAf?$AAi?$AA?9?$AAf?$AAi?$AA?$AA@ 00000001800252d0     LIBCMT:winapinls.obj
 0002:000052e0       ??_C@_1M@LMDCNDBA@?$AAf?$AAo?$AA?9?$AAf?$AAo?$AA?$AA@ 00000001800252e0     LIBCMT:winapinls.obj
 0002:000052f0       ??_C@_1M@JKEOHLDK@?$AAf?$AAr?$AA?9?$AAb?$AAe?$AA?$AA@ 00000001800252f0     LIBCMT:winapinls.obj
 0002:00005300       ??_C@_1M@NOHADPMI@?$AAf?$AAr?$AA?9?$AAc?$AAa?$AA?$AA@ 0000000180025300     LIBCMT:winapinls.obj
 0002:00005310       ??_C@_1M@KDHIHAEC@?$AAf?$AAr?$AA?9?$AAc?$AAh?$AA?$AA@ 0000000180025310     LIBCMT:winapinls.obj
 0002:00005320       ??_C@_1M@MMBBFGAK@?$AAf?$AAr?$AA?9?$AAf?$AAr?$AA?$AA@ 0000000180025320     LIBCMT:winapinls.obj
 0002:00005330       ??_C@_1M@PAFNENNF@?$AAf?$AAr?$AA?9?$AAl?$AAu?$AA?$AA@ 0000000180025330     LIBCMT:winapinls.obj
 0002:00005340       ??_C@_1M@EOHDJGDD@?$AAf?$AAr?$AA?9?$AAm?$AAc?$AA?$AA@ 0000000180025340     LIBCMT:winapinls.obj
 0002:00005350       ??_C@_1M@FAPLLOPF@?$AAg?$AAl?$AA?9?$AAe?$AAs?$AA?$AA@ 0000000180025350     LIBCMT:winapinls.obj
 0002:00005360       ??_C@_1M@FOPBFLOO@?$AAg?$AAu?$AA?9?$AAi?$AAn?$AA?$AA@ 0000000180025360     LIBCMT:winapinls.obj
 0002:00005370       ??_C@_1M@KBMCINPM@?$AAh?$AAe?$AA?9?$AAi?$AAl?$AA?$AA@ 0000000180025370     LIBCMT:winapinls.obj
 0002:00005380       ??_C@_1M@BBPHKFPJ@?$AAh?$AAi?$AA?9?$AAi?$AAn?$AA?$AA@ 0000000180025380     LIBCMT:winapinls.obj
 0002:00005390       ??_C@_1M@PMBNDPHD@?$AAh?$AAr?$AA?9?$AAb?$AAa?$AA?$AA@ 0000000180025390     LIBCMT:winapinls.obj
 0002:000053a0       ??_C@_1M@BPCKOEGE@?$AAh?$AAr?$AA?9?$AAh?$AAr?$AA?$AA@ 00000001800253a0     LIBCMT:winapinls.obj
 0002:000053b0       ??_C@_1M@GACBMHKE@?$AAh?$AAu?$AA?9?$AAh?$AAu?$AA?$AA@ 00000001800253b0     LIBCMT:winapinls.obj
 0002:000053c0       ??_C@_1M@MILPAJJC@?$AAh?$AAy?$AA?9?$AAa?$AAm?$AA?$AA@ 00000001800253c0     LIBCMT:winapinls.obj
 0002:000053d0       ??_C@_1M@BABBICEC@?$AAi?$AAd?$AA?9?$AAi?$AAd?$AA?$AA@ 00000001800253d0     LIBCMT:winapinls.obj
 0002:000053e0       ??_C@_1M@BIKNHHPF@?$AAi?$AAs?$AA?9?$AAi?$AAs?$AA?$AA@ 00000001800253e0     LIBCMT:winapinls.obj
 0002:000053f0       ??_C@_1M@NMPCJPHE@?$AAi?$AAt?$AA?9?$AAc?$AAh?$AA?$AA@ 00000001800253f0     LIBCMT:winapinls.obj
 0002:00005400       ??_C@_1M@GHKGFEDF@?$AAi?$AAt?$AA?9?$AAi?$AAt?$AA?$AA@ 0000000180025400     LIBCMT:winapinls.obj
 0002:00005410       ??_C@_1M@NIEJCJJA@?$AAj?$AAa?$AA?9?$AAj?$AAp?$AA?$AA@ 0000000180025410     LIBCMT:winapinls.obj
 0002:00005420       ??_C@_1M@JILFNBIM@?$AAk?$AAa?$AA?9?$AAg?$AAe?$AA?$AA@ 0000000180025420     LIBCMT:winapinls.obj
 0002:00005430       ??_C@_1M@PACPMGPH@?$AAk?$AAk?$AA?9?$AAk?$AAz?$AA?$AA@ 0000000180025430     LIBCMT:winapinls.obj
 0002:00005440       ??_C@_1M@IELFGMHA@?$AAk?$AAn?$AA?9?$AAi?$AAn?$AA?$AA@ 0000000180025440     LIBCMT:winapinls.obj
 0002:00005450       ??_C@_1O@IBBJHCH@?$AAk?$AAo?$AAk?$AA?9?$AAi?$AAn?$AA?$AA@ 0000000180025450     LIBCMT:winapinls.obj
 0002:00005460       ??_C@_1M@DMHAEOGC@?$AAk?$AAo?$AA?9?$AAk?$AAr?$AA?$AA@ 0000000180025460     LIBCMT:winapinls.obj
 0002:00005470       ??_C@_1M@HBAHBIGA@?$AAk?$AAy?$AA?9?$AAk?$AAg?$AA?$AA@ 0000000180025470     LIBCMT:winapinls.obj
 0002:00005480       ??_C@_1M@KPMILCJG@?$AAl?$AAt?$AA?9?$AAl?$AAt?$AA?$AA@ 0000000180025480     LIBCMT:winapinls.obj
 0002:00005490       ??_C@_1M@BDEKKCA@?$AAl?$AAv?$AA?9?$AAl?$AAv?$AA?$AA@ 0000000180025490     LIBCMT:winapinls.obj
 0002:000054a0       ??_C@_1M@ELCKCCJJ@?$AAm?$AAi?$AA?9?$AAn?$AAz?$AA?$AA@ 00000001800254a0     LIBCMT:winapinls.obj
 0002:000054b0       ??_C@_1M@CBOOLAPA@?$AAm?$AAk?$AA?9?$AAm?$AAk?$AA?$AA@ 00000001800254b0     LIBCMT:winapinls.obj
 0002:000054c0       ??_C@_1M@GPHNBJKN@?$AAm?$AAl?$AA?9?$AAi?$AAn?$AA?$AA@ 00000001800254c0     LIBCMT:winapinls.obj
 0002:000054d0       ??_C@_1M@PABJILIG@?$AAm?$AAn?$AA?9?$AAm?$AAn?$AA?$AA@ 00000001800254d0     LIBCMT:winapinls.obj
 0002:000054e0       ??_C@_1M@FGBKKIPG@?$AAm?$AAr?$AA?9?$AAi?$AAn?$AA?$AA@ 00000001800254e0     LIBCMT:winapinls.obj
 0002:000054f0       ??_C@_1M@NDBPDDAL@?$AAm?$AAs?$AA?9?$AAb?$AAn?$AA?$AA@ 00000001800254f0     LIBCMT:winapinls.obj
 0002:00005500       ??_C@_1M@OPIHOOPI@?$AAm?$AAs?$AA?9?$AAm?$AAy?$AA?$AA@ 0000000180025500     LIBCMT:winapinls.obj
 0002:00005510       ??_C@_1M@PPDBCNFM@?$AAm?$AAt?$AA?9?$AAm?$AAt?$AA?$AA@ 0000000180025510     LIBCMT:winapinls.obj
 0002:00005520       ??_C@_1M@KDJDKMDD@?$AAn?$AAb?$AA?9?$AAn?$AAo?$AA?$AA@ 0000000180025520     LIBCMT:winapinls.obj
 0002:00005530       ??_C@_1M@KFCFLMJP@?$AAn?$AAl?$AA?9?$AAb?$AAe?$AA?$AA@ 0000000180025530     LIBCMT:winapinls.obj
 0002:00005540       ??_C@_1M@KPOPDDGO@?$AAn?$AAl?$AA?9?$AAn?$AAl?$AA?$AA@ 0000000180025540     LIBCMT:winapinls.obj
 0002:00005550       ??_C@_1M@LJKPEMLN@?$AAn?$AAn?$AA?9?$AAn?$AAo?$AA?$AA@ 0000000180025550     LIBCMT:winapinls.obj
 0002:00005560       ??_C@_1M@BDGHHBFL@?$AAn?$AAs?$AA?9?$AAz?$AAa?$AA?$AA@ 0000000180025560     LIBCMT:winapinls.obj
 0002:00005570       ??_C@_1M@IDEHOAP@?$AAp?$AAa?$AA?9?$AAi?$AAn?$AA?$AA@ 0000000180025570     LIBCMT:winapinls.obj
 0002:00005580       ??_C@_1M@HDBKGOGH@?$AAp?$AAl?$AA?9?$AAp?$AAl?$AA?$AA@ 0000000180025580     LIBCMT:winapinls.obj
 0002:00005590       ??_C@_1M@LJLLCMEH@?$AAp?$AAt?$AA?9?$AAb?$AAr?$AA?$AA@ 0000000180025590     LIBCMT:winapinls.obj
 0002:000055a0       ??_C@_1M@NCMONAAL@?$AAp?$AAt?$AA?9?$AAp?$AAt?$AA?$AA@ 00000001800255a0     LIBCMT:winapinls.obj
 0002:000055b0       ??_C@_1O@EAKMAJDN@?$AAq?$AAu?$AAz?$AA?9?$AAb?$AAo?$AA?$AA@ 00000001800255b0     LIBCMT:winapinls.obj
 0002:000055c0       ??_C@_1O@BHHPIGDN@?$AAq?$AAu?$AAz?$AA?9?$AAe?$AAc?$AA?$AA@ 00000001800255c0     LIBCMT:winapinls.obj
 0002:000055d0       ??_C@_1O@GBAPEKMJ@?$AAq?$AAu?$AAz?$AA?9?$AAp?$AAe?$AA?$AA@ 00000001800255d0     LIBCMT:winapinls.obj
 0002:000055e0       ??_C@_1M@CLGLEFBO@?$AAr?$AAo?$AA?9?$AAr?$AAo?$AA?$AA@ 00000001800255e0     LIBCMT:winapinls.obj
 0002:000055f0       ??_C@_1M@CEEDODME@?$AAr?$AAu?$AA?9?$AAr?$AAu?$AA?$AA@ 00000001800255f0     LIBCMT:winapinls.obj
 0002:00005600       ??_C@_1M@HPKKKMPP@?$AAs?$AAa?$AA?9?$AAi?$AAn?$AA?$AA@ 0000000180025600     LIBCMT:winapinls.obj
 0002:00005610       ??_C@_1M@BKMAIGOJ@?$AAs?$AAe?$AA?9?$AAf?$AAi?$AA?$AA@ 0000000180025610     LIBCMT:winapinls.obj
 0002:00005620       ??_C@_1M@NDPIFLFI@?$AAs?$AAe?$AA?9?$AAn?$AAo?$AA?$AA@ 0000000180025620     LIBCMT:winapinls.obj
 0002:00005630       ??_C@_1M@DANKKHJ@?$AAs?$AAe?$AA?9?$AAs?$AAe?$AA?$AA@ 0000000180025630     LIBCMT:winapinls.obj
 0002:00005640       ??_C@_1M@PNBLONPJ@?$AAs?$AAk?$AA?9?$AAs?$AAk?$AA?$AA@ 0000000180025640     LIBCMT:winapinls.obj
 0002:00005650       ??_C@_1M@LFMODOAL@?$AAs?$AAl?$AA?9?$AAs?$AAi?$AA?$AA@ 0000000180025650     LIBCMT:winapinls.obj
 0002:00005660       ??_C@_1O@DFKOMPG@?$AAs?$AAm?$AAa?$AA?9?$AAn?$AAo?$AA?$AA@ 0000000180025660     LIBCMT:winapinls.obj
 0002:00005670       ??_C@_1O@NDKPBNNH@?$AAs?$AAm?$AAa?$AA?9?$AAs?$AAe?$AA?$AA@ 0000000180025670     LIBCMT:winapinls.obj
 0002:00005680       ??_C@_1O@PLLKBHAB@?$AAs?$AAm?$AAj?$AA?9?$AAn?$AAo?$AA?$AA@ 0000000180025680     LIBCMT:winapinls.obj
 0002:00005690       ??_C@_1O@CLEPOGCA@?$AAs?$AAm?$AAj?$AA?9?$AAs?$AAe?$AA?$AA@ 0000000180025690     LIBCMT:winapinls.obj
 0002:000056a0       ??_C@_1O@DLGJGKMK@?$AAs?$AAm?$AAn?$AA?9?$AAf?$AAi?$AA?$AA@ 00000001800256a0     LIBCMT:winapinls.obj
 0002:000056b0       ??_C@_1O@OJDJGAJC@?$AAs?$AAm?$AAs?$AA?9?$AAf?$AAi?$AA?$AA@ 00000001800256b0     LIBCMT:winapinls.obj
 0002:000056c0       ??_C@_1M@BOFOGHPB@?$AAs?$AAq?$AA?9?$AAa?$AAl?$AA?$AA@ 00000001800256c0     LIBCMT:winapinls.obj
 0002:000056d0       ??_C@_1BG@LJBBIPGB@?$AAs?$AAr?$AA?9?$AAb?$AAa?$AA?9?$AAc?$AAy?$AAr?$AAl?$AA?$AA@ 00000001800256d0     LIBCMT:winapinls.obj
 0002:000056e8       ??_C@_1BG@JLBENFOE@?$AAs?$AAr?$AA?9?$AAb?$AAa?$AA?9?$AAl?$AAa?$AAt?$AAn?$AA?$AA@ 00000001800256e8     LIBCMT:winapinls.obj
 0002:00005700       ??_C@_1BG@KODPNHE@?$AAs?$AAr?$AA?9?$AAs?$AAp?$AA?9?$AAc?$AAy?$AAr?$AAl?$AA?$AA@ 0000000180025700     LIBCMT:winapinls.obj
 0002:00005718       ??_C@_1BG@CIOGKHPB@?$AAs?$AAr?$AA?9?$AAs?$AAp?$AA?9?$AAl?$AAa?$AAt?$AAn?$AA?$AA@ 0000000180025718     LIBCMT:winapinls.obj
 0002:00005730       ??_C@_1M@NGFJLMAC@?$AAs?$AAv?$AA?9?$AAf?$AAi?$AA?$AA@ 0000000180025730     LIBCMT:winapinls.obj
 0002:00005740       ??_C@_1M@MPJEJAJC@?$AAs?$AAv?$AA?9?$AAs?$AAe?$AA?$AA@ 0000000180025740     LIBCMT:winapinls.obj
 0002:00005750       ??_C@_1M@MPNDHLFK@?$AAs?$AAw?$AA?9?$AAk?$AAe?$AA?$AA@ 0000000180025750     LIBCMT:winapinls.obj
 0002:00005760       ??_C@_1O@KOHBJJI@?$AAs?$AAy?$AAr?$AA?9?$AAs?$AAy?$AA?$AA@ 0000000180025760     LIBCMT:winapinls.obj
 0002:00005770       ??_C@_1M@LDCEFHA@?$AAt?$AAa?$AA?9?$AAi?$AAn?$AA?$AA@ 0000000180025770     LIBCMT:winapinls.obj
 0002:00005780       ??_C@_1M@CNJOFAK@?$AAt?$AAe?$AA?9?$AAi?$AAn?$AA?$AA@ 0000000180025780     LIBCMT:winapinls.obj
 0002:00005790       ??_C@_1M@GNAECACD@?$AAt?$AAh?$AA?9?$AAt?$AAh?$AA?$AA@ 0000000180025790     LIBCMT:winapinls.obj
 0002:000057a0       ??_C@_1M@CHBIHOJO@?$AAt?$AAn?$AA?9?$AAz?$AAa?$AA?$AA@ 00000001800257a0     LIBCMT:winapinls.obj
 0002:000057b0       ??_C@_1M@GCCMIGPJ@?$AAt?$AAr?$AA?9?$AAt?$AAr?$AA?$AA@ 00000001800257b0     LIBCMT:winapinls.obj
 0002:000057c0       ??_C@_1M@CELMCNBK@?$AAt?$AAt?$AA?9?$AAr?$AAu?$AA?$AA@ 00000001800257c0     LIBCMT:winapinls.obj
 0002:000057d0       ??_C@_1M@KLMCELGA@?$AAu?$AAk?$AA?9?$AAu?$AAa?$AA?$AA@ 00000001800257d0     LIBCMT:winapinls.obj
 0002:000057e0       ??_C@_1M@EPAJJAJF@?$AAu?$AAr?$AA?9?$AAp?$AAk?$AA?$AA@ 00000001800257e0     LIBCMT:winapinls.obj
 0002:000057f0       ??_C@_1BG@GEGPMCDJ@?$AAu?$AAz?$AA?9?$AAu?$AAz?$AA?9?$AAc?$AAy?$AAr?$AAl?$AA?$AA@ 00000001800257f0     LIBCMT:winapinls.obj
 0002:00005808       ??_C@_1BG@EGGKJILM@?$AAu?$AAz?$AA?9?$AAu?$AAz?$AA?9?$AAl?$AAa?$AAt?$AAn?$AA?$AA@ 0000000180025808     LIBCMT:winapinls.obj
 0002:00005820       ??_C@_1M@GFOCLFF@?$AAv?$AAi?$AA?9?$AAv?$AAn?$AA?$AA@ 0000000180025820     LIBCMT:winapinls.obj
 0002:00005830       ??_C@_1M@CPAMEDFI@?$AAx?$AAh?$AA?9?$AAz?$AAa?$AA?$AA@ 0000000180025830     LIBCMT:winapinls.obj
 0002:00005840       ??_C@_1O@EBKIFIGN@?$AAz?$AAh?$AA?9?$AAc?$AAh?$AAs?$AA?$AA@ 0000000180025840     LIBCMT:winapinls.obj
 0002:00005850       ??_C@_1O@NMHPGANE@?$AAz?$AAh?$AA?9?$AAc?$AAh?$AAt?$AA?$AA@ 0000000180025850     LIBCMT:winapinls.obj
 0002:00005860       ??_C@_1M@LPINJOMC@?$AAz?$AAh?$AA?9?$AAc?$AAn?$AA?$AA@ 0000000180025860     LIBCMT:winapinls.obj
 0002:00005870       ??_C@_1M@OCJEJODD@?$AAz?$AAh?$AA?9?$AAh?$AAk?$AA?$AA@ 0000000180025870     LIBCMT:winapinls.obj
 0002:00005880       ??_C@_1M@DNDLJINH@?$AAz?$AAh?$AA?9?$AAm?$AAo?$AA?$AA@ 0000000180025880     LIBCMT:winapinls.obj
 0002:00005890       ??_C@_1M@MBFDNDND@?$AAz?$AAh?$AA?9?$AAs?$AAg?$AA?$AA@ 0000000180025890     LIBCMT:winapinls.obj
 0002:000058a0       ??_C@_1M@IMEPLEPE@?$AAz?$AAh?$AA?9?$AAt?$AAw?$AA?$AA@ 00000001800258a0     LIBCMT:winapinls.obj
 0002:000058b0       ??_C@_1M@BBGHNHJP@?$AAz?$AAu?$AA?9?$AAz?$AAa?$AA?$AA@ 00000001800258b0     LIBCMT:winapinls.obj
 0002:000058c0       _pDestructExceptionObject  00000001800258c0     LIBCMT:frame.obj
 0002:000058d0       ??_7bad_exception@std@@6B@ 00000001800258d0     LIBCMT:frame.obj
 0002:000058e0       ??_C@_0O@DPKOEFFH@bad?5exception?$AA@ 00000001800258e0     LIBCMT:frame.obj
 0002:000058f0       __newctype                 00000001800258f0     LIBCMT:ctype.obj
 0002:00005bf0       _wctype                    0000000180025bf0     LIBCMT:ctype.obj
 0002:00005e00       __newclmap                 0000000180025e00     LIBCMT:ctype.obj
 0002:00005f80       __newcumap                 0000000180025f80     LIBCMT:ctype.obj
 0002:00006100       __rg_language_count        0000000180026100     LIBCMT:getqloc.obj
 0002:00006104       __rg_country_count         0000000180026104     LIBCMT:getqloc.obj
 0002:00006108       ??_C@_1BG@GOEBHBDC@?$AAU?$AAS?$AAE?$AAR?$AA3?$AA2?$AA?4?$AAD?$AAL?$AAL?$AA?$AA@ 0000000180026108     LIBCMT:crtmboxw.obj
 0002:00006120       ??_C@_0M@DLDCCGNP@MessageBoxW?$AA@ 0000000180026120     LIBCMT:crtmboxw.obj
 0002:00006130       ??_C@_0BA@HNOPNCHB@GetActiveWindow?$AA@ 0000000180026130     LIBCMT:crtmboxw.obj
 0002:00006140       ??_C@_0BD@HHGDFDBJ@GetLastActivePopup?$AA@ 0000000180026140     LIBCMT:crtmboxw.obj
 0002:00006158       ??_C@_0BK@DEKFELLI@GetUserObjectInformationW?$AA@ 0000000180026158     LIBCMT:crtmboxw.obj
 0002:00006178       ??_C@_0BI@DFKBFLJE@GetProcessWindowStation?$AA@ 0000000180026178     LIBCMT:crtmboxw.obj
 0002:00006190       __lookuptable_s            0000000180026190     LIBCMT:outputs.obj
 0002:000061ec       ??_C@_06PGGFOGJG@1?$CDSNAN?$AA@ 00000001800261ec     LIBCMT:x10fout.obj
 0002:000061f4       ??_C@_05PHHOCPM@1?$CDIND?$AA@ 00000001800261f4     LIBCMT:x10fout.obj
 0002:000061fc       ??_C@_05DNEBIAHO@1?$CDINF?$AA@ 00000001800261fc     LIBCMT:x10fout.obj
 0002:00006204       ??_C@_06IMKFLFPG@1?$CDQNAN?$AA@ 0000000180026204     LIBCMT:x10fout.obj
 0002:00006210       ??_C@_1BA@BALFACEM@?$AAC?$AAO?$AAN?$AAO?$AAU?$AAT?$AA$?$AA?$AA@ 0000000180026210     LIBCMT:initcon.obj
 0002:00006bc0       ??_C@_0BC@CIJDGCDI@permission?5denied?$AA@ 0000000180026bc0     libcpmt:syserror.obj
 0002:00006bd8       ??_C@_0M@MIDIAGJP@file?5exists?$AA@ 0000000180026bd8     libcpmt:syserror.obj
 0002:00006be8       ??_C@_0P@FDINDDOK@no?5such?5device?$AA@ 0000000180026be8     libcpmt:syserror.obj
 0002:00006bf8       ??_C@_0BC@EJHOMAAK@filename?5too?5long?$AA@ 0000000180026bf8     libcpmt:syserror.obj
 0002:00006c10       ??_C@_0BI@NGCEHDD@device?5or?5resource?5busy?$AA@ 0000000180026c10     libcpmt:syserror.obj
 0002:00006c28       ??_C@_08GLNPIFBN@io?5error?$AA@ 0000000180026c28     libcpmt:syserror.obj
 0002:00006c38       ??_C@_0BE@JIDOCPHM@directory?5not?5empty?$AA@ 0000000180026c38     libcpmt:syserror.obj
 0002:00006c50       ??_C@_0BB@FCMFBGOM@invalid?5argument?$AA@ 0000000180026c50     libcpmt:syserror.obj
 0002:00006c68       ??_C@_0BD@IJDJKDEA@no?5space?5on?5device?$AA@ 0000000180026c68     libcpmt:syserror.obj
 0002:00006c80       ??_C@_0BK@NDOCBPGE@no?5such?5file?5or?5directory?$AA@ 0000000180026c80     libcpmt:syserror.obj
 0002:00006ca0       ??_C@_0BH@KEFGLDAF@function?5not?5supported?$AA@ 0000000180026ca0     libcpmt:syserror.obj
 0002:00006cb8       ??_C@_0BC@NJECKMKE@no?5lock?5available?$AA@ 0000000180026cb8     libcpmt:syserror.obj
 0002:00006cd0       ??_C@_0BC@ENOOLCNF@not?5enough?5memory?$AA@ 0000000180026cd0     libcpmt:syserror.obj
 0002:00006ce8       ??_C@_0BP@LKNGHENJ@resource?5unavailable?5try?5again?$AA@ 0000000180026ce8     libcpmt:syserror.obj
 0002:00006d08       ??_C@_0BC@PPHBOELF@cross?5device?5link?$AA@ 0000000180026d08     libcpmt:syserror.obj
 0002:00006d20       ??_C@_0BD@MOLBPMEA@operation?5canceled?$AA@ 0000000180026d20     libcpmt:syserror.obj
 0002:00006d38       ??_C@_0BE@GHAFMPAH@too?5many?5files?5open?$AA@ 0000000180026d38     libcpmt:syserror.obj
 0002:00006d50       ??_C@_0BC@FNODOBAE@permission_denied?$AA@ 0000000180026d50     libcpmt:syserror.obj
 0002:00006d68       ??_C@_0P@LNDJPBFK@address_in_use?$AA@ 0000000180026d68     libcpmt:syserror.obj
 0002:00006d78       ??_C@_0BG@IPMGOJF@address_not_available?$AA@ 0000000180026d78     libcpmt:syserror.obj
 0002:00006d90       ??_C@_0BN@LCBDHODA@address_family_not_supported?$AA@ 0000000180026d90     libcpmt:syserror.obj
 0002:00006db0       ??_C@_0BP@FOJJHMCC@connection_already_in_progress?$AA@ 0000000180026db0     libcpmt:syserror.obj
 0002:00006dd0       ??_C@_0BE@DLHHIBGN@bad_file_descriptor?$AA@ 0000000180026dd0     libcpmt:syserror.obj
 0002:00006de8       ??_C@_0BD@OJMJDIGI@connection_aborted?$AA@ 0000000180026de8     libcpmt:syserror.obj
 0002:00006e00       ??_C@_0BD@NGKCIFEP@connection_refused?$AA@ 0000000180026e00     libcpmt:syserror.obj
 0002:00006e18       ??_C@_0BB@JOANDNCK@connection_reset?$AA@ 0000000180026e18     libcpmt:syserror.obj
 0002:00006e30       ??_C@_0BN@JLJNLKLK@destination_address_required?$AA@ 0000000180026e30     libcpmt:syserror.obj
 0002:00006e50       ??_C@_0M@IJGMGFGP@bad_address?$AA@ 0000000180026e50     libcpmt:syserror.obj
 0002:00006e60       ??_C@_0BB@KKNHPPIN@host_unreachable?$AA@ 0000000180026e60     libcpmt:syserror.obj
 0002:00006e78       ??_C@_0BG@DJGBJIIK@operation_in_progress?$AA@ 0000000180026e78     libcpmt:syserror.obj
 0002:00006e90       ??_C@_0M@EGEKIIMP@interrupted?$AA@ 0000000180026e90     libcpmt:syserror.obj
 0002:00006ea0       ??_C@_0BB@FFIHMIPJ@invalid_argument?$AA@ 0000000180026ea0     libcpmt:syserror.obj
 0002:00006eb8       ??_C@_0BC@FIFLCHLO@already_connected?$AA@ 0000000180026eb8     libcpmt:syserror.obj
 0002:00006ed0       ??_C@_0BE@GJJJJDDA@too_many_files_open?$AA@ 0000000180026ed0     libcpmt:syserror.obj
 0002:00006ee8       ??_C@_0N@HPMLKHPL@message_size?$AA@ 0000000180026ee8     libcpmt:syserror.obj
 0002:00006ef8       ??_C@_0BC@LEEIKBAL@filename_too_long?$AA@ 0000000180026ef8     libcpmt:syserror.obj
 0002:00006f10       ??_C@_0N@FCPALPJK@network_down?$AA@ 0000000180026f10     libcpmt:syserror.obj
 0002:00006f20       ??_C@_0O@EHNDLHIG@network_reset?$AA@ 0000000180026f20     libcpmt:syserror.obj
 0002:00006f30       ??_C@_0BE@JFNJIDNF@network_unreachable?$AA@ 0000000180026f30     libcpmt:syserror.obj
 0002:00006f48       ??_C@_0BA@FDIJKJCL@no_buffer_space?$AA@ 0000000180026f48     libcpmt:syserror.obj
 0002:00006f58       ??_C@_0BD@JHIHCGKP@no_protocol_option?$AA@ 0000000180026f58     libcpmt:syserror.obj
 0002:00006f70       ??_C@_0O@GBCLHHD@not_connected?$AA@ 0000000180026f70     libcpmt:syserror.obj
 0002:00006f80       ??_C@_0N@IMHKKLEM@not_a_socket?$AA@ 0000000180026f80     libcpmt:syserror.obj
 0002:00006f90       ??_C@_0BI@ICEIDKLJ@operation_not_supported?$AA@ 0000000180026f90     libcpmt:syserror.obj
 0002:00006fa8       ??_C@_0BH@KAPBAIJF@protocol_not_supported?$AA@ 0000000180026fa8     libcpmt:syserror.obj
 0002:00006fc0       ??_C@_0BE@GAOJJFPC@wrong_protocol_type?$AA@ 0000000180026fc0     libcpmt:syserror.obj
 0002:00006fd8       ??_C@_09NCHNLHPG@timed_out?$AA@ 0000000180026fd8     libcpmt:syserror.obj
 0002:00006fe8       ??_C@_0BG@GDGHKFDH@operation_would_block?$AA@ 0000000180026fe8     libcpmt:syserror.obj
 0002:00007000       ??_C@_0BN@LKKBCCDB@address?5family?5not?5supported?$AA@ 0000000180027000     libcpmt:syserror.obj
 0002:00007020       ??_C@_0P@LDMLAFHI@address?5in?5use?$AA@ 0000000180027020     libcpmt:syserror.obj
 0002:00007030       ??_C@_0BG@DHPCNBJB@address?5not?5available?$AA@ 0000000180027030     libcpmt:syserror.obj
 0002:00007048       ??_C@_0BC@DFIBIBIL@already?5connected?$AA@ 0000000180027048     libcpmt:syserror.obj
 0002:00007060       ??_C@_0BH@CAKOHOMI@argument?5list?5too?5long?$AA@ 0000000180027060     libcpmt:syserror.obj
 0002:00007078       ??_C@_0BH@CGIMPKIM@argument?5out?5of?5domain?$AA@ 0000000180027078     libcpmt:syserror.obj
 0002:00007090       ??_C@_0M@KGHGGJGL@bad?5address?$AA@ 0000000180027090     libcpmt:syserror.obj
 0002:000070a0       ??_C@_0BE@MPJPGCEO@bad?5file?5descriptor?$AA@ 00000001800270a0     libcpmt:syserror.obj
 0002:000070b8       ??_C@_0M@PMMIEFCP@bad?5message?$AA@ 00000001800270b8     libcpmt:syserror.obj
 0002:000070c8       ??_C@_0M@KPHOFDBE@broken?5pipe?$AA@ 00000001800270c8     libcpmt:syserror.obj
 0002:000070d8       ??_C@_0BD@MGNDDEGM@connection?5aborted?$AA@ 00000001800270d8     libcpmt:syserror.obj
 0002:000070f0       ??_C@_0BP@KAIHPOGN@connection?5already?5in?5progress?$AA@ 00000001800270f0     libcpmt:syserror.obj
 0002:00007110       ??_C@_0BD@PJLIIJEL@connection?5refused?$AA@ 0000000180027110     libcpmt:syserror.obj
 0002:00007128       ??_C@_0BB@IECNJNOI@connection?5reset?$AA@ 0000000180027128     libcpmt:syserror.obj
 0002:00007140       ??_C@_0BN@KDMIFEIP@destination?5address?5required?$AA@ 0000000180027140     libcpmt:syserror.obj
 0002:00007160       ??_C@_0BI@BNCLIGPB@executable?5format?5error?$AA@ 0000000180027160     libcpmt:syserror.obj
 0002:00007178       ??_C@_0P@DNAJLBJK@file?5too?5large?$AA@ 0000000180027178     libcpmt:syserror.obj
 0002:00007188       ??_C@_0BB@DHFDFGDM@host?5unreachable?$AA@ 0000000180027188     libcpmt:syserror.obj
 0002:000071a0       ??_C@_0BD@JPHBMONG@identifier?5removed?$AA@ 00000001800271a0     libcpmt:syserror.obj
 0002:000071b8       ??_C@_0BG@CDNPAGJK@illegal?5byte?5sequence?$AA@ 00000001800271b8     libcpmt:syserror.obj
 0002:000071d0       ??_C@_0CD@BNPLBMNA@inappropriate?5io?5control?5operati@ 00000001800271d0     libcpmt:syserror.obj
 0002:000071f8       ??_C@_0N@OHAFKDEK@invalid?5seek?$AA@ 00000001800271f8     libcpmt:syserror.obj
 0002:00007208       ??_C@_0P@FLLDBIDK@is?5a?5directory?$AA@ 0000000180027208     libcpmt:syserror.obj
 0002:00007218       ??_C@_0N@IFLPBIOP@message?5size?$AA@ 0000000180027218     libcpmt:syserror.obj
 0002:00007228       ??_C@_0N@KIIEAAIO@network?5down?$AA@ 0000000180027228     libcpmt:syserror.obj
 0002:00007238       ??_C@_0O@FNPDBHEE@network?5reset?$AA@ 0000000180027238     libcpmt:syserror.obj
 0002:00007248       ??_C@_0BE@IFNCKGE@network?5unreachable?$AA@ 0000000180027248     libcpmt:syserror.obj
 0002:00007260       ??_C@_0BA@PFFCAOFK@no?5buffer?5space?$AA@ 0000000180027260     libcpmt:syserror.obj
 0002:00007270       ??_C@_0BB@IEPBLJHK@no?5child?5process?$AA@ 0000000180027270     libcpmt:syserror.obj
 0002:00007288       ??_C@_07PLECNNKG@no?5link?$AA@ 0000000180027288     libcpmt:syserror.obj
 0002:00007290       ??_C@_0BF@PBGGPKKE@no?5message?5available?$AA@ 0000000180027290     libcpmt:syserror.obj
 0002:000072a8       ??_C@_0L@EDOLMPAK@no?5message?$AA@ 00000001800272a8     libcpmt:syserror.obj
 0002:000072b8       ??_C@_0BD@EAMBFIDF@no?5protocol?5option?$AA@ 00000001800272b8     libcpmt:syserror.obj
 0002:000072d0       ??_C@_0BE@MKFDAFMP@no?5stream?5resources?$AA@ 00000001800272d0     libcpmt:syserror.obj
 0002:000072e8       ??_C@_0BK@IMCPHCBI@no?5such?5device?5or?5address?$AA@ 00000001800272e8     libcpmt:syserror.obj
 0002:00007308       ??_C@_0BA@ENLPPKBN@no?5such?5process?$AA@ 0000000180027308     libcpmt:syserror.obj
 0002:00007318       ??_C@_0BA@DOCPFFJG@not?5a?5directory?$AA@ 0000000180027318     libcpmt:syserror.obj
 0002:00007328       ??_C@_0N@POEIPGGF@not?5a?5socket?$AA@ 0000000180027328     libcpmt:syserror.obj
 0002:00007338       ??_C@_0N@LGAPMMPI@not?5a?5stream?$AA@ 0000000180027338     libcpmt:syserror.obj
 0002:00007348       ??_C@_0O@GLMIBBEG@not?5connected?$AA@ 0000000180027348     libcpmt:syserror.obj
 0002:00007358       ??_C@_0O@NHEDABJP@not?5supported?$AA@ 0000000180027358     libcpmt:syserror.obj
 0002:00007368       ??_C@_0BG@KDKHOPCO@operation?5in?5progress?$AA@ 0000000180027368     libcpmt:syserror.obj
 0002:00007380       ??_C@_0BI@OHIEJAAB@operation?5not?5permitted?$AA@ 0000000180027380     libcpmt:syserror.obj
 0002:00007398       ??_C@_0BI@LNEGIFLN@operation?5not?5supported?$AA@ 0000000180027398     libcpmt:syserror.obj
 0002:000073b0       ??_C@_0BG@OEMDKMEE@operation?5would?5block?$AA@ 00000001800273b0     libcpmt:syserror.obj
 0002:000073c8       ??_C@_0L@BLPOFLNJ@owner?5dead?$AA@ 00000001800273c8     libcpmt:syserror.obj
 0002:000073d8       ??_C@_0P@FNPOCJBE@protocol?5error?$AA@ 00000001800273d8     libcpmt:syserror.obj
 0002:000073e8       ??_C@_0BH@JPPPLHJB@protocol?5not?5supported?$AA@ 00000001800273e8     libcpmt:syserror.obj
 0002:00007400       ??_C@_0BG@EICBIHDP@read?5only?5file?5system?$AA@ 0000000180027400     libcpmt:syserror.obj
 0002:00007418       ??_C@_0BO@BJBOMOEJ@resource?5deadlock?5would?5occur?$AA@ 0000000180027418     libcpmt:syserror.obj
 0002:00007438       ??_C@_0BE@GOIPJJHG@result?5out?5of?5range?$AA@ 0000000180027438     libcpmt:syserror.obj
 0002:00007450       ??_C@_0BG@MPLKFPAE@state?5not?5recoverable?$AA@ 0000000180027450     libcpmt:syserror.obj
 0002:00007468       ??_C@_0P@DIIFGFCG@stream?5timeout?$AA@ 0000000180027468     libcpmt:syserror.obj
 0002:00007478       ??_C@_0P@IPFDMIFL@text?5file?5busy?$AA@ 0000000180027478     libcpmt:syserror.obj
 0002:00007488       ??_C@_09KJPPMAOI@timed?5out?$AA@ 0000000180027488     libcpmt:syserror.obj
 0002:00007498       ??_C@_0BO@HACHBEKI@too?5many?5files?5open?5in?5system?$AA@ 0000000180027498     libcpmt:syserror.obj
 0002:000074b8       ??_C@_0P@HCOMKFCC@too?5many?5links?$AA@ 00000001800274b8     libcpmt:syserror.obj
 0002:000074c8       ??_C@_0BO@EFGOJEF@too?5many?5symbolic?5link?5levels?$AA@ 00000001800274c8     libcpmt:syserror.obj
 0002:000074e8       ??_C@_0BA@KGKGOOJA@value?5too?5large?$AA@ 00000001800274e8     libcpmt:syserror.obj
 0002:000074f8       ??_C@_0BE@MIEJDDNH@wrong?5protocol?5type?$AA@ 00000001800274f8     libcpmt:syserror.obj
 0002:00007518       ??_7error_category@std@@6B@ 0000000180027518     libcpmt:syserror.obj
 0002:00007550       ??_7_Generic_error_category@std@@6B@ 0000000180027550     libcpmt:syserror.obj
 0002:00007588       ??_7_Iostream_error_category@std@@6B@ 0000000180027588     libcpmt:syserror.obj
 0002:000075c0       ??_7_System_error_category@std@@6B@ 00000001800275c0     libcpmt:syserror.obj
 0002:000075f8       ??_7logic_error@std@@6B@   00000001800275f8     libcpmt:xthrow.obj
 0002:00007610       ??_7length_error@std@@6B@  0000000180027610     libcpmt:xthrow.obj
 0002:00007628       ??_7out_of_range@std@@6B@  0000000180027628     libcpmt:xthrow.obj
 0002:00007638       ??_C@_1DC@DEGGFONF@?$AAS?$AAO?$AAF?$AAT?$AAW?$AAA?$AAR?$AAE?$AA?2?$AAB?$AAr?$AAo?$AAa?$AAd?$AAc?$AAo?$AAm?$AA?2?$AA8?$AA0?$AA2?$AA?4?$AA1?$AA1?$AA?$AA@ 0000000180027638     ihv_common.obj
 0002:00007670       ??_C@_1BG@EKMJHKHH@?$AAE?$AAn?$AAa?$AAb?$AAl?$AAe?$AAW?$AAa?$AAp?$AAi?$AA?$AA@ 0000000180027670     ihv_common.obj
 0002:00007688       ??_C@_1BE@NANFONAM@?$AAE?$AAn?$AAa?$AAb?$AAl?$AAe?$AAC?$AAC?$AAX?$AA?$AA@ 0000000180027688     ihv_common.obj
 0002:000076a0       ??_C@_1O@CFHDMFPL@?$AAV?$AA4?$AAO?$AAn?$AAl?$AAy?$AA?$AA@ 00000001800276a0     ihv_common.obj
 0002:000076b0       ??_C@_1BK@BFMCNHEO@?$AAC?$AAo?$AAm?$AAc?$AAt?$AAl?$AA3?$AA2?$AA?4?$AAd?$AAl?$AAl?$AA?$AA@ 00000001800276b0     CCXDllMain.obj
 0002:000076d0       ??_C@_1BI@BFGAAKIP@?$AAc?$AAo?$AAn?$AAn?$AAe?$AAc?$AAt?$AA?4?$AAd?$AAl?$AAl?$AA?$AA@ 00000001800276d0     CCXDllMain.obj
 0002:000076e8       ??_C@_0BF@KGNPMLGG@RegisterPageWithPage?$AA@ 00000001800276e8     CCXDllMain.obj
 0002:00007700       ??_C@_0P@HMPLLAMG@UnregisterPage?$AA@ 0000000180027700     CCXDllMain.obj
 0002:00007710       ??_C@_1M@KANJNLFF@?$AAC?$AAL?$AAS?$AAI?$AAD?$AA?$AA@ 0000000180027710     CCXDllMain.obj
 0002:00007720       ??_C@_1BO@MNKPAJEP@?$AAI?$AAn?$AAp?$AAr?$AAo?$AAc?$AAS?$AAe?$AAr?$AAv?$AAe?$AAr?$AA3?$AA2?$AA?$AA@ 0000000180027720     CCXDllMain.obj
 0002:00007740       ??_C@_11LOCGONAA@?$AA?$AA@ 0000000180027740     CCXDllMain.obj
 0002:00007748       ??_C@_19OBNAGCDI@?$AAB?$AAo?$AAt?$AAh?$AA?$AA@ 0000000180027748     CCXDllMain.obj
 0002:00007758       ??_C@_1BO@NMEHGCBD@?$AAT?$AAh?$AAr?$AAe?$AAa?$AAd?$AAi?$AAn?$AAg?$AAM?$AAo?$AAd?$AAe?$AAl?$AA?$AA@ 0000000180027758     CCXDllMain.obj
 0002:00007778       ??_C@_13EHOOFIKC@?$AA?$HN?$AA?$AA@ 0000000180027778     CCXDllMain.obj
 0002:0000777c       ??_C@_13GCIFAHHO@?$AA?$HL?$AA?$AA@ 000000018002777c     CCXDllMain.obj
 0002:00007780       ?debugString@?4??IsolationAwarePrivatenPgViNgRzlnPgpgk@@9@4QBDB 0000000180027780     CCXDllMain.obj
 0002:000077c8       ??_7CFactory@@6B@          00000001800277c8     CCXDllMain.obj
 0002:000077f0       IID_ICCXExtUICon           00000001800277f0     CCXExtUI.obj
 0002:00007800       IID_IExtUISec              0000000180027800     CCXExtUI.obj
 0002:00007810       IID_IDot11ExtUI            0000000180027810     CCXExtUI.obj
 0002:00007820       IID_ICCXExtUIKey           0000000180027820     CCXExtUI.obj
 0002:000078f8       ?szXmlEmptyDPTDoc@@3PEB_WEB 00000001800278f8     DPTProfile.obj
 0002:00007908       ?szXmlEmptyConnDoc@@3PEB_WEB 0000000180027908     CCXProfile.obj
 0002:00007968       ??_C@_0BJ@FAHHFKOJ@CreatePropertySheetPageW?$AA@ 0000000180027968     CCXExtUI.obj
 0002:00007988       ??_C@_07DCLBNMLN@generic?$AA@ 0000000180027988     CCXExtUI.obj
 0002:00007990       ??_C@_0O@BFJCFAAK@unknown?5error?$AA@ 0000000180027990     CCXExtUI.obj
 0002:000079a0       ??_C@_08LLGCOLLL@iostream?$AA@ 00000001800279a0     CCXExtUI.obj
 0002:000079b0       ??_C@_0BG@PADBLCHM@iostream?5stream?5error?$AA@ 00000001800279b0     CCXExtUI.obj
 0002:000079c8       ??_C@_06FHFOAHML@system?$AA@ 00000001800279c8     CCXExtUI.obj
 0002:000079d0       ??_C@_19EIBINHIL@?$AAW?$AAA?$AAP?$AAI?$AA?$AA@ 00000001800279d0     CCXExtUI.obj
 0002:000079e0       ??_C@_1BC@MOLJOJPK@?$AAW?$AAA?$AAP?$AAI?$AA?9?$AAP?$AAS?$AAK?$AA?$AA@ 00000001800279e0     CCXExtUI.obj
 0002:000079f8       ??_C@_19LJDFFCJJ@?$AA?$CF?$AAs?$AA?$CF?$AAs?$AA?$AA@ 00000001800279f8     CCXExtUI.obj
 0002:00007a08       ??_C@_19MCALJEGL@?$AAC?$AAC?$AAK?$AAM?$AA?$AA@ 0000000180027a08     CCXExtUI.obj
 0002:00007a18       ??_C@_1O@FADBFBHM@?$AA?$CI?$AAW?$AAP?$AAA?$AA2?$AA?$CJ?$AA?$AA@ 0000000180027a18     CCXExtUI.obj
 0002:00007a28       ??_C@_1M@INMHMDBM@?$AA?$CI?$AAW?$AAP?$AAA?$AA?$CJ?$AA?$AA@ 0000000180027a28     CCXExtUI.obj
 0002:00007a38       ??_C@_1BG@KIBDDKGG@?$AAO?$AAp?$AAe?$AAn?$AA?5?$AA?$CI?$AAC?$AAC?$AAX?$AA?$CJ?$AA?$AA@ 0000000180027a38     CCXExtUI.obj
 0002:00007a50       ??_C@_17FBKGEODE@?$AAW?$AAE?$AAP?$AA?$AA@ 0000000180027a50     CCXExtUI.obj
 0002:00007a58       ??_C@_1BE@GOFPNGGM@?$AAW?$AAE?$AAP?$AA?5?$AA?$CI?$AAC?$AAC?$AAX?$AA?$CJ?$AA?$AA@ 0000000180027a58     CCXExtUI.obj
 0002:00007a70       ??_C@_19DLCHDLAG@?$AAT?$AAK?$AAI?$AAP?$AA?$AA@ 0000000180027a70     CCXExtUI.obj
 0002:00007a80       ??_C@_1BG@GDMIFFPJ@?$AAT?$AAK?$AAI?$AAP?$AA?5?$AA?$CI?$AAM?$AAF?$AAP?$AA?$CJ?$AA?$AA@ 0000000180027a80     CCXExtUI.obj
 0002:00007a98       ??_C@_17PJMHNJHG@?$AAA?$AAE?$AAS?$AA?$AA@ 0000000180027a98     CCXExtUI.obj
 0002:00007aa0       ??_C@_1BE@JJAIOINE@?$AAA?$AAE?$AAS?$AA?5?$AA?$CI?$AAM?$AAF?$AAP?$AA?$CJ?$AA?$AA@ 0000000180027aa0     CCXExtUI.obj
 0002:00007ab8       ??_C@_19KLMLHLJG@?$AAN?$AAo?$AAn?$AAe?$AA?$AA@ 0000000180027ab8     CCXExtUI.obj
 0002:00007ac8       ??_C@_1BG@IEGONNHB@?$AAN?$AAo?$AAn?$AAe?$AA?5?$AA?$CI?$AAC?$AAC?$AAX?$AA?$CJ?$AA?$AA@ 0000000180027ac8     CCXExtUI.obj
 0002:00007ae0       ??_C@_19JJNGIFB@?$AAS?$AAM?$AAS?$AA4?$AA?$AA@ 0000000180027ae0     CCXExtUI.obj
 0002:00007af0       ??_C@_1EG@LAHNOEPI@?$AAC?$AAC?$AAX?$AA?5?$AAC?$AAo?$AAn?$AAn?$AAe?$AAc?$AAt?$AAi?$AAv?$AAi?$AAt?$AAy?$AA?5?$AAS?$AAe?$AAt?$AAt?$AAi?$AAn?$AAg?$AAs?$AA?5?$AA?$CI?$AAS?$AAa?$AAm?$AAp?$AAl@ 0000000180027af0     CCXExtUI.obj
 0002:00007b38       ??_C@_1CM@JAOJGJLA@?$AAB?$AAr?$AAc?$AAm?$AAP?$AAr?$AAo?$AAf?$AAi?$AAl?$AAe?$AAC?$AAo?$AAm?$AAp?$AAa?$AAt?$AAi?$AAb?$AAl?$AAe?$AA?$AA@ 0000000180027b38     CCXExtUI.obj
 0002:00007b70       ??_C@_1BC@KAEDDHJA@?$AAB?$AAr?$AAo?$AAa?$AAd?$AAc?$AAo?$AAm?$AA?$AA@ 0000000180027b70     CCXExtUI.obj
 0002:00007b84       ??_C@_13GEEGGHPK@?$AA?$DM?$AA?$AA@ 0000000180027b84     CCXExtUI.obj
 0002:00007b88       ??_C@_1BK@OOENDKCL@?$AA?5?$AAx?$AAm?$AAl?$AAn?$AAs?$AA?$DN?$AA?$CC?$AAv?$AA1?$AA?$CC?$AA?$DO?$AA?$AA@ 0000000180027b88     CCXExtUI.obj
 0002:00007ba4       ??_C@_15MFNECGOC@?$AA?$DM?$AA?1?$AA?$AA@ 0000000180027ba4     CCXExtUI.obj
 0002:00007bac       ??_C@_13MOEPKPHB@?$AA?$DO?$AA?$AA@ 0000000180027bac     CCXExtUI.obj
 0002:00007bb0       ??_C@_17LKLKLKBH@?$AAC?$AAC?$AAX?$AA?$AA@ 0000000180027bb0     CCXExtUI.obj
 0002:00007bb8       ??_C@_0BA@JFNIOLAK@string?5too?5long?$AA@ 0000000180027bb8     CCXExtUI.obj
 0002:00007bc8       ??_C@_0BI@CFPLBAOH@invalid?5string?5position?$AA@ 0000000180027bc8     CCXExtUI.obj
 0002:00007be8       ??_7WapiCertPropertyDlg@@6B@ 0000000180027be8     CCXExtUI.obj
 0002:00007c48       ?c_szThisPointer@?1???$GetThis@VCExtUI@@@@YAPEAVCExtUI@@PEAUHWND__@@I_K_J@Z@4QB_WB 0000000180027c48     CCXExtUI.obj
 0002:00007c68       ?c@?1??PrshtIsolationAwarePrivatetRgCebPnQQeRff_pbZPgYQP_QYY@@9@4UIsolationAwarePrivate_pBAFGnAG_zBqHyr_vAsB@@B 0000000180027c68     CCXExtUI.obj
 0002:00007c80       ??_7CExtUISec@@6B@         0000000180027c80     CCXExtUI.obj
 0002:00007ce0       ??_7WapiCertPropDlg@@6B@   0000000180027ce0     CCXExtUI.obj
 0002:00007d48       ??_7WapiKeyInputDlg@@6B@   0000000180027d48     CCXExtUI.obj
 0002:00007dc8       ??_7WapiKeyInputPropDlg@@6B@ 0000000180027dc8     CCXExtUI.obj
 0002:00007e48       ??_7CExtUICon@@6B@         0000000180027e48     CCXExtUI.obj
 0002:00007ea8       ??_7CExtUIKey@@6B@         0000000180027ea8     CCXExtUI.obj
 0002:00007f10       ??_7CExtUI@@6BIObjectWithSite@@@ 0000000180027f10     CCXExtUI.obj
 0002:00007f40       ??_7CExtUI@@6BIWizardExtension@@@ 0000000180027f40     CCXExtUI.obj
 0002:00007f78       ??_7CExtUI@@6BIDot11ExtUI@@@ 0000000180027f78     CCXExtUI.obj
 0002:00007fb0       ??_7ConnConfigDlg@@6B@     0000000180027fb0     ConnConfigDlg.obj
 0002:00008030       ??_C@_1O@BCHEJMCL@?$AA?$DM?$AAD?$AAP?$AAT?$AA?1?$AA?$DO?$AA?$AA@ 0000000180028030     DPTProfile.obj
 0002:00008040       ??_C@_1CC@KENOEFHJ@?$AAu?$AAs?$AAe?$AAD?$AAP?$AAT?$AAP?$AAr?$AAi?$AAv?$AAa?$AAt?$AAe?$AAK?$AAe?$AAy?$AA?$AA@ 0000000180028040     DPTProfile.obj
 0002:00008068       ??_C@_19FKLFLPMF@?$AAt?$AAr?$AAu?$AAe?$AA?$AA@ 0000000180028068     DPTProfile.obj
 0002:00008078       ??_C@_1BM@IEDNOGHI@?$AAD?$AAP?$AAT?$AAP?$AAr?$AAi?$AAv?$AAa?$AAt?$AAe?$AAK?$AAe?$AAy?$AA?$AA@ 0000000180028078     DPTProfile.obj
 0002:00008098       ??_C@_1BM@NKIAJOKH@?$AAD?$AAP?$AAT?$AAE?$AAn?$AAc?$AAr?$AAy?$AAp?$AAt?$AAi?$AAo?$AAn?$AA?$AA@ 0000000180028098     DPTProfile.obj
 0002:000080b8       ??_C@_17HPOLHMID@?$AAD?$AAP?$AAT?$AA?$AA@ 00000001800280b8     DPTProfile.obj
 0002:000080c0       ??_C@_19EHBFJDMB@?$AA?1?$AAD?$AAP?$AAT?$AA?$AA@ 00000001800280c0     DPTProfile.obj
 0002:000080d0       ??_C@_1M@HLGKFCJM@?$AAf?$AAa?$AAl?$AAs?$AAe?$AA?$AA@ 00000001800280d0     DPTProfile.obj
 0002:000080e0       ??_C@_1M@OEMBAFAN@?$AAd?$AAp?$AAt?$AAv?$AA1?$AA?$AA@ 00000001800280e0     DPTProfile.obj
 0002:000080f0       ??_C@_1M@EOEFJFPG@?$AAx?$AAm?$AAl?$AAn?$AAs?$AA?$AA@ 00000001800280f0     DPTProfile.obj
 0002:00008100       ??_C@_19HHMHINIL@?$AA?$CF?$AA0?$AA2?$AAX?$AA?$AA@ 0000000180028100     DPTProfile.obj
 0002:00008110       ??_C@_1CO@MGCOKNGF@?$AA1?$AA2?$AA3?$AA4?$AA5?$AA6?$AA7?$AA8?$AA9?$AA0?$AAa?$AAb?$AAc?$AAd?$AAe?$AAf?$AAA?$AAB?$AAC?$AAD?$AAE?$AAF?$AA?$AA@ 0000000180028110     DPTProfile.obj
 0002:00008140       _GUID_2933bf81_7b36_11d2_b20e_00c04f983e60 0000000180028140     DPTProfile.obj
 0002:00008150       _GUID_2933bf90_7b36_11d2_b20e_00c04f983e60 0000000180028150     DPTProfile.obj
 0002:00008160       ??_C@_1JM@LILAJAPD@?$AAS?$AAy?$AAs?$AAt?$AAe?$AAm?$AA?2?$AAC?$AAu?$AAr?$AAr?$AAe?$AAn?$AAt?$AAC?$AAo?$AAn?$AAt?$AAr?$AAo?$AAl?$AAS?$AAe?$AAt?$AA?2?$AAC?$AAo?$AAn?$AAt?$AAr?$AAo?$AAl@ 0000000180028160     DriverRegW.obj
 0002:00008200       ??_C@_1CC@NNLCDFKF@?$AAN?$AAe?$AAt?$AAC?$AAf?$AAg?$AAI?$AAn?$AAs?$AAt?$AAa?$AAn?$AAc?$AAe?$AAI?$AAd?$AA?$AA@ 0000000180028200     DriverRegW.obj
 0002:00008224       ??_C@_13FPGAJAPJ@?$AA?2?$AA?$AA@ 0000000180028224     DriverRegW.obj
 0002:00008228       ??_C@_1BE@NICFKBLE@?$AAD?$AAP?$AAT?$AAE?$AAn?$AAa?$AAb?$AAl?$AAe?$AA?$AA@ 0000000180028228     DriverRegW.obj
 0002:00008240       ??_C@_1M@LFAJMODK@?$AA?4?$AA?4?$AA?4?$AA?4?$AA?4?$AA?$AA@ 0000000180028240     i18nW.obj
 0002:0000824c       ??_C@_13JOFGPIOO@?$AA?4?$AA?$AA@ 000000018002824c     i18nW.obj
 0002:00008250       ??_C@_1O@ECDFCEKO@?$AAS?$AAt?$AAa?$AAt?$AAi?$AAc?$AA?$AA@ 0000000180028250     i18nW.obj
 0002:00008260       ??_C@_17LGKOMLJ@?$AA?4?$AA?4?$AA?4?$AA?$AA@ 0000000180028260     i18nW.obj
 0002:00008268       ??_C@_1BO@HJOCLKCK@?$AA?$DM?$AAu?$AAn?$AAt?$AAr?$AAa?$AAn?$AAs?$AAl?$AAa?$AAt?$AAe?$AAd?$AA?$DO?$AA?$AA@ 0000000180028268     i18nW.obj
 0002:00008290       ??_C@_1MK@KFKGIGKH@?$AA?4?$AA?4?$AA?4?$AA?4?$AA?4?$AA?4?$AA?4?$AA?4?$AA?4?$AA?4?$AA?4?$AA?4?$AA?4?$AA?4?$AA?4?$AA?4?$AA?4?$AA?4?$AA?4?$AA?4?$AA?4?$AA?4?$AA?4?$AA?4?$AA?4?$AA?4?$AA?4?$AA?4?$AA?4?$AA?4?$AA?4?$AA?4@ 0000000180028290     i18nW.obj
 0002:00008360       ??_C@_1BK@MGMFAEKH@?$AAk?$AAe?$AAr?$AAn?$AAe?$AAl?$AA3?$AA2?$AA?4?$AAd?$AAl?$AAl?$AA?$AA@ 0000000180028360     i18nW.obj
 0002:00008380       ??_C@_0BJ@DKKDGADA@GetUserDefaultUILanguage?$AA@ 0000000180028380     i18nW.obj
 0002:000083a0       ??_C@_0BE@JONHPENG@map?1set?$DMT?$DO?5too?5long?$AA@ 00000001800283a0     i18nW.obj
 0002:000083b8       ??_C@_1CO@DKIKAOPP@?$AA0?$AA1?$AA2?$AA3?$AA4?$AA5?$AA6?$AA7?$AA8?$AA9?$AAa?$AAb?$AAc?$AAd?$AAe?$AAf?$AAA?$AAB?$AAC?$AAD?$AAE?$AAF?$AA?$AA@ 00000001800283b8     PasswordValidationW.obj
 0002:000083e8       ??_C@_17JPEHGDF@?$AAP?$AAS?$AAK?$AA?$AA@ 00000001800283e8     CCXProfile.obj
 0002:000083f0       ??_C@_1BG@CEPBJHAK@?$AAC?$AAe?$AAr?$AAt?$AAH?$AAa?$AAs?$AAh?$AAI?$AAd?$AA?$AA@ 00000001800283f0     CCXProfile.obj
 0002:00008408       ??_C@_19BDAJEHDN@?$AAo?$AAp?$AAe?$AAn?$AA?$AA@ 0000000180028408     CCXProfile.obj
 0002:00008418       ??_C@_19NDLOFPOF@?$AAc?$AAc?$AAk?$AAm?$AA?$AA@ 0000000180028418     CCXProfile.obj
 0002:00008428       ??_C@_17LEPACFLI@?$AAw?$AAp?$AAa?$AA?$AA@ 0000000180028428     CCXProfile.obj
 0002:00008430       ??_C@_19DNDKHECN@?$AAw?$AAp?$AAa?$AA2?$AA?$AA@ 0000000180028430     CCXProfile.obj
 0002:00008440       ??_C@_19FJKNBMAF@?$AAw?$AAa?$AAp?$AAi?$AA?$AA@ 0000000180028440     CCXProfile.obj
 0002:00008450       ??_C@_1BA@OEHAKBCK@?$AAw?$AAa?$AAp?$AAi?$AAp?$AAs?$AAk?$AA?$AA@ 0000000180028450     CCXProfile.obj
 0002:00008460       ??_C@_1BI@EGLGMNII@?$AA?$DM?$AAB?$AAr?$AAo?$AAa?$AAd?$AAc?$AAo?$AAm?$AA?1?$AA?$DO?$AA?$AA@ 0000000180028460     CCXProfile.obj
 0002:00008478       ??_C@_1O@PNNKFKAA@?$AA?$DM?$AAC?$AAC?$AAX?$AA?1?$AA?$DO?$AA?$AA@ 0000000180028478     CCXProfile.obj
 0002:00008488       ??_C@_1BI@OADCJAOH@?$AAo?$AAp?$AAe?$AAn?$AAN?$AAe?$AAt?$AAw?$AAo?$AAr?$AAk?$AA?$AA@ 0000000180028488     CCXProfile.obj
 0002:000084a0       ??_C@_1CM@LGDGFNDJ@?$AAa?$AAu?$AAt?$AAh?$AAe?$AAn?$AAt?$AAi?$AAc?$AAa?$AAt?$AAi?$AAn?$AAg?$AAN?$AAe?$AAt?$AAw?$AAo?$AAr?$AAk?$AA?$AA@ 00000001800284a0     CCXProfile.obj
 0002:000084d0       ??_C@_1CC@NPADAOEA@?$AAs?$AAh?$AAa?$AAr?$AAe?$AAd?$AAK?$AAe?$AAy?$AAN?$AAe?$AAt?$AAw?$AAo?$AAr?$AAk?$AA?$AA@ 00000001800284d0     CCXProfile.obj
 0002:000084f8       ??_C@_1BG@EPNHFONF@?$AAe?$AAn?$AAc?$AAr?$AAy?$AAp?$AAt?$AAi?$AAo?$AAn?$AA?$AA@ 00000001800284f8     CCXProfile.obj
 0002:00008510       ??_C@_1BG@IMHBEDDM@?$AAc?$AAr?$AAe?$AAd?$AAe?$AAn?$AAt?$AAi?$AAa?$AAl?$AA?$AA@ 0000000180028510     CCXProfile.obj
 0002:00008528       ??_C@_1BE@PJHKNDNO@?$AAp?$AAr?$AAo?$AAt?$AAe?$AAc?$AAt?$AAe?$AAd?$AA?$AA@ 0000000180028528     CCXProfile.obj
 0002:00008540       ??_C@_19FHBCDCCA@?$AAt?$AAy?$AAp?$AAe?$AA?$AA@ 0000000180028540     CCXProfile.obj
 0002:00008550       ??_C@_19MLBBEMBH@?$AAd?$AAa?$AAt?$AAa?$AA?$AA@ 0000000180028550     CCXProfile.obj
 0002:00008560       ??_C@_17KCFFABIP@?$AAa?$AAn?$AAy?$AA?$AA@ 0000000180028560     CCXProfile.obj
 0002:00008570       ??_C@_1CG@JIGKPIAM@?$AAD?$AAi?$AAa?$AAg?$AAn?$AAo?$AAs?$AAt?$AAi?$AAc?$AA?5?$AAC?$AAh?$AAa?$AAn?$AAn?$AAe?$AAl?$AA?$AA@ 0000000180028570     CCXProfile.obj
 0002:00008598       ??_C@_19ICEEFFFF@?$AA?1?$AAC?$AAC?$AAX?$AA?$AA@ 0000000180028598     CCXProfile.obj
 0002:000085a8       ??_C@_1CE@HFDBFCLM@?$AA?1?$AAR?$AAa?$AAd?$AAi?$AAo?$AAM?$AAe?$AAa?$AAs?$AAu?$AAr?$AAe?$AAm?$AAe?$AAn?$AAt?$AA?$AA@ 00000001800285a8     CCXProfile.obj
 0002:000085d0       ??_C@_1CC@GLBFNMPN@?$AAR?$AAa?$AAd?$AAi?$AAo?$AAM?$AAe?$AAa?$AAs?$AAu?$AAr?$AAe?$AAm?$AAe?$AAn?$AAt?$AA?$AA@ 00000001800285d0     CCXProfile.obj
 0002:000085f8       ??_C@_1BC@LGPIFEA@?$AAd?$AAi?$AAs?$AAa?$AAb?$AAl?$AAe?$AAd?$AA?$AA@ 00000001800285f8     CCXProfile.obj
 0002:00008610       ??_C@_1BA@BKMGIBPB@?$AAe?$AAn?$AAa?$AAb?$AAl?$AAe?$AAd?$AA?$AA@ 0000000180028610     CCXProfile.obj
 0002:00008620       ??_C@_1DK@HFGNELOO@?$AAd?$AAi?$AAs?$AAa?$AAb?$AAl?$AAe?$AAL?$AAo?$AAc?$AAa?$AAt?$AAi?$AAo?$AAn?$AAB?$AAa?$AAs?$AAe?$AAd?$AAS?$AAe?$AAr?$AAv?$AAi?$AAc?$AAe?$AAs?$AA?$AA@ 0000000180028620     CCXProfile.obj
 0002:00008660       ??_C@_1CI@FMHKELII@?$AAM?$AAa?$AAx?$AAO?$AAf?$AAf?$AAC?$AAh?$AAa?$AAn?$AAn?$AAe?$AAl?$AAT?$AAi?$AAm?$AAe?$AAM?$AAs?$AA?$AA@ 0000000180028660     CCXProfile.obj
 0002:00008688       ??_C@_1CG@BKLHHPEF@?$AAM?$AAi?$AAn?$AAO?$AAn?$AAC?$AAh?$AAa?$AAn?$AAn?$AAe?$AAl?$AAT?$AAi?$AAm?$AAe?$AAM?$AAs?$AA?$AA@ 0000000180028688     CCXProfile.obj
 0002:000086b0       ??_C@_1CA@OEOOIBBJ@?$AA?1?$AAK?$AAe?$AAe?$AAp?$AAA?$AAl?$AAi?$AAv?$AAe?$AAT?$AAi?$AAm?$AAe?$AAr?$AA?$AA@ 00000001800286b0     CCXProfile.obj
 0002:000086d0       ??_C@_1BO@JMNDBBBC@?$AAK?$AAe?$AAe?$AAp?$AAA?$AAl?$AAi?$AAv?$AAe?$AAT?$AAi?$AAm?$AAe?$AAr?$AA?$AA@ 00000001800286d0     CCXProfile.obj
 0002:000086f0       ??_C@_1O@MJEAGFFD@?$AAP?$AAe?$AAr?$AAi?$AAo?$AAd?$AA?$AA@ 00000001800286f0     CCXProfile.obj
 0002:00008700       ??_C@_1CK@PHPPAOBG@?$AA?1?$AAD?$AAi?$AAa?$AAg?$AAn?$AAo?$AAs?$AAt?$AAi?$AAc?$AAs?$AA?1?$AAC?$AAh?$AAa?$AAn?$AAn?$AAe?$AAl?$AA?$AA@ 0000000180028700     CCXProfile.obj
 0002:00008730       ??_C@_1BC@GJMLKOJP@?$AAS?$AAS?$AAI?$AAD?$AA?1?$AAH?$AAe?$AAx?$AA?$AA@ 0000000180028730     CCXProfile.obj
 0002:00008748       ??_C@_1BE@BBAAJLFF@?$AAS?$AAS?$AAI?$AAD?$AA?1?$AAN?$AAa?$AAm?$AAe?$AA?$AA@ 0000000180028748     CCXProfile.obj
 0002:00008760       ??_C@_1CM@HIDJEJNH@?$AAE?$AAn?$AAa?$AAb?$AAl?$AAe?$AAC?$AAl?$AAi?$AAe?$AAn?$AAt?$AAR?$AAe?$AAp?$AAo?$AAr?$AAt?$AAi?$AAn?$AAg?$AA?$AA@ 0000000180028760     CCXProfile.obj
 0002:00008790       ??_C@_1DO@OABJNOHB@?$AA?1?$AAD?$AAi?$AAa?$AAg?$AAn?$AAo?$AAs?$AAt?$AAi?$AAc?$AAs?$AA?1?$AAA?$AAu?$AAt?$AAh?$AAo?$AAr?$AAi?$AAz?$AAe?$AAd?$AAP?$AAr?$AAo?$AAf?$AAi?$AAl?$AAe?$AA?$AA@ 0000000180028790     CCXProfile.obj
 0002:000087d0       ??_C@_1CE@NPLKMCGI@?$AAA?$AAu?$AAt?$AAh?$AAo?$AAr?$AAi?$AAz?$AAe?$AAd?$AAP?$AAr?$AAo?$AAf?$AAi?$AAl?$AAe?$AA?$AA@ 00000001800287d0     CCXProfile.obj
 0002:000087f8       ??_C@_1BI@OEGKFEJN@?$AAD?$AAi?$AAa?$AAg?$AAn?$AAo?$AAs?$AAt?$AAi?$AAc?$AAs?$AA?$AA@ 00000001800287f8     CCXProfile.obj
 0002:00008810       ??_C@_1BA@DLAHBHMC@?$AAC?$AAh?$AAa?$AAn?$AAn?$AAe?$AAl?$AA?$AA@ 0000000180028810     CCXProfile.obj
 0002:00008820       ??_C@_19KJNOMKCJ@?$AAS?$AAS?$AAI?$AAD?$AA?$AA@ 0000000180028820     CCXProfile.obj
 0002:00008830       ??_C@_17JGBHOPFE@?$AAH?$AAe?$AAx?$AA?$AA@ 0000000180028830     CCXProfile.obj
 0002:00008874       ??_C@_15ELPOAHMG@?$AAM?$AAY?$AA?$AA@ 0000000180028874     CertPropertyDlg.obj
 0002:00008880       ??_C@_19OLEIDBPB@?$AAR?$AAO?$AAO?$AAT?$AA?$AA@ 0000000180028880     CertPropertyDlg.obj
 0002:00008890       ??_C@_1BI@DMNJOGOO@?$AAc?$AAr?$AAy?$AAp?$AAt?$AAu?$AAi?$AA?4?$AAd?$AAl?$AAl?$AA?$AA@ 0000000180028890     CertPropertyDlg.obj
 0002:000088a8       ??_C@_0BN@HNMKKPHI@CryptUIDlgSelectCertificateW?$AA@ 00000001800288a8     CertPropertyDlg.obj
 0002:000088d0       ??_7CertPropertyDlg@@6B@   00000001800288d0     CertPropertyDlg.obj
 0002:00008930       ??_C@_1BC@OJDDGHBH@?$AAD?$AAu?$AAm?$AAm?$AAy?$AA1?$AA2?$AA3?$AA?$AA@ 0000000180028930     KeyInputDlgW.obj
 0002:00008944       ??_C@_15KNBIKKIN@?$AA?$CF?$AAd?$AA?$AA@ 0000000180028944     KeyInputDlgW.obj
 0002:00008958       ??_7KeyInputDlg@@6B@       0000000180028958     KeyInputDlgW.obj
 0002:000089d0       __xmm@ffffffff00000000ffffffffffffffff 00000001800289d0     ihv_common.obj
 0002:00008f20       _load_config_used          0000000180028f20     LIBCMT:loadcfg.obj
 0002:00009040       ??_R4type_info@@6B@        0000000180029040     LIBCMT:typinfo.obj
 0002:00009068       ??_R3type_info@@8          0000000180029068     LIBCMT:typinfo.obj
 0002:00009080       ??_R2type_info@@8          0000000180029080     LIBCMT:typinfo.obj
 0002:00009090       ??_R1A@?0A@EA@type_info@@8 0000000180029090     LIBCMT:typinfo.obj
 0002:000090b8       ??_R1A@?0A@EA@exception@std@@8 00000001800290b8     LIBCMT:new.obj
 0002:000090e0       ??_R3exception@std@@8      00000001800290e0     LIBCMT:new.obj
 0002:000090f8       ??_R2exception@std@@8      00000001800290f8     LIBCMT:new.obj
 0002:00009108       ??_R4bad_alloc@std@@6B@    0000000180029108     LIBCMT:new.obj
 0002:00009130       ??_R3bad_alloc@std@@8      0000000180029130     LIBCMT:new.obj
 0002:00009148       ??_R2bad_alloc@std@@8      0000000180029148     LIBCMT:new.obj
 0002:00009160       ??_R1A@?0A@EA@bad_alloc@std@@8 0000000180029160     LIBCMT:new.obj
 0002:00009188       ??_R4exception@std@@6B@    0000000180029188     LIBCMT:stdexcpt.obj
 0002:000091b0       ??_R4bad_exception@std@@6B@ 00000001800291b0     LIBCMT:frame.obj
 0002:000091d8       ??_R3bad_exception@std@@8  00000001800291d8     LIBCMT:frame.obj
 0002:000091f0       ??_R2bad_exception@std@@8  00000001800291f0     LIBCMT:frame.obj
 0002:00009208       ??_R1A@?0A@EA@bad_exception@std@@8 0000000180029208     LIBCMT:frame.obj
 0002:00009230       ??_R4logic_error@std@@6B@  0000000180029230     libcpmt:xthrow.obj
 0002:00009258       ??_R3logic_error@std@@8    0000000180029258     libcpmt:xthrow.obj
 0002:00009270       ??_R2logic_error@std@@8    0000000180029270     libcpmt:xthrow.obj
 0002:00009288       ??_R1A@?0A@EA@logic_error@std@@8 0000000180029288     libcpmt:xthrow.obj
 0002:000092b0       ??_R4length_error@std@@6B@ 00000001800292b0     libcpmt:xthrow.obj
 0002:000092d8       ??_R3length_error@std@@8   00000001800292d8     libcpmt:xthrow.obj
 0002:000092f0       ??_R2length_error@std@@8   00000001800292f0     libcpmt:xthrow.obj
 0002:00009310       ??_R1A@?0A@EA@length_error@std@@8 0000000180029310     libcpmt:xthrow.obj
 0002:00009338       ??_R4out_of_range@std@@6B@ 0000000180029338     libcpmt:xthrow.obj
 0002:00009360       ??_R3out_of_range@std@@8   0000000180029360     libcpmt:xthrow.obj
 0002:00009378       ??_R2out_of_range@std@@8   0000000180029378     libcpmt:xthrow.obj
 0002:00009398       ??_R1A@?0A@EA@out_of_range@std@@8 0000000180029398     libcpmt:xthrow.obj
 0002:000093c0       ??_R2CFactory@@8           00000001800293c0     CCXDllMain.obj
 0002:000093e0       ??_R1A@?0A@EA@IUnknown@@8  00000001800293e0     CCXDllMain.obj
 0002:00009408       ??_R3IUnknown@@8           0000000180029408     CCXDllMain.obj
 0002:00009420       ??_R1A@?0A@EA@IClassFactory@@8 0000000180029420     CCXDllMain.obj
 0002:00009448       ??_R2IUnknown@@8           0000000180029448     CCXDllMain.obj
 0002:00009458       ??_R1A@?0A@EA@CFactory@@8  0000000180029458     CCXDllMain.obj
 0002:00009480       ??_R2IClassFactory@@8      0000000180029480     CCXDllMain.obj
 0002:00009498       ??_R3CFactory@@8           0000000180029498     CCXDllMain.obj
 0002:000094b0       ??_R4CFactory@@6B@         00000001800294b0     CCXDllMain.obj
 0002:000094d8       ??_R3IClassFactory@@8      00000001800294d8     CCXDllMain.obj
 0002:000094f0       ??_R1A@?0A@EA@ICCXExtUICon@@8 00000001800294f0     CCXExtUI.obj
 0002:00009518       ??_R3CExtUICon@@8          0000000180029518     CCXExtUI.obj
 0002:00009530       ??_R4WapiCertPropertyDlg@@6B@ 0000000180029530     CCXExtUI.obj
 0002:00009558       ??_R1A@?0A@EA@WapiKeyInputDlg@@8 0000000180029558     CCXExtUI.obj
 0002:00009580       ??_R3CertSelectorDlg@@8    0000000180029580     CCXExtUI.obj
 0002:00009598       ??_R3ICCXExtUIKey@@8       0000000180029598     CCXExtUI.obj
 0002:000095b0       ??_R3error_category@std@@8 00000001800295b0     CCXExtUI.obj
 0002:000095c8       ??_R2CExtUICon@@8          00000001800295c8     CCXExtUI.obj
 0002:000095f0       ??_R3CertPropertyDlg@@8    00000001800295f0     CCXExtUI.obj
 0002:00009608       ??_R1A@?0A@EA@WapiKeyInputPropDlg@@8 0000000180029608     CCXExtUI.obj
 0002:00009630       ??_R3ICCXExtUICon@@8       0000000180029630     CCXExtUI.obj
 0002:00009648       ??_R1A@?0A@EA@WapiBaseKeyInputDlg@@8 0000000180029648     CCXExtUI.obj
 0002:00009670       ??_R1A@?0A@EA@CertPropertyDlg@@8 0000000180029670     CCXExtUI.obj
 0002:00009698       ??_R1A@?0A@EA@error_category@std@@8 0000000180029698     CCXExtUI.obj
 0002:000096c0       ??_R3WapiKeyInputDlg@@8    00000001800296c0     CCXExtUI.obj
 0002:000096d8       ??_R2WapiCertPropertyDlg@@8 00000001800296d8     CCXExtUI.obj
 0002:000096f0       ??_R3WapiBaseKeyInputDlg@@8 00000001800296f0     CCXExtUI.obj
 0002:00009708       ??_R3_System_error_category@std@@8 0000000180029708     CCXExtUI.obj
 0002:00009720       ??_R3WapiKeyInputPropDlg@@8 0000000180029720     CCXExtUI.obj
 0002:00009738       ??_R3IObjectWithSite@@8    0000000180029738     CCXExtUI.obj
 0002:00009750       ??_R2CExtUISec@@8          0000000180029750     CCXExtUI.obj
 0002:00009778       ??_R2_System_error_category@std@@8 0000000180029778     CCXExtUI.obj
 0002:00009798       ??_R4WapiKeyInputDlg@@6B@  0000000180029798     CCXExtUI.obj
 0002:000097c0       ??_R2IObjectWithSite@@8    00000001800297c0     CCXExtUI.obj
 0002:000097d8       ??_R1A@?0A@EA@CExtUI@@8    00000001800297d8     CCXExtUI.obj
 0002:00009800       ??_R3IExtUISec@@8          0000000180029800     CCXExtUI.obj
 0002:00009818       ??_R2ICCXExtUIKey@@8       0000000180029818     CCXExtUI.obj
 0002:00009838       ??_R4_Generic_error_category@std@@6B@ 0000000180029838     CCXExtUI.obj
 0002:00009860       ??_R1A@?0A@EC@IUnknown@@8  0000000180029860     CCXExtUI.obj
 0002:00009888       ??_R1A@?0A@EA@IObjectWithSite@@8 0000000180029888     CCXExtUI.obj
 0002:000098b0       ??_R1A@?0A@EA@IDot11ExtUIProperty@@8 00000001800298b0     CCXExtUI.obj
 0002:000098d8       ??_R4WapiCertPropDlg@@6B@  00000001800298d8     CCXExtUI.obj
 0002:00009900       ??_R2CertSelectorDlg@@8    0000000180029900     CCXExtUI.obj
 0002:00009918       ??_R1A@?0A@EA@_Generic_error_category@std@@8 0000000180029918     CCXExtUI.obj
 0002:00009940       ??_R4CExtUI@@6BIDot11ExtUI@@@ 0000000180029940     CCXExtUI.obj
 0002:00009968       ??_R1A@?0A@EA@ICCXExtUIKey@@8 0000000180029968     CCXExtUI.obj
 0002:00009990       ??_R2CExtUI@@8             0000000180029990     CCXExtUI.obj
 0002:000099d0       ??_R2ICCXExtUICon@@8       00000001800299d0     CCXExtUI.obj
 0002:000099f0       ??_R1A@?0A@EA@_Iostream_error_category@std@@8 00000001800299f0     CCXExtUI.obj
 0002:00009a18       ??_R4CExtUICon@@6B@        0000000180029a18     CCXExtUI.obj
 0002:00009a40       ??_R4error_category@std@@6B@ 0000000180029a40     CCXExtUI.obj
 0002:00009a68       ??_R3IWizardExtension@@8   0000000180029a68     CCXExtUI.obj
 0002:00009a80       ??_R4_Iostream_error_category@std@@6B@ 0000000180029a80     CCXExtUI.obj
 0002:00009aa8       ??_R1A@?0A@EA@WapiCertPropertyDlg@@8 0000000180029aa8     CCXExtUI.obj
 0002:00009ad0       ??_R2CExtUIKey@@8          0000000180029ad0     CCXExtUI.obj
 0002:00009af8       ??_R2IDot11ExtUIProperty@@8 0000000180029af8     CCXExtUI.obj
 0002:00009b10       ??_R4CExtUISec@@6B@        0000000180029b10     CCXExtUI.obj
 0002:00009b38       ??_R2WapiCertPropDlg@@8    0000000180029b38     CCXExtUI.obj
 0002:00009b58       ??_R2error_category@std@@8 0000000180029b58     CCXExtUI.obj
 0002:00009b68       ??_R4CExtUI@@6BIObjectWithSite@@@ 0000000180029b68     CCXExtUI.obj
 0002:00009b90       ??_R1A@?0A@EA@KeyInputDlg@@8 0000000180029b90     CCXExtUI.obj
 0002:00009bb8       ??_R1BA@?0A@EC@IUnknown@@8 0000000180029bb8     CCXExtUI.obj
 0002:00009be0       ??_R1A@?0A@EA@IWizardExtension@@8 0000000180029be0     CCXExtUI.obj
 0002:00009c08       ??_R3KeyInputDlg@@8        0000000180029c08     CCXExtUI.obj
 0002:00009c20       ??_R2WapiBaseKeyInputDlg@@8 0000000180029c20     CCXExtUI.obj
 0002:00009c38       ??_R1A@?0A@EA@_System_error_category@std@@8 0000000180029c38     CCXExtUI.obj
 0002:00009c60       ??_R3_Iostream_error_category@std@@8 0000000180029c60     CCXExtUI.obj
 0002:00009c78       ??_R3WapiCertPropDlg@@8    0000000180029c78     CCXExtUI.obj
 0002:00009c90       ??_R1A@?0A@EA@CExtUIKey@@8 0000000180029c90     CCXExtUI.obj
 0002:00009cb8       ??_R17?0A@EC@IUnknown@@8   0000000180029cb8     CCXExtUI.obj
 0002:00009ce0       ??_R1A@?0A@EA@IExtUISec@@8 0000000180029ce0     CCXExtUI.obj
 0002:00009d08       ??_R4WapiKeyInputPropDlg@@6B@ 0000000180029d08     CCXExtUI.obj
 0002:00009d30       ??_R1A@?0A@EA@CExtUICon@@8 0000000180029d30     CCXExtUI.obj
 0002:00009d58       ??_R2CertPropertyDlg@@8    0000000180029d58     CCXExtUI.obj
 0002:00009d68       ??_R3WapiCertPropertyDlg@@8 0000000180029d68     CCXExtUI.obj
 0002:00009d80       ??_R17?0A@EA@IWizardExtension@@8 0000000180029d80     CCXExtUI.obj
 0002:00009da8       ??_R4_System_error_category@std@@6B@ 0000000180029da8     CCXExtUI.obj
 0002:00009dd0       ??_R1BA@?0A@EA@IObjectWithSite@@8 0000000180029dd0     CCXExtUI.obj
 0002:00009df8       ??_R1A@?0A@EA@IDot11ExtUI@@8 0000000180029df8     CCXExtUI.obj
 0002:00009e20       ??_R2WapiKeyInputDlg@@8    0000000180029e20     CCXExtUI.obj
 0002:00009e40       ??_R2WapiKeyInputPropDlg@@8 0000000180029e40     CCXExtUI.obj
 0002:00009e60       ??_R3CExtUIKey@@8          0000000180029e60     CCXExtUI.obj
 0002:00009e78       ??_R3CExtUISec@@8          0000000180029e78     CCXExtUI.obj
 0002:00009e90       ??_R1A@?0A@EA@WapiCertPropDlg@@8 0000000180029e90     CCXExtUI.obj
 0002:00009eb8       ??_R2IDot11ExtUI@@8        0000000180029eb8     CCXExtUI.obj
 0002:00009ed0       ??_R1A@?0A@EA@CExtUISec@@8 0000000180029ed0     CCXExtUI.obj
 0002:00009ef8       ??_R3IDot11ExtUI@@8        0000000180029ef8     CCXExtUI.obj
 0002:00009f10       ??_R2_Generic_error_category@std@@8 0000000180029f10     CCXExtUI.obj
 0002:00009f28       ??_R2KeyInputDlg@@8        0000000180029f28     CCXExtUI.obj
 0002:00009f38       ??_R4CExtUI@@6BIWizardExtension@@@ 0000000180029f38     CCXExtUI.obj
 0002:00009f60       ??_R2IExtUISec@@8          0000000180029f60     CCXExtUI.obj
 0002:00009f80       ??_R1A@?0A@EA@CertSelectorDlg@@8 0000000180029f80     CCXExtUI.obj
 0002:00009fa8       ??_R3_Generic_error_category@std@@8 0000000180029fa8     CCXExtUI.obj
 0002:00009fc0       ??_R4CExtUIKey@@6B@        0000000180029fc0     CCXExtUI.obj
 0002:00009fe8       ??_R3CExtUI@@8             0000000180029fe8     CCXExtUI.obj
 0002:0000a000       ??_R2IWizardExtension@@8   000000018002a000     CCXExtUI.obj
 0002:0000a018       ??_R3IDot11ExtUIProperty@@8 000000018002a018     CCXExtUI.obj
 0002:0000a030       ??_R2_Iostream_error_category@std@@8 000000018002a030     CCXExtUI.obj
 0002:0000a050       ??_R3ConnConfigDlg@@8      000000018002a050     ConnConfigDlg.obj
 0002:0000a068       ??_R1A@?0A@EA@ConnConfigDlg@@8 000000018002a068     ConnConfigDlg.obj
 0002:0000a090       ??_R4ConnConfigDlg@@6B@    000000018002a090     ConnConfigDlg.obj
 0002:0000a0b8       ??_R2ConnConfigDlg@@8      000000018002a0b8     ConnConfigDlg.obj
 0002:0000a0d0       ??_R4CertPropertyDlg@@6B@  000000018002a0d0     CertPropertyDlg.obj
 0002:0000a0f8       ??_R4KeyInputDlg@@6B@      000000018002a0f8     KeyInputDlgW.obj
 0002:0000a120       __rtc_iaa                  000000018002a120     LIBCMT:initsect.obj
 0002:0000a128       __rtc_izz                  000000018002a128     LIBCMT:initsect.obj
 0002:0000a130       __rtc_taa                  000000018002a130     LIBCMT:initsect.obj
 0002:0000a138       __rtc_tzz                  000000018002a138     LIBCMT:initsect.obj
 0002:0000d0b8       _TI1?AV_com_error@@        000000018002d0b8     comsuppw:comraise.obj
 0002:0000d0d8       _CTA1?AV_com_error@@       000000018002d0d8     comsuppw:comraise.obj
 0002:0000d0e8       _CT??_R0?AV_com_error@@@8??0_com_error@@QEAA@AEBV0@@Z32 000000018002d0e8     comsuppw:comraise.obj
 0002:0000d110       _TI2?AVbad_alloc@std@@     000000018002d110     LIBCMT:new.obj
 0002:0000d130       _CTA2?AVbad_alloc@std@@    000000018002d130     LIBCMT:new.obj
 0002:0000d148       _CT??_R0?AVbad_alloc@std@@@8??0bad_alloc@std@@QEAA@AEBV01@@Z24 000000018002d148     LIBCMT:new.obj
 0002:0000d170       _CT??_R0?AVexception@std@@@8??0exception@std@@QEAA@AEBV01@@Z24 000000018002d170     LIBCMT:new.obj
 0002:0000d198       _TI2?AVbad_exception@std@@ 000000018002d198     LIBCMT:frame.obj
 0002:0000d1b8       _CTA2?AVbad_exception@std@@ 000000018002d1b8     LIBCMT:frame.obj
 0002:0000d1d0       _CT??_R0?AVbad_exception@std@@@8??0bad_exception@std@@QEAA@AEBV01@@Z24 000000018002d1d0     LIBCMT:frame.obj
 0002:0000d1f8       _CT??_R0?AVlogic_error@std@@@8??0logic_error@std@@QEAA@AEBV01@@Z24 000000018002d1f8     libcpmt:xthrow.obj
 0002:0000d220       _TI3?AVlength_error@std@@  000000018002d220     libcpmt:xthrow.obj
 0002:0000d240       _CTA3?AVlength_error@std@@ 000000018002d240     libcpmt:xthrow.obj
 0002:0000d260       _CT??_R0?AVlength_error@std@@@8??0length_error@std@@QEAA@AEBV01@@Z24 000000018002d260     libcpmt:xthrow.obj
 0002:0000d288       _TI3?AVout_of_range@std@@  000000018002d288     libcpmt:xthrow.obj
 0002:0000d2a8       _CTA3?AVout_of_range@std@@ 000000018002d2a8     libcpmt:xthrow.obj
 0002:0000d2c8       _CT??_R0?AVout_of_range@std@@@8??0out_of_range@std@@QEAA@AEBV01@@Z24 000000018002d2c8     libcpmt:xthrow.obj
 0002:0000d398       __IMPORT_DESCRIPTOR_CRYPT32 000000018002d398     crypt32:CRYPT32.dll
 0002:0000d3ac       __IMPORT_DESCRIPTOR_CRYPTUI 000000018002d3ac     cryptui:CRYPTUI.dll
 0002:0000d3c0       __IMPORT_DESCRIPTOR_RPCRT4 000000018002d3c0     rpcrt4:RPCRT4.dll
 0002:0000d3d4       __IMPORT_DESCRIPTOR_KERNEL32 000000018002d3d4     kernel32:KERNEL32.dll
 0002:0000d3e8       __IMPORT_DESCRIPTOR_USER32 000000018002d3e8     user32:USER32.dll
 0002:0000d3fc       __IMPORT_DESCRIPTOR_ADVAPI32 000000018002d3fc     advapi32:ADVAPI32.dll
 0002:0000d410       __IMPORT_DESCRIPTOR_ole32  000000018002d410     ole32:ole32.dll
 0002:0000d424       __IMPORT_DESCRIPTOR_OLEAUT32 000000018002d424     oleaut32:OLEAUT32.dll
 0002:0000d438       __NULL_IMPORT_DESCRIPTOR   000000018002d438     crypt32:CRYPT32.dll
 0003:00000000       ?__errorPfn@@3P6AXJPEAUIErrorInfo@@@ZEA 000000018002f000     comsuppw:comsupp.obj
 0003:00000010       __security_cookie          000000018002f010     LIBCMT:gs_cookie.obj
 0003:00000018       __security_cookie_complement 000000018002f018     LIBCMT:gs_cookie.obj
 0003:00000020       _fltused                   000000018002f020     LIBCMT:fpinit.obj
 0003:00000024       _ldused                    000000018002f024     LIBCMT:fpinit.obj
 0003:000001a8       __isa_available            000000018002f1a8     LIBCMT:cpu_disp.obj
 0003:000001ac       __isa_enabled              000000018002f1ac     LIBCMT:cpu_disp.obj
 0003:000001b0       __abort_behavior           000000018002f1b0     LIBCMT:abort.obj
 0003:000001c0       _mbctype                   000000018002f1c0     LIBCMT:mbctype.obj
 0003:000002d0       _mbcasemap                 000000018002f2d0     LIBCMT:mbctype.obj
 0003:000003d0       __initialmbcinfo           000000018002f3d0     LIBCMT:mbctype.obj
 0003:000006f0       __ptmbcinfo                000000018002f6f0     LIBCMT:mbctype.obj
 0003:000006f8       __flsindex                 000000018002f6f8     LIBCMT:tidtable.obj
 0003:000006fc       __mb_cur_max               000000018002f6fc     LIBCMT:nlsdata.obj
 0003:00000700       __wclocalestr              000000018002f700     LIBCMT:nlsdata.obj
 0003:00000710       __lc_time_c                000000018002f710     LIBCMT:nlsdata.obj
 0003:000009d0       __ptlocinfo                000000018002f9d0     LIBCMT:nlsdata.obj
 0003:000009e0       __initiallocinfo           000000018002f9e0     LIBCMT:nlsdata.obj
 0003:00000b38       __globallocalestatus       000000018002fb38     LIBCMT:glstatus.obj
 0003:00000b50       __badioinfo                000000018002fb50     LIBCMT:ioinit.obj
 0003:00000bb0       _cfltcvt_tab               000000018002fbb0     LIBCMT:cmiscdat.obj
 0003:00000e40       _iob                       000000018002fe40     LIBCMT:_file.obj
 0003:00001200       __nullstring               0000000180030200     LIBCMT:output.obj
 0003:00001208       __wnullstring              0000000180030208     LIBCMT:output.obj
 0003:00001210       _pctype                    0000000180030210     LIBCMT:ctype.obj
 0003:00001218       _pwctype                   0000000180030218     LIBCMT:ctype.obj
 0003:00001220       __lconv                    0000000180030220     LIBCMT:lconv.obj
 0003:00001228       __lconv_static_decimal     0000000180030228     LIBCMT:lconv.obj
 0003:00001230       __lconv_c                  0000000180030230     LIBCMT:lconv.obj
 0003:000012c8       __lconv_static_W_decimal   00000001800302c8     LIBCMT:lconv.obj
 0003:000012d0       _HUGE                      00000001800302d0     LIBCMT:huge.obj
 0003:00001308       _confh                     0000000180030308     LIBCMT:initcon.obj
 0003:00001310       _pow10pos                  0000000180030310     LIBCMT:constpow.obj
 0003:00001470       _pow10neg                  0000000180030470     LIBCMT:constpow.obj
 0003:000015d0       WinbaseIsolationAwarePrivateT_UnPgpgk 00000001800305d0     ihv_common.obj
 0003:000015e0       ?AuthAlgoInfo@@3PAU<unnamed-type-AuthAlgoInfo>@@A 00000001800305e0     CCXExtUI.obj
 0003:00001620       ?KeyExtensions@@3PAU_key_extensions@@A 0000000180030620     CCXExtUI.obj
 0003:000016a0       ?CiphAlgoInfo@@3PAU0@A     00000001800306a0     CCXExtUI.obj
 0003:00001720       ?XmlEnumDPTCiphAlgo@@3PAU<unnamed-type-XmlEnumDPTCiphAlgo>@@A 0000000180030720     DPTProfile.obj
 0003:00001740       ?XmlElemAuthAlgo@@3PAUID_TO_TAG_TABLE2@@A 0000000180030740     CCXProfile.obj
 0003:000018c0       ?XmlElemCiphAlgo@@3PAUID_TO_TAG_TABLE@@A 00000001800308c0     CCXProfile.obj
 0003:00001910       ?BroadcomCredType@@3PAUID_TO_TAG_TABLE@@A 0000000180030910     CCXProfile.obj
 0003:00001930       ?_System_object@?$_Error_objects@H@std@@2V_System_error_category@2@A 0000000180030930     CCXExtUI.obj
 0003:00001938       ?_Iostream_object@?$_Error_objects@H@std@@2V_Iostream_error_category@2@A 0000000180030938     CCXExtUI.obj
 0003:00001940       ?_Generic_object@?$_Error_objects@H@std@@2V_Generic_error_category@2@A 0000000180030940     CCXExtUI.obj
 0003:00001948       ??_R0?AV_com_error@@@8     0000000180030948     comsuppw:comraise.obj
 0003:00001970       ??_R0?AVtype_info@@@8      0000000180030970     LIBCMT:typinfo.obj
 0003:00001990       ??_R0?AVbad_alloc@std@@@8  0000000180030990     LIBCMT:new.obj
 0003:000019b8       ??_R0?AVexception@std@@@8  00000001800309b8     LIBCMT:new.obj
 0003:000019e0       ??_R0?AVbad_exception@std@@@8 00000001800309e0     LIBCMT:frame.obj
 0003:00001a08       ??_R0?AVlogic_error@std@@@8 0000000180030a08     libcpmt:xthrow.obj
 0003:00001a30       ??_R0?AVlength_error@std@@@8 0000000180030a30     libcpmt:xthrow.obj
 0003:00001a58       ??_R0?AVout_of_range@std@@@8 0000000180030a58     libcpmt:xthrow.obj
 0003:00001a80       ??_R0?AUIClassFactory@@@8  0000000180030a80     CCXDllMain.obj
 0003:00001aa8       ??_R0?AVCFactory@@@8       0000000180030aa8     CCXDllMain.obj
 0003:00001ac8       ??_R0?AUIUnknown@@@8       0000000180030ac8     CCXDllMain.obj
 0003:00001ae8       ??_R0?AVWapiBaseKeyInputDlg@@@8 0000000180030ae8     CCXExtUI.obj
 0003:00001b18       ??_R0?AUICCXExtUICon@@@8   0000000180030b18     CCXExtUI.obj
 0003:00001b40       ??_R0?AVCertSelectorDlg@@@8 0000000180030b40     CCXExtUI.obj
 0003:00001b68       ??_R0?AUIWizardExtension@@@8 0000000180030b68     CCXExtUI.obj
 0003:00001b90       ??_R0?AVCExtUISec@@@8      0000000180030b90     CCXExtUI.obj
 0003:00001bb0       ??_R0?AUIDot11ExtUIProperty@@@8 0000000180030bb0     CCXExtUI.obj
 0003:00001be0       ??_R0?AV_Iostream_error_category@std@@@8 0000000180030be0     CCXExtUI.obj
 0003:00001c18       ??_R0?AVWapiCertPropertyDlg@@@8 0000000180030c18     CCXExtUI.obj
 0003:00001c48       ??_R0?AVCExtUI@@@8         0000000180030c48     CCXExtUI.obj
 0003:00001c68       ??_R0?AVWapiCertPropDlg@@@8 0000000180030c68     CCXExtUI.obj
 0003:00001c90       ??_R0?AUICCXExtUIKey@@@8   0000000180030c90     CCXExtUI.obj
 0003:00001cb8       ??_R0?AVCExtUICon@@@8      0000000180030cb8     CCXExtUI.obj
 0003:00001cd8       ??_R0?AV_System_error_category@std@@@8 0000000180030cd8     CCXExtUI.obj
 0003:00001d10       ??_R0?AVCertPropertyDlg@@@8 0000000180030d10     CCXExtUI.obj
 0003:00001d38       ??_R0?AUIExtUISec@@@8      0000000180030d38     CCXExtUI.obj
 0003:00001d58       ??_R0?AUIObjectWithSite@@@8 0000000180030d58     CCXExtUI.obj
 0003:00001d80       ??_R0?AVerror_category@std@@@8 0000000180030d80     CCXExtUI.obj
 0003:00001db0       ??_R0?AUIDot11ExtUI@@@8    0000000180030db0     CCXExtUI.obj
 0003:00001dd8       ??_R0?AV_Generic_error_category@std@@@8 0000000180030dd8     CCXExtUI.obj
 0003:00001e10       ??_R0?AVKeyInputDlg@@@8    0000000180030e10     CCXExtUI.obj
 0003:00001e38       ??_R0?AVCExtUIKey@@@8      0000000180030e38     CCXExtUI.obj
 0003:00001e58       ??_R0?AVWapiKeyInputDlg@@@8 0000000180030e58     CCXExtUI.obj
 0003:00001e80       ??_R0?AVWapiKeyInputPropDlg@@@8 0000000180030e80     CCXExtUI.obj
 0003:00001eb0       ??_R0?AVConnConfigDlg@@@8  0000000180030eb0     ConnConfigDlg.obj
 0003:00001ee0       ?nothrow@std@@3Unothrow_t@1@B 0000000180030ee0     LIBCMT:nothrow0.obj
 0003:00002470       _aenvptr                   0000000180031470     LIBCMT:dllcrt0.obj
 0003:00002478       _wenvptr                   0000000180031478     LIBCMT:dllcrt0.obj
 0003:00002480       __fastflag                 0000000180031480     LIBCMT:fpinit.obj
 0003:00002498       ?_pnhHeap@@3P6AH_K@ZEA     0000000180031498     LIBCMT:handler.obj
 0003:000024a0       __pInvalidArgHandler       00000001800314a0     LIBCMT:invarg.obj
 0003:000024a8       __favor                    00000001800314a8     LIBCMT:cpu_disp.obj
 0003:000024b0       _C_Exit_Done               00000001800314b0     LIBCMT:crt0dat.obj
 0003:000024b4       __argc                     00000001800314b4     LIBCMT:crt0dat.obj
 0003:000024b8       __argv                     00000001800314b8     LIBCMT:crt0dat.obj
 0003:000024c0       __wargv                    00000001800314c0     LIBCMT:crt0dat.obj
 0003:000024c8       _environ                   00000001800314c8     LIBCMT:crt0dat.obj
 0003:000024d0       _wenviron                  00000001800314d0     LIBCMT:crt0dat.obj
 0003:000024d8       _pgmptr                    00000001800314d8     LIBCMT:crt0dat.obj
 0003:000024e0       _wpgmptr                   00000001800314e0     LIBCMT:crt0dat.obj
 0003:000024e8       _umaskval                  00000001800314e8     LIBCMT:crt0dat.obj
 0003:000024ec       _exitflag                  00000001800314ec     LIBCMT:crt0dat.obj
 0003:000024f0       _C_Termination_Done        00000001800314f0     LIBCMT:crt0dat.obj
 0003:000024f8       __winitenv                 00000001800314f8     LIBCMT:crt0dat.obj
 0003:00002500       __initenv                  0000000180031500     LIBCMT:crt0dat.obj
 0003:00002508       _maxwait                   0000000180031508     LIBCMT:crtheap.obj
 0003:00002510       __pPurecall                0000000180031510     LIBCMT:inithelp.obj
 0003:00002518       __mbcodepage               0000000180031518     LIBCMT:mbctype.obj
 0003:0000251c       __ismbcodepage             000000018003151c     LIBCMT:mbctype.obj
 0003:00002520       __mbulinfo                 0000000180031520     LIBCMT:mbctype.obj
 0003:00002530       __mblocalename             0000000180031530     LIBCMT:mbctype.obj
 0003:0000253c       __locale_changed           000000018003153c     LIBCMT:wsetloca.obj
 0003:00002540       _crtheap                   0000000180031540     LIBCMT:heapinit.obj
 0003:00002550       __app_type                 0000000180031550     LIBCMT:crt0msg.obj
 0003:00002b88       _newmode                   0000000180031b88     LIBCMT:_newmode.obj
 0003:00002b90       __pioinfo                  0000000180031b90     LIBCMT:ioinit.obj
 0003:000030d0       ?m_pGetParameter@UnDecorator@@0P6APEADJ@ZEA 00000001800320d0     LIBCMT:undname.obj
 0003:000030d8       ?pArgList@UnDecorator@@0PEAVReplicator@@EA 00000001800320d8     LIBCMT:undname.obj
 0003:000030e0       ?pZNameList@UnDecorator@@0PEAVReplicator@@EA 00000001800320e0     LIBCMT:undname.obj
 0003:000030e8       ?pTemplateArgList@UnDecorator@@0PEAVReplicator@@EA 00000001800320e8     LIBCMT:undname.obj
 0003:000030f0       ?gName@UnDecorator@@0PEBDEB 00000001800320f0     LIBCMT:undname.obj
 0003:000030f8       ?name@UnDecorator@@0PEBDEB 00000001800320f8     LIBCMT:undname.obj
 0003:00003100       ?outputString@UnDecorator@@0PEADEA 0000000180032100     LIBCMT:undname.obj
 0003:00003108       ?maxStringLength@UnDecorator@@0HA 0000000180032108     LIBCMT:undname.obj
 0003:0000310c       ?disableFlags@UnDecorator@@0KA 000000018003210c     LIBCMT:undname.obj
 0003:00003110       ?fExplicitTemplateParams@UnDecorator@@0_NA 0000000180032110     LIBCMT:undname.obj
 0003:00003111       ?fGetTemplateArgumentList@UnDecorator@@0_NA 0000000180032111     LIBCMT:undname.obj
 0003:00003140       _cflush                    0000000180032140     LIBCMT:_file.obj
 0003:00003150       ?__pInconsistency@@3P6AXXZEA 0000000180032150     LIBCMT:hooks.obj
 0003:00003188       _stdbuf                    0000000180032188     LIBCMT:_sftbuf.obj
 0003:000031a0       ?g_OutOfMemoryExceptionCallback@@3P6APEAXXZEA 00000001800321a0     LIBCMT:frame.obj
 0003:000031a8       __lconv_static_null        00000001800321a8     LIBCMT:lconv.obj
 0003:000031ac       __lconv_static_W_null      00000001800321ac     LIBCMT:lconv.obj
 0003:000031b0       __error_mode               00000001800321b0     LIBCMT:errmode.obj
 0003:000031e0       _outputformat              00000001800321e0     LIBCMT:outputformat.obj
 0003:000031ec       WinbaseIsolationAwarePrivateT_SpYRNahcpNYYRQ 00000001800321ec     ihv_common.obj
 0003:000031f0       WinbaseIsolationAwarePrivateT_SpeRNgRQnPgpgk 00000001800321f0     ihv_common.obj
 0003:000031fc       ?_nCompObjects@@3JA        00000001800321fc     CCXDllMain.obj
 0003:00003200       ?_hinst@@3PEAUHINSTANCE__@@EA 0000000180032200     CCXDllMain.obj
 0003:00003240       ?g_stringResMap@@3V?$map@V?$basic_string@_WU?$char_traits@_W@std@@V?$allocator@_W@2@@std@@HU?$less@V?$basic_string@_WU?$char_traits@_W@std@@V?$allocator@_W@2@@std@@@2@V?$allocator@U?$pair@$$CBV?$basic_string@_WU?$char_traits@_W@std@@V?$allocator@_W@2@@std@@H@std@@@2@@std@@A 0000000180032240     i18nW.obj
 0003:00003260       ?s_pfn@?1??IsolationAwareCreatePropertySheetPageW@@9@4P6APEAU_PSP@@PEBU_PROPSHEETPAGEW@@@ZEA 0000000180032260     CCXExtUI.obj
 0003:00003268       ?m@?1??PrshtIsolationAwarePrivatetRgCebPnQQeRff_pbZPgYQP_QYY@@9@4UIsolationAwarePrivate_zHGnoyr_zBqHyr_vAsB@@A 0000000180032268     CCXExtUI.obj
 0003:00003280       ?id@?$num_put@_WV?$back_insert_iterator@V?$basic_string@_WU?$char_traits@_W@std@@V?$allocator@_W@2@@std@@@std@@@std@@2V0locale@2@A 0000000180032280     CCXExtUI.obj
 0003:00003288       ?id@?$numpunct@_W@std@@2V0locale@2@A 0000000180032288     CCXExtUI.obj
 0003:00003290       ?id@?$num_put@DV?$back_insert_iterator@V?$basic_string@DU?$char_traits@D@std@@V?$allocator@D@2@@std@@@std@@@std@@2V0locale@2@A 0000000180032290     CCXExtUI.obj
 0003:00003298       ?id@?$numpunct@D@std@@2V0locale@2@A 0000000180032298     CCXExtUI.obj
 0003:000032a0       __piob                     00000001800322a0     <common>
 0003:000032a8       _nstream                   00000001800322a8     <common>
 0003:000032c0       _bufin                     00000001800322c0     <common>
 0003:000042c0       _nhandle                   00000001800332c0     <common>
 0003:000042e0       encodedKERNEL32Functions   00000001800332e0     <common>
 0003:000043e8       _debugger_hook_dummy       00000001800333e8     <common>
 0003:000043f0       __dyn_tls_init_callback    00000001800333f0     <common>
 0003:000043f8       __onexitend                00000001800333f8     <common>
 0003:00004400       __onexitbegin              0000000180033400     <common>
 0003:00004408       __mbctype_initialized      0000000180033408     <common>
 0003:0000440c       __env_initialized          000000018003340c     <common>
 0003:00004410       _acmdln                    0000000180033410     <common>

 entry point at        0001:0000fb5c

 Static symbols

 0000:ffc66000       .debug$S                   0000000180000000     kernel32:KERNEL32.dll
 0000:ffc66000       .debug$S                   0000000180000000     crypt32:CRYPT32.dll
 0000:ffc66000       .debug$S                   0000000180000000     kernel32:KERNEL32.dll
 0000:ffc66000       .debug$S                   0000000180000000     kernel32:KERNEL32.dll
 0000:ffc66000       .debug$S                   0000000180000000     kernel32:KERNEL32.dll
 0000:ffc66000       .debug$S                   0000000180000000     crypt32:CRYPT32.dll
 0000:ffc66000       .debug$S                   0000000180000000     kernel32:KERNEL32.dll
 0000:ffc66000       .debug$S                   0000000180000000     kernel32:KERNEL32.dll
 0000:ffc66000       .debug$S                   0000000180000000     kernel32:KERNEL32.dll
 0000:ffc66000       .debug$S                   0000000180000000     kernel32:KERNEL32.dll
 0000:ffc66000       .debug$S                   0000000180000000     kernel32:KERNEL32.dll
 0000:ffc66000       .debug$S                   0000000180000000     kernel32:KERNEL32.dll
 0000:ffc66000       .debug$S                   0000000180000000     kernel32:KERNEL32.dll
 0000:ffc66000       .debug$S                   0000000180000000     kernel32:KERNEL32.dll
 0000:ffc66000       .debug$S                   0000000180000000     crypt32:CRYPT32.dll
 0000:ffc66000       .debug$S                   0000000180000000     kernel32:KERNEL32.dll
 0000:ffc66000       .debug$S                   0000000180000000     kernel32:KERNEL32.dll
 0000:ffc66000       .debug$S                   0000000180000000     kernel32:KERNEL32.dll
 0000:ffc66000       .debug$S                   0000000180000000     rpcrt4:RPCRT4.dll
 0000:ffc66000       .debug$S                   0000000180000000     oleaut32:OLEAUT32.dll
 0000:ffc66000       .debug$S                   0000000180000000     oleaut32:OLEAUT32.dll
 0000:ffc66000       .debug$S                   0000000180000000     oleaut32:OLEAUT32.dll
 0000:ffc66000       .debug$S                   0000000180000000     oleaut32:OLEAUT32.dll
 0000:ffc66000       .debug$S                   0000000180000000     oleaut32:OLEAUT32.dll
 0000:ffc66000       .debug$S                   0000000180000000     oleaut32:OLEAUT32.dll
 0000:ffc66000       .debug$S                   0000000180000000     oleaut32:OLEAUT32.dll
 0000:ffc66000       .debug$S                   0000000180000000     rpcrt4:RPCRT4.dll
 0000:ffc66000       .debug$S                   0000000180000000     kernel32:KERNEL32.dll
 0000:ffc66000       .debug$S                   0000000180000000     oleaut32:OLEAUT32.dll
 0000:ffc66000       .debug$S                   0000000180000000     oleaut32:OLEAUT32.dll
 0000:ffc66000       .debug$S                   0000000180000000     oleaut32:OLEAUT32.dll
 0000:ffc66000       .debug$S                   0000000180000000     oleaut32:OLEAUT32.dll
 0000:ffc66000       .debug$S                   0000000180000000     cryptui:CRYPTUI.dll
 0000:ffc66000       .debug$S                   0000000180000000     kernel32:KERNEL32.dll
 0000:ffc66000       .debug$S                   0000000180000000     ole32:ole32.dll
 0000:ffc66000       .debug$S                   0000000180000000     ole32:ole32.dll
 0000:ffc66000       .debug$S                   0000000180000000     ole32:ole32.dll
 0000:ffc66000       .debug$S                   0000000180000000     ole32:ole32.dll
 0000:ffc66000       .debug$S                   0000000180000000     ole32:ole32.dll
 0000:ffc66000       .debug$S                   0000000180000000     kernel32:KERNEL32.dll
 0000:ffc66000       .debug$S                   0000000180000000     ole32:ole32.dll
 0000:ffc66000       .debug$S                   0000000180000000     kernel32:KERNEL32.dll
 0000:ffc66000       .debug$S                   0000000180000000     crypt32:CRYPT32.dll
 0000:ffc66000       .debug$S                   0000000180000000     crypt32:CRYPT32.dll
 0000:ffc66000       .debug$S                   0000000180000000     kernel32:KERNEL32.dll
 0000:ffc66000       .debug$S                   0000000180000000     crypt32:CRYPT32.dll
 0000:ffc66000       .debug$S                   0000000180000000     advapi32:ADVAPI32.dll
 0000:ffc66000       .debug$S                   0000000180000000     advapi32:ADVAPI32.dll
 0000:ffc66000       .debug$S                   0000000180000000     advapi32:ADVAPI32.dll
 0000:ffc66000       .debug$S                   0000000180000000     advapi32:ADVAPI32.dll
 0000:ffc66000       .debug$S                   0000000180000000     advapi32:ADVAPI32.dll
 0000:ffc66000       .debug$S                   0000000180000000     advapi32:ADVAPI32.dll
 0000:ffc66000       .debug$S                   0000000180000000     advapi32:ADVAPI32.dll
 0000:ffc66000       .debug$S                   0000000180000000     advapi32:ADVAPI32.dll
 0000:ffc66000       .debug$S                   0000000180000000     kernel32:KERNEL32.dll
 0000:ffc66000       .debug$S                   0000000180000000     kernel32:KERNEL32.dll
 0000:ffc66000       .debug$S                   0000000180000000     user32:USER32.dll
 0000:ffc66000       .debug$S                   0000000180000000     kernel32:KERNEL32.dll
 0000:ffc66000       .debug$S                   0000000180000000     user32:USER32.dll
 0000:ffc66000       .debug$S                   0000000180000000     user32:USER32.dll
 0000:ffc66000       .debug$S                   0000000180000000     user32:USER32.dll
 0000:ffc66000       .debug$S                   0000000180000000     user32:USER32.dll
 0000:ffc66000       .debug$S                   0000000180000000     user32:USER32.dll
 0000:ffc66000       .debug$S                   0000000180000000     user32:USER32.dll
 0000:ffc66000       .debug$S                   0000000180000000     user32:USER32.dll
 0000:ffc66000       .debug$S                   0000000180000000     user32:USER32.dll
 0000:ffc66000       .debug$S                   0000000180000000     kernel32:KERNEL32.dll
 0000:ffc66000       .debug$S                   0000000180000000     user32:USER32.dll
 0000:ffc66000       .debug$S                   0000000180000000     user32:USER32.dll
 0000:ffc66000       .debug$S                   0000000180000000     user32:USER32.dll
 0000:ffc66000       .debug$S                   0000000180000000     kernel32:KERNEL32.dll
 0000:ffc66000       .debug$S                   0000000180000000     user32:USER32.dll
 0000:ffc66000       .debug$S                   0000000180000000     kernel32:KERNEL32.dll
 0000:ffc66000       .debug$S                   0000000180000000     user32:USER32.dll
 0000:ffc66000       .debug$S                   0000000180000000     kernel32:KERNEL32.dll
 0000:ffc66000       .debug$S                   0000000180000000     user32:USER32.dll
 0000:ffc66000       .debug$S                   0000000180000000     kernel32:KERNEL32.dll
 0000:ffc66000       .debug$S                   0000000180000000     user32:USER32.dll
 0000:ffc66000       .debug$S                   0000000180000000     kernel32:KERNEL32.dll
 0000:ffc66000       .debug$S                   0000000180000000     user32:USER32.dll
 0000:ffc66000       .debug$S                   0000000180000000     user32:USER32.dll
 0000:ffc66000       .debug$S                   0000000180000000     user32:USER32.dll
 0000:ffc66000       .debug$S                   0000000180000000     user32:USER32.dll
 0000:ffc66000       .debug$S                   0000000180000000     user32:USER32.dll
 0000:ffc66000       .debug$S                   0000000180000000     user32:USER32.dll
 0000:ffc66000       .debug$S                   0000000180000000     user32:USER32.dll
 0000:ffc66000       .debug$S                   0000000180000000     user32:USER32.dll
 0000:ffc66000       .debug$S                   0000000180000000     user32:USER32.dll
 0000:ffc66000       .debug$S                   0000000180000000     kernel32:KERNEL32.dll
 0000:ffc66000       .debug$S                   0000000180000000     kernel32:KERNEL32.dll
 0000:ffc66000       .debug$S                   0000000180000000     kernel32:KERNEL32.dll
 0000:ffc66000       .debug$S                   0000000180000000     kernel32:KERNEL32.dll
 0000:ffc66000       .debug$S                   0000000180000000     kernel32:KERNEL32.dll
 0000:ffc66000       .debug$S                   0000000180000000     kernel32:KERNEL32.dll
 0000:ffc66000       .debug$S                   0000000180000000     kernel32:KERNEL32.dll
 0000:ffc66000       .debug$S                   0000000180000000     kernel32:KERNEL32.dll
 0000:ffc66000       .debug$S                   0000000180000000     kernel32:KERNEL32.dll
 0000:ffc66000       .debug$S                   0000000180000000     kernel32:KERNEL32.dll
 0000:ffc66000       .debug$S                   0000000180000000     kernel32:KERNEL32.dll
 0000:ffc66000       .debug$S                   0000000180000000     kernel32:KERNEL32.dll
 0000:ffc66000       .debug$S                   0000000180000000     kernel32:KERNEL32.dll
 0000:ffc66000       .debug$S                   0000000180000000     kernel32:KERNEL32.dll
 0000:ffc66000       .debug$S                   0000000180000000     kernel32:KERNEL32.dll
 0000:ffc66000       .debug$S                   0000000180000000     kernel32:KERNEL32.dll
 0000:ffc66000       .debug$S                   0000000180000000     crypt32:CRYPT32.dll
 0000:ffc66000       .debug$S                   0000000180000000     crypt32:CRYPT32.dll
 0000:ffc66000       .debug$S                   0000000180000000     kernel32:KERNEL32.dll
 0000:ffc66000       .debug$S                   0000000180000000     kernel32:KERNEL32.dll
 0000:ffc66000       .debug$S                   0000000180000000     kernel32:KERNEL32.dll
 0000:ffc66000       .debug$S                   0000000180000000     kernel32:KERNEL32.dll
 0000:ffc66000       .debug$S                   0000000180000000     kernel32:KERNEL32.dll
 0000:ffc66000       .debug$S                   0000000180000000     crypt32:CRYPT32.dll
 0000:ffc66000       .debug$S                   0000000180000000     kernel32:KERNEL32.dll
 0000:ffc66000       .debug$S                   0000000180000000     kernel32:KERNEL32.dll
 0000:ffc66000       .debug$S                   0000000180000000     kernel32:KERNEL32.dll
 0000:ffc66000       .debug$S                   0000000180000000     kernel32:KERNEL32.dll
 0000:ffc66000       .debug$S                   0000000180000000     kernel32:KERNEL32.dll
 0000:ffc66000       .debug$S                   0000000180000000     kernel32:KERNEL32.dll
 0000:ffc66000       .debug$S                   0000000180000000     kernel32:KERNEL32.dll
 0000:ffc66000       .debug$S                   0000000180000000     kernel32:KERNEL32.dll
 0000:ffc66000       .debug$S                   0000000180000000     kernel32:KERNEL32.dll
 0000:ffc66000       .debug$S                   0000000180000000     kernel32:KERNEL32.dll
 0000:ffc66000       .debug$S                   0000000180000000     kernel32:KERNEL32.dll
 0000:ffc66000       .debug$S                   0000000180000000     kernel32:KERNEL32.dll
 0000:ffc66000       .debug$S                   0000000180000000     kernel32:KERNEL32.dll
 0000:ffc66000       .debug$S                   0000000180000000     kernel32:KERNEL32.dll
 0000:ffc66000       .debug$S                   0000000180000000     crypt32:CRYPT32.dll
 0000:ffc66000       .debug$S                   0000000180000000     crypt32:CRYPT32.dll
 0000:ffc66000       .debug$S                   0000000180000000     kernel32:KERNEL32.dll
 0000:ffc66000       .debug$S                   0000000180000000     kernel32:KERNEL32.dll
 0000:ffc66000       .debug$S                   0000000180000000     kernel32:KERNEL32.dll
 0000:ffc66000       .debug$S                   0000000180000000     kernel32:KERNEL32.dll
 0000:ffc66000       .debug$S                   0000000180000000     crypt32:CRYPT32.dll
 0000:ffc66000       .debug$S                   0000000180000000     kernel32:KERNEL32.dll
 0000:ffc66000       .debug$S                   0000000180000000     kernel32:KERNEL32.dll
 0000:ffc66000       .debug$S                   0000000180000000     kernel32:KERNEL32.dll
 0000:ffc66000       .debug$S                   0000000180000000     crypt32:CRYPT32.dll
 0000:ffc66000       .debug$S                   0000000180000000     kernel32:KERNEL32.dll
 0000:ffc66000       .debug$S                   0000000180000000     kernel32:KERNEL32.dll
 0000:ffc66000       .debug$S                   0000000180000000     crypt32:CRYPT32.dll
 0000:ffc66000       .debug$S                   0000000180000000     kernel32:KERNEL32.dll
 0000:ffc66000       .debug$S                   0000000180000000     kernel32:KERNEL32.dll
 0000:ffc66000       .debug$S                   0000000180000000     kernel32:KERNEL32.dll
 0000:ffc66000       .debug$S                   0000000180000000     kernel32:KERNEL32.dll
 0000:ffc66000       .debug$S                   0000000180000000     kernel32:KERNEL32.dll
 0000:ffc66000       .debug$S                   0000000180000000     kernel32:KERNEL32.dll
 0000:ffc66000       .debug$S                   0000000180000000     kernel32:KERNEL32.dll
 0000:ffc66000       .debug$S                   0000000180000000     kernel32:KERNEL32.dll
 0000:ffc66000       .debug$S                   0000000180000000     kernel32:KERNEL32.dll
 0000:ffc66000       .debug$S                   0000000180000000     kernel32:KERNEL32.dll
 0000:ffc66000       .debug$S                   0000000180000000     kernel32:KERNEL32.dll
 0000:ffc66000       .debug$S                   0000000180000000     kernel32:KERNEL32.dll
 0000:ffc66000       .debug$S                   0000000180000000     kernel32:KERNEL32.dll
 0000:ffc66000       .debug$S                   0000000180000000     kernel32:KERNEL32.dll
 0000:ffc66000       .debug$S                   0000000180000000     kernel32:KERNEL32.dll
 0000:ffc66000       .debug$S                   0000000180000000     kernel32:KERNEL32.dll
 0000:ffc66000       .debug$S                   0000000180000000     crypt32:CRYPT32.dll
 0000:ffc66000       .debug$S                   0000000180000000     crypt32:CRYPT32.dll
 0000:ffc66000       .debug$S                   0000000180000000     kernel32:KERNEL32.dll
 0000:ffc66000       .debug$S                   0000000180000000     kernel32:KERNEL32.dll
 0000:ffc66000       .debug$S                   0000000180000000     kernel32:KERNEL32.dll
 0000:ffc66000       .debug$S                   0000000180000000     kernel32:KERNEL32.dll
 0000:ffc66000       .debug$S                   0000000180000000     kernel32:KERNEL32.dll
 0000:ffc66000       .debug$S                   0000000180000000     kernel32:KERNEL32.dll
 0000:ffc66000       .debug$S                   0000000180000000     kernel32:KERNEL32.dll
 0000:ffc66000       .debug$S                   0000000180000000     kernel32:KERNEL32.dll
 0000:ffc66000       .debug$S                   0000000180000000     kernel32:KERNEL32.dll
 0000:ffc66000       .debug$S                   0000000180000000     kernel32:KERNEL32.dll
 0000:ffc66000       .debug$S                   0000000180000000     kernel32:KERNEL32.dll
 0000:ffc66000       .debug$S                   0000000180000000     kernel32:KERNEL32.dll
 0000:ffc66000       .debug$S                   0000000180000000     kernel32:KERNEL32.dll
 0000:ffc66000       .debug$S                   0000000180000000     crypt32:CRYPT32.dll
 0000:ffc66000       .debug$S                   0000000180000000     kernel32:KERNEL32.dll
 0000:ffc66000       .debug$S                   0000000180000000     kernel32:KERNEL32.dll
 0000:ffc66000       .debug$S                   0000000180000000     crypt32:CRYPT32.dll
 0000:ffc66000       .debug$S                   0000000180000000     kernel32:KERNEL32.dll
 0001:00000000       ??__E_GI@@YAXXZ            0000000180001000 f   * CIL library *:* CIL module *
 0001:00000010       ??__E?_Generic_object@?$_Error_objects@H@std@@2V_Generic_error_category@2@A@@YAXXZ 0000000180001010 f   * CIL library *:* CIL module *
 0001:00000020       ??__E?_Iostream_object@?$_Error_objects@H@std@@2V_Iostream_error_category@2@A@@YAXXZ 0000000180001020 f   * CIL library *:* CIL module *
 0001:00000030       ??__E?_System_object@?$_Error_objects@H@std@@2V_System_error_category@2@A@@YAXXZ 0000000180001030 f   * CIL library *:* CIL module *
 0001:00000040       ??__Eg_stringResMap@@YAXXZ 0000000180001040 f   * CIL library *:* CIL module *
 0001:00000060       ??__Eg_guard@@YAXXZ        0000000180001060 f   * CIL library *:* CIL module *
 0001:000006e0       ?SelfRegister@@YAJ_N@Z     00000001800016e0 f   * CIL library *:* CIL module *
 0001:00000a50       ?GetComponentGuid@@YAPEA_WXZ 0000000180001a50 f   * CIL library *:* CIL module *
 0001:00001050       ?GetClassObject@@YAJAEBU_GUID@@0PEAPEAX@Z 0000000180002050 f   * CIL library *:* CIL module *
 0001:00001c70       ?GetCredentialFromCertificate@@YAHPEBU_CERT_CONTEXT@@PEAPEAU_IHV_CREDENTIAL@@@Z 0000000180002c70 f   * CIL library *:* CIL module *
 0001:00007810       ?EnumStrings@@YAHPEAUHINSTANCE__@@KP6AXPEA_WK@Z@Z 0000000180008810 f   * CIL library *:* CIL module *
 0001:00007940       ?EnumResNameProc@@YAHPEAUHINSTANCE__@@PEB_WPEA_W_J@Z 0000000180008940 f   * CIL library *:* CIL module *
 0001:00007b30       ?HasDots@@YAHPEA_W@Z       0000000180008b30 f   * CIL library *:* CIL module *
 0001:0000e3d0       $$000000                   000000018000f3d0     LIBCMT:amdsecgs.obj
 0001:0000e670       $$000000                   000000018000f670     LIBCMT:memcpy.obj
 0001:0000e760       MoveSmall                  000000018000f760     LIBCMT:memcpy.obj
 0001:0000f0c4       ?wcstoxl@@YAKPEB_WPEAPEB_WHH@Z 00000001800100c4 f   LIBCMT:wcstol.obj
 0001:0000f98c       xtow                       000000018001098c f   LIBCMT:xtow.obj
 0001:0000fb9c       __DllMainCRTStartup        0000000180010b9c f   LIBCMT:dllcrt0.obj
 0001:0000fe50       $$000000                   0000000180010e50     LIBCMT:chkstk.obj
 0001:0000feb0       $$000000                   0000000180010eb0     LIBCMT:memset.obj
 0001:00010055       MsetTab                    0000000180011055     LIBCMT:memset.obj
 0001:00010180       $$000000                   0000000180011180     LIBCMT:strcmp.obj
 0001:00010e60       _initterm                  0000000180011e60 f   LIBCMT:crt0dat.obj
 0001:00010ee8       doexit                     0000000180011ee8 f   LIBCMT:crt0dat.obj
 0001:0001212c       ?getSystemCP@@YAHH@Z       000000018001312c f   LIBCMT:mbctype.obj
 0001:000121ac       ?setSBCS@@YAXPEAUthreadmbcinfostruct@@@Z 00000001800131ac f   LIBCMT:mbctype.obj
 0001:0001223c       ?setSBUpLow@@YAXPEAUthreadmbcinfostruct@@@Z 000000018001323c f   LIBCMT:mbctype.obj
 0001:00013e1c       parse_cmdline              0000000180014e1c f   LIBCMT:stdargv.obj
 0001:00014800       _cftoe2_l                  0000000180015800 f   LIBCMT:cvt.obj
 0001:00014af4       _cftof2_l                  0000000180015af4 f   LIBCMT:cvt.obj
 0001:00015090       $$000000                   0000000180016090     LIBCMT:strlen.obj
 0001:00015350       $$000000                   0000000180016350     LIBCMT:jmpuwind.obj
 0001:00016bbc       write_char                 0000000180017bbc f   LIBCMT:woutputs.obj
 0001:00016bf4       write_multi_char           0000000180017bf4 f   LIBCMT:woutputs.obj
 0001:00016c48       write_string               0000000180017c48 f   LIBCMT:woutputs.obj
 0001:00017874       ?CatchIt@@YAXPEAUEHExceptionRecord@@PEA_KPEAU_CONTEXT@@PEAU_xDISPATCHER_CONTEXT@@PEBU_s_FuncInfo@@PEBU_s_HandlerType@@PEBU_s_CatchableType@@PEBU_s_TryBlockMapEntry@@H1EE@Z 0000000180018874 f   LIBCMT:frame.obj
 0001:00017938       ?FindHandler@@YAXPEAUEHExceptionRecord@@PEA_KPEAU_CONTEXT@@PEAU_xDISPATCHER_CONTEXT@@PEBU_s_FuncInfo@@EH1@Z 0000000180018938 f   LIBCMT:frame.obj
 0001:00017dec       ?FindHandlerForForeignException@@YAXPEAUEHExceptionRecord@@PEA_KPEAU_CONTEXT@@PEAU_xDISPATCHER_CONTEXT@@PEBU_s_FuncInfo@@HH1@Z 0000000180018dec f   LIBCMT:frame.obj
 0001:00018054       ?IsInExceptionSpec@@YAEPEAUEHExceptionRecord@@PEBU_s_ESTypeList@@@Z 0000000180019054 f   LIBCMT:frame.obj
 0001:0001923c       ?__crtLCMapStringA_stat@@YAHPEAUlocaleinfo_struct@@PEB_WKPEBDHPEADHHH@Z 000000018001a23c f   LIBCMT:a_map.obj
 0001:000195c0       ?__crtGetStringTypeA_stat@@YAHPEAUlocaleinfo_struct@@KPEBDHPEAGHH@Z 000000018001a5c0 f   LIBCMT:a_str.obj
 0001:00019800       $$000000                   000000018001a800     LIBCMT:memcmp.obj
 0001:00019de0       ?x_ismbbtype_l@@YAHPEAUlocaleinfo_struct@@IHH@Z 000000018001ade0 f   LIBCMT:ismbbyte.obj
 0001:0001a580       flsall                     000000018001b580 f   LIBCMT:fflush.obj
 0001:0001abf0       $$000000                   000000018001bbf0     LIBCMT:handlers.obj
 0001:0001d410       IsolationAwareLoadLibraryW$fin$0 000000018001e410 f   * CIL library *:* CIL module *
 0001:0001d460       WinbaseIsolationAwarePrivatetRgzlnPgpgk$fin$0 000000018001e460 f   * CIL library *:* CIL module *
 0001:0001d480       ?dtor$0@?0??CreateInstance@CFactory@@UEAAJPEAUIUnknown@@AEBU_GUID@@PEAPEAX@Z@4HA 000000018001e480 f   * CIL library *:* CIL module *
 0001:0001d48c       ?dtor$1@?0??CreateInstance@CFactory@@UEAAJPEAUIUnknown@@AEBU_GUID@@PEAPEAX@Z@4HA 000000018001e48c f   * CIL library *:* CIL module *
 0001:0001d498       ?dtor$2@?0??CreateInstance@CFactory@@UEAAJPEAUIUnknown@@AEBU_GUID@@PEAPEAX@Z@4HA 000000018001e498 f   * CIL library *:* CIL module *
 0001:0001d4a4       ?dtor$3@?0??CreateInstance@CFactory@@UEAAJPEAUIUnknown@@AEBU_GUID@@PEAPEAX@Z@4HA 000000018001e4a4 f   * CIL library *:* CIL module *
 0001:0001d4b0       IsolationAwareDialogBoxParamW$fin$0 000000018001e4b0 f   * CIL library *:* CIL module *
 0001:0001d500       IsolationAwareCreatePropertySheetPageW$fin$0 000000018001e500 f   * CIL library *:* CIL module *
 0001:0001d550       PrshtIsolationAwarePrivatetRgCebPnQQeRff_pbZPgYQP_QYY$fin$0 000000018001e550 f   * CIL library *:* CIL module *
 0001:0001d5a0       ?dtor$0@?0???0_bstr_t@@QEAA@PEB_W@Z@4HA 000000018001e5a0 f   * CIL library *:* CIL module *
 0001:0001d5b0       ?dtor$0@?0??Dot11ExtUIPropertyGetDisplayInfo@CExtUIKey@@UEAAJW4_DOT11_EXT_UI_DISPLAY_INFO_TYPE@@PEA_WPEAU_DOT11EXT_IHV_PARAMS@@PEAK3PEAPEAU_DOT11_EXT_UI_PROPERTY_DISPLAY_INFO@@@Z@4HA 000000018001e5b0 f   * CIL library *:* CIL module *
 0001:0001d5b0       ?dtor$0@?0??Dot11ExtUIPropertySetDisplayInfo@CExtUIKey@@UEAAJW4_DOT11_EXT_UI_DISPLAY_INFO_TYPE@@PEA_WPEAU_DOT11EXT_IHV_PARAMS@@PEAU_DOT11_EXT_UI_PROPERTY_DISPLAY_INFO@@PEAPEA_WPEAH@Z@4HA 000000018001e5b0 f   * CIL library *:* CIL module *
 0001:0001d5b0       ?dtor$0@?0??Dot11ExtUIPropertySetDisplayInfo@CExtUISec@@UEAAJW4_DOT11_EXT_UI_DISPLAY_INFO_TYPE@@PEA_WPEAU_DOT11EXT_IHV_PARAMS@@PEAU_DOT11_EXT_UI_PROPERTY_DISPLAY_INFO@@PEAPEA_WPEAH@Z@4HA 000000018001e5b0 f   * CIL library *:* CIL module *
 0001:0001d5b0       ?dtor$0@?0??Dot11ExtUIPropertyGetSelected@CExtUISec@@UEAAJPEA_WPEAU_DOT11EXT_IHV_PARAMS@@PEAH@Z@4HA 000000018001e5b0 f   * CIL library *:* CIL module *
 0001:0001d5b0       ?dtor$0@?0??Dot11ExtUIPropertyGetDisplayInfo@CExtUISec@@UEAAJW4_DOT11_EXT_UI_DISPLAY_INFO_TYPE@@PEA_WPEAU_DOT11EXT_IHV_PARAMS@@PEAK3PEAPEAU_DOT11_EXT_UI_PROPERTY_DISPLAY_INFO@@@Z@4HA 000000018001e5b0 f   * CIL library *:* CIL module *
 0001:0001d5b0       ?dtor$0@?0??Dot11ExtUIPropertyGetSelected@CExtUIKey@@UEAAJPEA_WPEAU_DOT11EXT_IHV_PARAMS@@PEAH@Z@4HA 000000018001e5b0 f   * CIL library *:* CIL module *
 0001:0001d5b0       ?dtor$0@?0??Dot11ExtUIPropertySetSelected@CExtUIKey@@UEAAJPEA_WPEAU_DOT11EXT_IHV_PARAMS@@PEAPEA_WPEAH@Z@4HA 000000018001e5b0 f   * CIL library *:* CIL module *
 0001:0001d5b0       ?dtor$0@?0??Dot11ExtUIPropertySetSelected@CExtUISec@@UEAAJPEA_WPEAU_DOT11EXT_IHV_PARAMS@@PEAPEA_WPEAH@Z@4HA 000000018001e5b0 f   * CIL library *:* CIL module *
 0001:0001d5c0       ?dtor$0@?0??DisplayDot11ExtUIProperty@CExtUISec@@UEAAJPEAUHWND__@@PEA_WPEAU_DOT11EXT_IHV_PARAMS@@PEAPEA_WPEAH@Z@4HA 000000018001e5c0 f   * CIL library *:* CIL module *
 0001:0001d5d0       ?dtor$8@?0??DisplayDot11ExtUIProperty@CExtUICon@@UEAAJPEAUHWND__@@PEA_WPEAU_DOT11EXT_IHV_PARAMS@@PEAPEA_WPEAH@Z@4HA 000000018001e5d0 f   * CIL library *:* CIL module *
 0001:0001d5dc       ?dtor$0@?0??DisplayDot11ExtUIProperty@CExtUICon@@UEAAJPEAUHWND__@@PEA_WPEAU_DOT11EXT_IHV_PARAMS@@PEAPEA_WPEAH@Z@4HA 000000018001e5dc f   * CIL library *:* CIL module *
 0001:0001d5e8       ?dtor$9@?0??DisplayDot11ExtUIProperty@CExtUICon@@UEAAJPEAUHWND__@@PEA_WPEAU_DOT11EXT_IHV_PARAMS@@PEAPEA_WPEAH@Z@4HA 000000018001e5e8 f   * CIL library *:* CIL module *
 0001:0001d5f4       ?dtor$1@?0??DisplayDot11ExtUIProperty@CExtUICon@@UEAAJPEAUHWND__@@PEA_WPEAU_DOT11EXT_IHV_PARAMS@@PEAPEA_WPEAH@Z@4HA 000000018001e5f4 f   * CIL library *:* CIL module *
 0001:0001d600       ?dtor$10@?0??DisplayDot11ExtUIProperty@CExtUICon@@UEAAJPEAUHWND__@@PEA_WPEAU_DOT11EXT_IHV_PARAMS@@PEAPEA_WPEAH@Z@4HA 000000018001e600 f   * CIL library *:* CIL module *
 0001:0001d60c       ?dtor$11@?0??DisplayDot11ExtUIProperty@CExtUICon@@UEAAJPEAUHWND__@@PEA_WPEAU_DOT11EXT_IHV_PARAMS@@PEAPEA_WPEAH@Z@4HA 000000018001e60c f   * CIL library *:* CIL module *
 0001:0001d618       ?dtor$2@?0??DisplayDot11ExtUIProperty@CExtUICon@@UEAAJPEAUHWND__@@PEA_WPEAU_DOT11EXT_IHV_PARAMS@@PEAPEA_WPEAH@Z@4HA 000000018001e618 f   * CIL library *:* CIL module *
 0001:0001d624       ?dtor$12@?0??DisplayDot11ExtUIProperty@CExtUICon@@UEAAJPEAUHWND__@@PEA_WPEAU_DOT11EXT_IHV_PARAMS@@PEAPEA_WPEAH@Z@4HA 000000018001e624 f   * CIL library *:* CIL module *
 0001:0001d630       ?dtor$3@?0??DisplayDot11ExtUIProperty@CExtUICon@@UEAAJPEAUHWND__@@PEA_WPEAU_DOT11EXT_IHV_PARAMS@@PEAPEA_WPEAH@Z@4HA 000000018001e630 f   * CIL library *:* CIL module *
 0001:0001d63c       ?dtor$13@?0??DisplayDot11ExtUIProperty@CExtUICon@@UEAAJPEAUHWND__@@PEA_WPEAU_DOT11EXT_IHV_PARAMS@@PEAPEA_WPEAH@Z@4HA 000000018001e63c f   * CIL library *:* CIL module *
 0001:0001d648       ?dtor$4@?0??DisplayDot11ExtUIProperty@CExtUICon@@UEAAJPEAUHWND__@@PEA_WPEAU_DOT11EXT_IHV_PARAMS@@PEAPEA_WPEAH@Z@4HA 000000018001e648 f   * CIL library *:* CIL module *
 0001:0001d654       ?dtor$14@?0??DisplayDot11ExtUIProperty@CExtUICon@@UEAAJPEAUHWND__@@PEA_WPEAU_DOT11EXT_IHV_PARAMS@@PEAPEA_WPEAH@Z@4HA 000000018001e654 f   * CIL library *:* CIL module *
 0001:0001d660       ?dtor$15@?0??DisplayDot11ExtUIProperty@CExtUICon@@UEAAJPEAUHWND__@@PEA_WPEAU_DOT11EXT_IHV_PARAMS@@PEAPEA_WPEAH@Z@4HA 000000018001e660 f   * CIL library *:* CIL module *
 0001:0001d66c       ?dtor$5@?0??DisplayDot11ExtUIProperty@CExtUICon@@UEAAJPEAUHWND__@@PEA_WPEAU_DOT11EXT_IHV_PARAMS@@PEAPEA_WPEAH@Z@4HA 000000018001e66c f   * CIL library *:* CIL module *
 0001:0001d678       ?dtor$16@?0??DisplayDot11ExtUIProperty@CExtUICon@@UEAAJPEAUHWND__@@PEA_WPEAU_DOT11EXT_IHV_PARAMS@@PEAPEA_WPEAH@Z@4HA 000000018001e678 f   * CIL library *:* CIL module *
 0001:0001d684       ?dtor$17@?0??DisplayDot11ExtUIProperty@CExtUICon@@UEAAJPEAUHWND__@@PEA_WPEAU_DOT11EXT_IHV_PARAMS@@PEAPEA_WPEAH@Z@4HA 000000018001e684 f   * CIL library *:* CIL module *
 0001:0001d690       ?dtor$6@?0??DisplayDot11ExtUIProperty@CExtUICon@@UEAAJPEAUHWND__@@PEA_WPEAU_DOT11EXT_IHV_PARAMS@@PEAPEA_WPEAH@Z@4HA 000000018001e690 f   * CIL library *:* CIL module *
 0001:0001d69c       ?dtor$18@?0??DisplayDot11ExtUIProperty@CExtUICon@@UEAAJPEAUHWND__@@PEA_WPEAU_DOT11EXT_IHV_PARAMS@@PEAPEA_WPEAH@Z@4HA 000000018001e69c f   * CIL library *:* CIL module *
 0001:0001d6a8       ?dtor$19@?0??DisplayDot11ExtUIProperty@CExtUICon@@UEAAJPEAUHWND__@@PEA_WPEAU_DOT11EXT_IHV_PARAMS@@PEAPEA_WPEAH@Z@4HA 000000018001e6a8 f   * CIL library *:* CIL module *
 0001:0001d6b4       ?dtor$7@?0??DisplayDot11ExtUIProperty@CExtUICon@@UEAAJPEAUHWND__@@PEA_WPEAU_DOT11EXT_IHV_PARAMS@@PEAPEA_WPEAH@Z@4HA 000000018001e6b4 f   * CIL library *:* CIL module *
 0001:0001d6c0       ?dtor$20@?0??DisplayDot11ExtUIProperty@CExtUICon@@UEAAJPEAUHWND__@@PEA_WPEAU_DOT11EXT_IHV_PARAMS@@PEAPEA_WPEAH@Z@4HA 000000018001e6c0 f   * CIL library *:* CIL module *
 0001:0001d6d0       ?catch$1@?0??_Copy@?$basic_string@DU?$char_traits@D@std@@V?$allocator@D@2@@std@@QEAAX_K0@Z@4HA 000000018001e6d0 f   * CIL library *:* CIL module *
 0001:0001d6dd       __catch$?_Copy@?$basic_string@DU?$char_traits@D@std@@V?$allocator@D@2@@std@@QEAAX_K0@Z$0 000000018001e6dd f   * CIL library *:* CIL module *
 0001:0001d713       ?catch$0@?0??_Copy@?$basic_string@DU?$char_traits@D@std@@V?$allocator@D@2@@std@@QEAAX_K0@Z@4HA 000000018001e713 f   * CIL library *:* CIL module *
 0001:0001d721       __catch$?_Copy@?$basic_string@DU?$char_traits@D@std@@V?$allocator@D@2@@std@@QEAAX_K0@Z$1 000000018001e721 f   * CIL library *:* CIL module *
 0001:0001d760       ?dtor$0@?0??xmlSet@DPTProfile@@QEAAXPEAUIXMLDOMDocument@@PEA_W@Z@4HA 000000018001e760 f   * CIL library *:* CIL module *
 0001:0001d76c       ?dtor$1@?0??xmlSet@DPTProfile@@QEAAXPEAUIXMLDOMDocument@@PEA_W@Z@4HA 000000018001e76c f   * CIL library *:* CIL module *
 0001:0001d778       ?dtor$2@?0??xmlSet@DPTProfile@@QEAAXPEAUIXMLDOMDocument@@PEA_W@Z@4HA 000000018001e778 f   * CIL library *:* CIL module *
 0001:0001d784       ?dtor$3@?0??xmlSet@DPTProfile@@QEAAXPEAUIXMLDOMDocument@@PEA_W@Z@4HA 000000018001e784 f   * CIL library *:* CIL module *
 0001:0001d790       ?dtor$4@?0??xmlSet@DPTProfile@@QEAAXPEAUIXMLDOMDocument@@PEA_W@Z@4HA 000000018001e790 f   * CIL library *:* CIL module *
 0001:0001d79c       ?dtor$5@?0??xmlSet@DPTProfile@@QEAAXPEAUIXMLDOMDocument@@PEA_W@Z@4HA 000000018001e79c f   * CIL library *:* CIL module *
 0001:0001d7a8       ?dtor$6@?0??xmlSet@DPTProfile@@QEAAXPEAUIXMLDOMDocument@@PEA_W@Z@4HA 000000018001e7a8 f   * CIL library *:* CIL module *
 0001:0001d7c0       ?dtor$0@?0??xmlSet@DPTProfile@@QEAAXPEB_W@Z@4HA 000000018001e7c0 f   * CIL library *:* CIL module *
 0001:0001d7d0       ?dtor$0@?0??xmlGet@DPTProfile@@QEAAPEA_WPEAUIXMLDOMDocument@@@Z@4HA 000000018001e7d0 f   * CIL library *:* CIL module *
 0001:0001d7dc       ?dtor$1@?0??xmlGet@DPTProfile@@QEAAPEA_WPEAUIXMLDOMDocument@@@Z@4HA 000000018001e7dc f   * CIL library *:* CIL module *
 0001:0001d808       ?dtor$2@?0??xmlGet@DPTProfile@@QEAAPEA_WPEAUIXMLDOMDocument@@@Z@4HA 000000018001e808 f   * CIL library *:* CIL module *
 0001:0001d834       ?dtor$3@?0??xmlGet@DPTProfile@@QEAAPEA_WPEAUIXMLDOMDocument@@@Z@4HA 000000018001e834 f   * CIL library *:* CIL module *
 0001:0001d840       ?dtor$4@?0??xmlGet@DPTProfile@@QEAAPEA_WPEAUIXMLDOMDocument@@@Z@4HA 000000018001e840 f   * CIL library *:* CIL module *
 0001:0001d84c       ?dtor$5@?0??xmlGet@DPTProfile@@QEAAPEA_WPEAUIXMLDOMDocument@@@Z@4HA 000000018001e84c f   * CIL library *:* CIL module *
 0001:0001d858       ?dtor$6@?0??xmlGet@DPTProfile@@QEAAPEA_WPEAUIXMLDOMDocument@@@Z@4HA 000000018001e858 f   * CIL library *:* CIL module *
 0001:0001d864       ?dtor$7@?0??xmlGet@DPTProfile@@QEAAPEA_WPEAUIXMLDOMDocument@@@Z@4HA 000000018001e864 f   * CIL library *:* CIL module *
 0001:0001d870       ?dtor$0@?0??xmlGet@DPTProfile@@QEAAPEA_WXZ@4HA 000000018001e870 f   * CIL library *:* CIL module *
 0001:0001d880       ?dtor$0@?0??EnumStrings@@YAHPEAUHINSTANCE__@@KP6AXPEA_WK@Z@Z@4HA 000000018001e880 f   * CIL library *:* CIL module *
 0001:0001d890       ?dtor$0@?0??TranslateString@@YA?AV?$basic_string@_WU?$char_traits@_W@std@@V?$allocator@_W@2@@std@@PEA_WH@Z@4HA 000000018001e890 f   * CIL library *:* CIL module *
 0001:0001d89c       ?dtor$2@?0??TranslateString@@YA?AV?$basic_string@_WU?$char_traits@_W@std@@V?$allocator@_W@2@@std@@PEA_WH@Z@4HA 000000018001e89c f   * CIL library *:* CIL module *
 0001:0001d8b0       ?catch$1@?0??_Copy@?$basic_string@_WU?$char_traits@_W@std@@V?$allocator@_W@2@@std@@QEAAX_K0@Z@4HA 000000018001e8b0 f   * CIL library *:* CIL module *
 0001:0001d8bd       __catch$?_Copy@?$basic_string@_WU?$char_traits@_W@std@@V?$allocator@_W@2@@std@@QEAAX_K0@Z$0 000000018001e8bd f   * CIL library *:* CIL module *
 0001:0001d8ff       ?catch$0@?0??_Copy@?$basic_string@_WU?$char_traits@_W@std@@V?$allocator@_W@2@@std@@QEAAX_K0@Z@4HA 000000018001e8ff f   * CIL library *:* CIL module *
 0001:0001d90d       __catch$?_Copy@?$basic_string@_WU?$char_traits@_W@std@@V?$allocator@_W@2@@std@@QEAAX_K0@Z$1 000000018001e90d f   * CIL library *:* CIL module *
 0001:0001d940       ?dtor$0@?0???$?H_WU?$char_traits@_W@std@@V?$allocator@_W@1@@std@@YA?AV?$basic_string@_WU?$char_traits@_W@std@@V?$allocator@_W@2@@0@AEBV10@PEB_W@Z@4HA 000000018001e940 f   * CIL library *:* CIL module *
 0001:0001d970       ?dtor$0@?0???$_Buynode@AEBUpiecewise_construct_t@std@@V?$tuple@AEBV?$basic_string@_WU?$char_traits@_W@std@@V?$allocator@_W@2@@std@@@2@V?$tuple@$$$V@2@@?$_Tree_buy@U?$pair@$$CBV?$basic_string@_WU?$char_traits@_W@std@@V?$allocator@_W@2@@std@@H@std@@V?$allocator@U?$pair@$$CBV?$basic_string@_WU?$char_traits@_W@std@@V?$allocator@_W@2@@std@@H@std@@@2@@std@@QEAAPEAU?$_Tree_node@U?$pair@$$CBV?$basic_string@_WU?$char_traits@_W@std@@V?$allocator@_W@2@@std@@H@std@@PEAX@1@AEBUpiecewise_construct_t@1@$$QEAV?$tuple@AEBV?$basic_string@_WU?$char_traits@_W@std@@V?$allocator@_W@2@@std@@@1@$$QEAV?$tuple@$$$V@1@@Z@4HA 000000018001e970 f   * CIL library *:* CIL module *
 0001:0001d98c       ?catch$0@?0???$_Buynode@AEBUpiecewise_construct_t@std@@V?$tuple@AEBV?$basic_string@_WU?$char_traits@_W@std@@V?$allocator@_W@2@@std@@@2@V?$tuple@$$$V@2@@?$_Tree_buy@U?$pair@$$CBV?$basic_string@_WU?$char_traits@_W@std@@V?$allocator@_W@2@@std@@H@std@@V?$allocator@U?$pair@$$CBV?$basic_string@_WU?$char_traits@_W@std@@V?$allocator@_W@2@@std@@H@std@@@2@@std@@QEAAPEAU?$_Tree_node@U?$pair@$$CBV?$basic_string@_WU?$char_traits@_W@std@@V?$allocator@_W@2@@std@@H@std@@PEAX@1@AEBUpiecewise_construct_t@1@$$QEAV?$tuple@AEBV?$basic_string@_WU?$char_traits@_W@std@@V?$allocator@_W@2@@std@@@1@$$QEAV?$tuple@$$$V@1@@Z@4HA 000000018001e98c f   * CIL library *:* CIL module *
 0001:0001d999       __catch$??$_Buynode@AEBUpiecewise_construct_t@std@@V?$tuple@AEBV?$basic_string@_WU?$char_traits@_W@std@@V?$allocator@_W@2@@std@@@2@V?$tuple@$$$V@2@@?$_Tree_buy@U?$pair@$$CBV?$basic_string@_WU?$char_traits@_W@std@@V?$allocator@_W@2@@std@@H@std@@V?$allocator@U?$pair@$$CBV?$basic_string@_WU?$char_traits@_W@std@@V?$allocator@_W@2@@std@@H@std@@@2@@std@@QEAAPEAU?$_Tree_node@U?$pair@$$CBV?$basic_string@_WU?$char_traits@_W@std@@V?$allocator@_W@2@@std@@H@std@@PEAX@1@AEBUpiecewise_construct_t@1@$$QEAV?$tuple@AEBV?$basic_string@_WU?$char_traits@_W@std@@V?$allocator@_W@2@@std@@@1@$$QEAV?$tuple@$$$V@1@@Z$0 000000018001e999 f   * CIL library *:* CIL module *
 0001:0001d9b0       ?catch$0@?0???$_Insert_hint@AEAU?$pair@$$CBV?$basic_string@_WU?$char_traits@_W@std@@V?$allocator@_W@2@@std@@H@std@@PEAU?$_Tree_node@U?$pair@$$CBV?$basic_string@_WU?$char_traits@_W@std@@V?$allocator@_W@2@@std@@H@std@@PEAX@2@@?$_Tree@V?$_Tmap_traits@V?$basic_string@_WU?$char_traits@_W@std@@V?$allocator@_W@2@@std@@HU?$less@V?$basic_string@_WU?$char_traits@_W@std@@V?$allocator@_W@2@@std@@@2@V?$allocator@U?$pair@$$CBV?$basic_string@_WU?$char_traits@_W@std@@V?$allocator@_W@2@@std@@H@std@@@2@$0A@@std@@@std@@IEAA?AV?$_Tree_iterator@V?$_Tree_val@U?$_Tree_simple_types@U?$pair@$$CBV?$basic_string@_WU?$char_traits@_W@std@@V?$allocator@_W@2@@std@@H@std@@@std@@@std@@@1@V?$_Tree_const_iterator@V?$_Tree_val@U?$_Tree_simple_types@U?$pair@$$CBV?$basic_string@_WU?$char_traits@_W@std@@V?$allocator@_W@2@@std@@H@std@@@std@@@std@@@1@AEAU?$pair@$$CBV?$basic_string@_WU?$char_traits@_W@std@@V?$allocator@_W@2@@std@@H@1@PEAU?$_Tree_node@U?$pair@$$CBV?$basic_string@_WU?$char_traits@_W@std@@V?$allocator@_W@2@@std@@H@std@@PEAX@1@@Z@4HA 000000018001e9b0 f   * CIL library *:* CIL module *
 0001:0001d9bd       __catch$??$_Insert_hint@AEAU?$pair@$$CBV?$basic_string@_WU?$char_traits@_W@std@@V?$allocator@_W@2@@std@@H@std@@PEAU?$_Tree_node@U?$pair@$$CBV?$basic_string@_WU?$char_traits@_W@std@@V?$allocator@_W@2@@std@@H@std@@PEAX@2@@?$_Tree@V?$_Tmap_traits@V?$basic_string@_WU?$char_traits@_W@std@@V?$allocator@_W@2@@std@@HU?$less@V?$basic_string@_WU?$char_traits@_W@std@@V?$allocator@_W@2@@std@@@2@V?$allocator@U?$pair@$$CBV?$basic_string@_WU?$char_traits@_W@std@@V?$allocator@_W@2@@std@@H@std@@@2@$0A@@std@@@std@@IEAA?AV?$_Tree_iterator@V?$_Tree_val@U?$_Tree_simple_types@U?$pair@$$CBV?$basic_string@_WU?$char_traits@_W@std@@V?$allocator@_W@2@@std@@H@std@@@std@@@std@@@1@V?$_Tree_const_iterator@V?$_Tree_val@U?$_Tree_simple_types@U?$pair@$$CBV?$basic_string@_WU?$char_traits@_W@std@@V?$allocator@_W@2@@std@@H@std@@@std@@@std@@@1@AEAU?$pair@$$CBV?$basic_string@_WU?$char_traits@_W@std@@V?$allocator@_W@2@@std@@H@1@PEAU?$_Tree_node@U?$pair@$$CBV?$basic_string@_WU?$char_traits@_W@std@@V?$allocator@_W@2@@std@@H@std@@PEAX@1@@Z$0 000000018001e9bd f   * CIL library *:* CIL module *
 0001:0001d9e0       ?catch$0@?0???$_Insert_nohint@AEAU?$pair@$$CBV?$basic_string@_WU?$char_traits@_W@std@@V?$allocator@_W@2@@std@@H@std@@PEAU?$_Tree_node@U?$pair@$$CBV?$basic_string@_WU?$char_traits@_W@std@@V?$allocator@_W@2@@std@@H@std@@PEAX@2@@?$_Tree@V?$_Tmap_traits@V?$basic_string@_WU?$char_traits@_W@std@@V?$allocator@_W@2@@std@@HU?$less@V?$basic_string@_WU?$char_traits@_W@std@@V?$allocator@_W@2@@std@@@2@V?$allocator@U?$pair@$$CBV?$basic_string@_WU?$char_traits@_W@std@@V?$allocator@_W@2@@std@@H@std@@@2@$0A@@std@@@std@@IEAA?AU?$pair@V?$_Tree_iterator@V?$_Tree_val@U?$_Tree_simple_types@U?$pair@$$CBV?$basic_string@_WU?$char_traits@_W@std@@V?$allocator@_W@2@@std@@H@std@@@std@@@std@@@std@@_N@1@_NAEAU?$pair@$$CBV?$basic_string@_WU?$char_traits@_W@std@@V?$allocator@_W@2@@std@@H@1@PEAU?$_Tree_node@U?$pair@$$CBV?$basic_string@_WU?$char_traits@_W@std@@V?$allocator@_W@2@@std@@H@std@@PEAX@1@@Z@4HA 000000018001e9e0 f   * CIL library *:* CIL module *
 0001:0001d9ed       __catch$??$_Insert_nohint@AEAU?$pair@$$CBV?$basic_string@_WU?$char_traits@_W@std@@V?$allocator@_W@2@@std@@H@std@@PEAU?$_Tree_node@U?$pair@$$CBV?$basic_string@_WU?$char_traits@_W@std@@V?$allocator@_W@2@@std@@H@std@@PEAX@2@@?$_Tree@V?$_Tmap_traits@V?$basic_string@_WU?$char_traits@_W@std@@V?$allocator@_W@2@@std@@HU?$less@V?$basic_string@_WU?$char_traits@_W@std@@V?$allocator@_W@2@@std@@@2@V?$allocator@U?$pair@$$CBV?$basic_string@_WU?$char_traits@_W@std@@V?$allocator@_W@2@@std@@H@std@@@2@$0A@@std@@@std@@IEAA?AU?$pair@V?$_Tree_iterator@V?$_Tree_val@U?$_Tree_simple_types@U?$pair@$$CBV?$basic_string@_WU?$char_traits@_W@std@@V?$allocator@_W@2@@std@@H@std@@@std@@@std@@@std@@_N@1@_NAEAU?$pair@$$CBV?$basic_string@_WU?$char_traits@_W@std@@V?$allocator@_W@2@@std@@H@1@PEAU?$_Tree_node@U?$pair@$$CBV?$basic_string@_WU?$char_traits@_W@std@@V?$allocator@_W@2@@std@@H@std@@PEAX@1@@Z$0 000000018001e9ed f   * CIL library *:* CIL module *
 0001:0001da10       ?dtor$0@?0??IsValid@CProfileIHVSecurity@@QEAAHXZ@4HA 000000018001ea10 f   * CIL library *:* CIL module *
 0001:0001da1c       ?dtor$1@?0??IsValid@CProfileIHVSecurity@@QEAAHXZ@4HA 000000018001ea1c f   * CIL library *:* CIL module *
 0001:0001da30       ?dtor$0@?0??xmlSet@CProfileIHVSecurity@@QEAAXPEB_W@Z@4HA 000000018001ea30 f   * CIL library *:* CIL module *
 0001:0001da3c       ?dtor$1@?0??xmlSet@CProfileIHVSecurity@@QEAAXPEB_W@Z@4HA 000000018001ea3c f   * CIL library *:* CIL module *
 0001:0001da48       ?dtor$2@?0??xmlSet@CProfileIHVSecurity@@QEAAXPEB_W@Z@4HA 000000018001ea48 f   * CIL library *:* CIL module *
 0001:0001da54       ?dtor$3@?0??xmlSet@CProfileIHVSecurity@@QEAAXPEB_W@Z@4HA 000000018001ea54 f   * CIL library *:* CIL module *
 0001:0001da60       ?dtor$4@?0??xmlSet@CProfileIHVSecurity@@QEAAXPEB_W@Z@4HA 000000018001ea60 f   * CIL library *:* CIL module *
 0001:0001da6c       ?dtor$5@?0??xmlSet@CProfileIHVSecurity@@QEAAXPEB_W@Z@4HA 000000018001ea6c f   * CIL library *:* CIL module *
 0001:0001da78       ?dtor$6@?0??xmlSet@CProfileIHVSecurity@@QEAAXPEB_W@Z@4HA 000000018001ea78 f   * CIL library *:* CIL module *
 0001:0001da84       ?dtor$7@?0??xmlSet@CProfileIHVSecurity@@QEAAXPEB_W@Z@4HA 000000018001ea84 f   * CIL library *:* CIL module *
 0001:0001da90       ?dtor$8@?0??xmlSet@CProfileIHVSecurity@@QEAAXPEB_W@Z@4HA 000000018001ea90 f   * CIL library *:* CIL module *
 0001:0001da9c       ?dtor$9@?0??xmlSet@CProfileIHVSecurity@@QEAAXPEB_W@Z@4HA 000000018001ea9c f   * CIL library *:* CIL module *
 0001:0001daa8       ?dtor$10@?0??xmlSet@CProfileIHVSecurity@@QEAAXPEB_W@Z@4HA 000000018001eaa8 f   * CIL library *:* CIL module *
 0001:0001dab4       ?dtor$11@?0??xmlSet@CProfileIHVSecurity@@QEAAXPEB_W@Z@4HA 000000018001eab4 f   * CIL library *:* CIL module *
 0001:0001dac0       ?dtor$0@?0??xmlGet@CProfileIHVSecurity@@QEAAPEA_WXZ@4HA 000000018001eac0 f   * CIL library *:* CIL module *
 0001:0001dacc       ?dtor$1@?0??xmlGet@CProfileIHVSecurity@@QEAAPEA_WXZ@4HA 000000018001eacc f   * CIL library *:* CIL module *
 0001:0001dad8       ?dtor$2@?0??xmlGet@CProfileIHVSecurity@@QEAAPEA_WXZ@4HA 000000018001ead8 f   * CIL library *:* CIL module *
 0001:0001dae4       ?dtor$3@?0??xmlGet@CProfileIHVSecurity@@QEAAPEA_WXZ@4HA 000000018001eae4 f   * CIL library *:* CIL module *
 0001:0001daf0       ?dtor$4@?0??xmlGet@CProfileIHVSecurity@@QEAAPEA_WXZ@4HA 000000018001eaf0 f   * CIL library *:* CIL module *
 0001:0001dafc       ?dtor$5@?0??xmlGet@CProfileIHVSecurity@@QEAAPEA_WXZ@4HA 000000018001eafc f   * CIL library *:* CIL module *
 0001:0001db08       ?dtor$6@?0??xmlGet@CProfileIHVSecurity@@QEAAPEA_WXZ@4HA 000000018001eb08 f   * CIL library *:* CIL module *
 0001:0001db14       ?dtor$7@?0??xmlGet@CProfileIHVSecurity@@QEAAPEA_WXZ@4HA 000000018001eb14 f   * CIL library *:* CIL module *
 0001:0001db40       ?dtor$8@?0??xmlGet@CProfileIHVSecurity@@QEAAPEA_WXZ@4HA 000000018001eb40 f   * CIL library *:* CIL module *
 0001:0001db6c       ?dtor$9@?0??xmlGet@CProfileIHVSecurity@@QEAAPEA_WXZ@4HA 000000018001eb6c f   * CIL library *:* CIL module *
 0001:0001db78       ?dtor$10@?0??xmlGet@CProfileIHVSecurity@@QEAAPEA_WXZ@4HA 000000018001eb78 f   * CIL library *:* CIL module *
 0001:0001db84       ?dtor$11@?0??xmlGet@CProfileIHVSecurity@@QEAAPEA_WXZ@4HA 000000018001eb84 f   * CIL library *:* CIL module *
 0001:0001db90       ?dtor$12@?0??xmlGet@CProfileIHVSecurity@@QEAAPEA_WXZ@4HA 000000018001eb90 f   * CIL library *:* CIL module *
 0001:0001db9c       ?dtor$13@?0??xmlGet@CProfileIHVSecurity@@QEAAPEA_WXZ@4HA 000000018001eb9c f   * CIL library *:* CIL module *
 0001:0001dbb0       ?dtor$0@?0??IsValid@CProfileIHVConnectivity@@QEAAHXZ@4HA 000000018001ebb0 f   * CIL library *:* CIL module *
 0001:0001dbc0       ?dtor$0@?0??xmlSet@CProfileIHVConnectivity@@QEAAXPEB_W@Z@4HA 000000018001ebc0 f   * CIL library *:* CIL module *
 0001:0001dbcc       ?dtor$1@?0??xmlSet@CProfileIHVConnectivity@@QEAAXPEB_W@Z@4HA 000000018001ebcc f   * CIL library *:* CIL module *
 0001:0001dbd8       ?dtor$2@?0??xmlSet@CProfileIHVConnectivity@@QEAAXPEB_W@Z@4HA 000000018001ebd8 f   * CIL library *:* CIL module *
 0001:0001dbe4       ?dtor$3@?0??xmlSet@CProfileIHVConnectivity@@QEAAXPEB_W@Z@4HA 000000018001ebe4 f   * CIL library *:* CIL module *
 0001:0001dbf0       ?dtor$6@?0??xmlSet@CProfileIHVConnectivity@@QEAAXPEB_W@Z@4HA 000000018001ebf0 f   * CIL library *:* CIL module *
 0001:0001dbfc       ?dtor$7@?0??xmlSet@CProfileIHVConnectivity@@QEAAXPEB_W@Z@4HA 000000018001ebfc f   * CIL library *:* CIL module *
 0001:0001dc08       ?dtor$8@?0??xmlSet@CProfileIHVConnectivity@@QEAAXPEB_W@Z@4HA 000000018001ec08 f   * CIL library *:* CIL module *
 0001:0001dc14       ?dtor$10@?0??xmlSet@CProfileIHVConnectivity@@QEAAXPEB_W@Z@4HA 000000018001ec14 f   * CIL library *:* CIL module *
 0001:0001dc20       ?dtor$11@?0??xmlSet@CProfileIHVConnectivity@@QEAAXPEB_W@Z@4HA 000000018001ec20 f   * CIL library *:* CIL module *
 0001:0001dc2c       ?dtor$12@?0??xmlSet@CProfileIHVConnectivity@@QEAAXPEB_W@Z@4HA 000000018001ec2c f   * CIL library *:* CIL module *
 0001:0001dc38       ?dtor$13@?0??xmlSet@CProfileIHVConnectivity@@QEAAXPEB_W@Z@4HA 000000018001ec38 f   * CIL library *:* CIL module *
 0001:0001dc44       ?dtor$14@?0??xmlSet@CProfileIHVConnectivity@@QEAAXPEB_W@Z@4HA 000000018001ec44 f   * CIL library *:* CIL module *
 0001:0001dc50       ?dtor$15@?0??xmlSet@CProfileIHVConnectivity@@QEAAXPEB_W@Z@4HA 000000018001ec50 f   * CIL library *:* CIL module *
 0001:0001dc5c       ?dtor$16@?0??xmlSet@CProfileIHVConnectivity@@QEAAXPEB_W@Z@4HA 000000018001ec5c f   * CIL library *:* CIL module *
 0001:0001dc68       ?dtor$17@?0??xmlSet@CProfileIHVConnectivity@@QEAAXPEB_W@Z@4HA 000000018001ec68 f   * CIL library *:* CIL module *
 0001:0001dc74       ?dtor$18@?0??xmlSet@CProfileIHVConnectivity@@QEAAXPEB_W@Z@4HA 000000018001ec74 f   * CIL library *:* CIL module *
 0001:0001dc80       ?dtor$19@?0??xmlSet@CProfileIHVConnectivity@@QEAAXPEB_W@Z@4HA 000000018001ec80 f   * CIL library *:* CIL module *
 0001:0001dc8c       ?dtor$20@?0??xmlSet@CProfileIHVConnectivity@@QEAAXPEB_W@Z@4HA 000000018001ec8c f   * CIL library *:* CIL module *
 0001:0001dc98       ?dtor$21@?0??xmlSet@CProfileIHVConnectivity@@QEAAXPEB_W@Z@4HA 000000018001ec98 f   * CIL library *:* CIL module *
 0001:0001dca4       ?dtor$22@?0??xmlSet@CProfileIHVConnectivity@@QEAAXPEB_W@Z@4HA 000000018001eca4 f   * CIL library *:* CIL module *
 0001:0001dcb0       ?dtor$23@?0??xmlSet@CProfileIHVConnectivity@@QEAAXPEB_W@Z@4HA 000000018001ecb0 f   * CIL library *:* CIL module *
 0001:0001dcc0       ?dtor$0@?0??xmlGet@CProfileIHVConnectivity@@QEAAPEA_WXZ@4HA 000000018001ecc0 f   * CIL library *:* CIL module *
 0001:0001dccc       ?dtor$1@?0??xmlGet@CProfileIHVConnectivity@@QEAAPEA_WXZ@4HA 000000018001eccc f   * CIL library *:* CIL module *
 0001:0001dcd8       ?dtor$2@?0??xmlGet@CProfileIHVConnectivity@@QEAAPEA_WXZ@4HA 000000018001ecd8 f   * CIL library *:* CIL module *
 0001:0001dcfe       ?dtor$3@?0??xmlGet@CProfileIHVConnectivity@@QEAAPEA_WXZ@4HA 000000018001ecfe f   * CIL library *:* CIL module *
 0001:0001dd24       ?dtor$4@?0??xmlGet@CProfileIHVConnectivity@@QEAAPEA_WXZ@4HA 000000018001ed24 f   * CIL library *:* CIL module *
 0001:0001dd30       ?dtor$5@?0??xmlGet@CProfileIHVConnectivity@@QEAAPEA_WXZ@4HA 000000018001ed30 f   * CIL library *:* CIL module *
 0001:0001dd3c       ?dtor$6@?0??xmlGet@CProfileIHVConnectivity@@QEAAPEA_WXZ@4HA 000000018001ed3c f   * CIL library *:* CIL module *
 0001:0001dd48       ?dtor$7@?0??xmlGet@CProfileIHVConnectivity@@QEAAPEA_WXZ@4HA 000000018001ed48 f   * CIL library *:* CIL module *
 0001:0001dd54       ?dtor$8@?0??xmlGet@CProfileIHVConnectivity@@QEAAPEA_WXZ@4HA 000000018001ed54 f   * CIL library *:* CIL module *
 0001:0001dd60       ?dtor$9@?0??xmlGet@CProfileIHVConnectivity@@QEAAPEA_WXZ@4HA 000000018001ed60 f   * CIL library *:* CIL module *
 0001:0001dd6c       ?dtor$10@?0??xmlGet@CProfileIHVConnectivity@@QEAAPEA_WXZ@4HA 000000018001ed6c f   * CIL library *:* CIL module *
 0001:0001dd78       ?dtor$11@?0??xmlGet@CProfileIHVConnectivity@@QEAAPEA_WXZ@4HA 000000018001ed78 f   * CIL library *:* CIL module *
 0001:0001dd84       ?dtor$12@?0??xmlGet@CProfileIHVConnectivity@@QEAAPEA_WXZ@4HA 000000018001ed84 f   * CIL library *:* CIL module *
 0001:0001dd90       ?dtor$13@?0??xmlGet@CProfileIHVConnectivity@@QEAAPEA_WXZ@4HA 000000018001ed90 f   * CIL library *:* CIL module *
 0001:0001dd9c       ?dtor$14@?0??xmlGet@CProfileIHVConnectivity@@QEAAPEA_WXZ@4HA 000000018001ed9c f   * CIL library *:* CIL module *
 0001:0001ddc2       ?dtor$15@?0??xmlGet@CProfileIHVConnectivity@@QEAAPEA_WXZ@4HA 000000018001edc2 f   * CIL library *:* CIL module *
 0001:0001dde8       ?dtor$16@?0??xmlGet@CProfileIHVConnectivity@@QEAAPEA_WXZ@4HA 000000018001ede8 f   * CIL library *:* CIL module *
 0001:0001ddf4       ?dtor$17@?0??xmlGet@CProfileIHVConnectivity@@QEAAPEA_WXZ@4HA 000000018001edf4 f   * CIL library *:* CIL module *
 0001:0001de00       ?dtor$18@?0??xmlGet@CProfileIHVConnectivity@@QEAAPEA_WXZ@4HA 000000018001ee00 f   * CIL library *:* CIL module *
 0001:0001de0c       ?dtor$19@?0??xmlGet@CProfileIHVConnectivity@@QEAAPEA_WXZ@4HA 000000018001ee0c f   * CIL library *:* CIL module *
 0001:0001de18       ?dtor$20@?0??xmlGet@CProfileIHVConnectivity@@QEAAPEA_WXZ@4HA 000000018001ee18 f   * CIL library *:* CIL module *
 0001:0001de24       ?dtor$21@?0??xmlGet@CProfileIHVConnectivity@@QEAAPEA_WXZ@4HA 000000018001ee24 f   * CIL library *:* CIL module *
 0001:0001de4a       ?dtor$22@?0??xmlGet@CProfileIHVConnectivity@@QEAAPEA_WXZ@4HA 000000018001ee4a f   * CIL library *:* CIL module *
 0001:0001de70       ?dtor$23@?0??xmlGet@CProfileIHVConnectivity@@QEAAPEA_WXZ@4HA 000000018001ee70 f   * CIL library *:* CIL module *
 0001:0001de7c       _onexit$fin$0              000000018001ee7c f   LIBCMT:onexit.obj
 0001:0001de90       ?catch$0@?0???2@YAPEAX_KAEBUnothrow_t@std@@@Z@4HA 000000018001ee90 f   LIBCMT:newopnt.obj
 0001:0001de9d       __catch$??2@YAPEAX_KAEBUnothrow_t@std@@@Z$0 000000018001ee9d f   LIBCMT:newopnt.obj
 0001:0001deb0       _CRT_INIT$fin$0            000000018001eeb0 f   LIBCMT:dllcrt0.obj
 0001:0001ded6       __DllMainCRTStartup$filt$0 000000018001eed6 f   LIBCMT:dllcrt0.obj
 0001:0001df1f       ?fin$0@?0??_Type_info_dtor@type_info@@CAXPEAV1@@Z@4HA 000000018001ef1f f   LIBCMT:typname.obj
 0001:0001df38       doexit$fin$0               000000018001ef38 f   LIBCMT:crt0dat.obj
 0001:0001df5c       _CallSETranslator$filt$0   000000018001ef5c f   LIBCMT:trnsctrl.obj
 0001:0001dfa2       _locterm$fin$0             000000018001efa2 f   LIBCMT:localref.obj
 0001:0001dfa2       __updatetlocinfo$fin$0     000000018001efa2 f   LIBCMT:localref.obj
 0001:0001dfbb       _setmbcp$fin$0             000000018001efbb f   LIBCMT:mbctype.obj
 0001:0001dfbb       __updatetmbcinfo$fin$0     000000018001efbb f   LIBCMT:mbctype.obj
 0001:0001dfd4       _freefls$fin$1             000000018001efd4 f   LIBCMT:tidtable.obj
 0001:0001dfd4       _initptd$fin$1             000000018001efd4 f   LIBCMT:tidtable.obj
 0001:0001dfed       _initptd$fin$0             000000018001efed f   LIBCMT:tidtable.obj
 0001:0001dfed       _freefls$fin$0             000000018001efed f   LIBCMT:tidtable.obj
 0001:0001e006       _ioinit$fin$0              000000018001f006 f   LIBCMT:ioinit.obj
 0001:0001e021       _mtinitlocknum$fin$0       000000018001f021 f   LIBCMT:mlock.obj
 0001:0001e03e       _write$fin$0               000000018001f03e f   LIBCMT:lseeki64.obj
 0001:0001e03e       _lseeki64$fin$0            000000018001f03e f   LIBCMT:lseeki64.obj
 0001:0001e060       _IsNonwritableInCurrentImage$filt$0 000000018001f060 f   LIBCMT:pesect.obj
 0001:0001e080       raise$fin$0                000000018001f080 f   LIBCMT:winsig.obj
 0001:0001e09e       __CxxCallCatchBlock$filt$0 000000018001f09e f   LIBCMT:frame.obj
 0001:0001e192       __CxxCallCatchBlock$fin$1  000000018001f192 f   LIBCMT:frame.obj
 0001:0001e210       __DestructExceptionObject$filt$0 000000018001f210 f   LIBCMT:frame.obj
 0001:0001e228       __FrameUnwindToState$filt$0 000000018001f228 f   LIBCMT:frame.obj
 0001:0001e23e       __FrameUnwindToState$fin$1 000000018001f23e f   LIBCMT:frame.obj
 0001:0001e267       _fcloseall$fin$0           000000018001f267 f   LIBCMT:closeall.obj
 0001:0001e280       flsall$fin$0               000000018001f280 f   LIBCMT:fflush.obj
 0001:0001e2a8       flsall$fin$1               000000018001f2a8 f   LIBCMT:fflush.obj
 0001:0001e2c1       __lock_fhandle$fin$0       000000018001f2c1 f   LIBCMT:osfinfo.obj
 0001:0001e2da       fclose$fin$0               000000018001f2da f   LIBCMT:fclose.obj
 0001:0001e2f2       _commit$fin$0              000000018001f2f2 f   LIBCMT:close.obj
 0001:0001e2f2       _close$fin$0               000000018001f2f2 f   LIBCMT:close.obj
 0001:0001e310       ??__F?_System_object@?$_Error_objects@H@std@@2V_System_error_category@2@A@@YAXXZ 000000018001f310 f   * CIL library *:* CIL module *
 0001:0001e320       ??__F?_Iostream_object@?$_Error_objects@H@std@@2V_Iostream_error_category@2@A@@YAXXZ 000000018001f320 f   * CIL library *:* CIL module *
 0001:0001e330       ??__F?_Generic_object@?$_Error_objects@H@std@@2V_Generic_error_category@2@A@@YAXXZ 000000018001f330 f   * CIL library *:* CIL module *
 0001:0001e340       ??__Fg_stringResMap@@YAXXZ 000000018001f340 f   * CIL library *:* CIL module *
 0001:0001e3b0       ??__Fg_guard@@YAXXZ        000000018001f3b0 f   * CIL library *:* CIL module *
 0002:00000518       _GI$initializer$           0000000180020518     * CIL library *:* CIL module *
 0002:00000520       ?_Generic_object$initializer$@?$_Error_objects@H@std@@2P6AXXZEA 0000000180020520     * CIL library *:* CIL module *
 0002:00000528       ?_Iostream_object$initializer$@?$_Error_objects@H@std@@2P6AXXZEA 0000000180020528     * CIL library *:* CIL module *
 0002:00000530       ?_System_object$initializer$@?$_Error_objects@H@std@@2P6AXXZEA 0000000180020530     * CIL library *:* CIL module *
 0002:00000538       g_stringResMap$initializer$ 0000000180020538     * CIL library *:* CIL module *
 0002:00000540       g_guard$initializer$       0000000180020540     * CIL library *:* CIL module *
 0002:00000558       pinit                      0000000180020558     LIBCMT:onexit.obj
 0002:00000560       pinit                      0000000180020560     LIBCMT:cpu_disp.obj
 0002:00000568       pinit                      0000000180020568     LIBCMT:mbctype.obj
 0002:00000570       pinit                      0000000180020570     LIBCMT:_file.obj
 0002:00000588       pterm                      0000000180020588     LIBCMT:wsetloca.obj
 0002:00000590       pterm                      0000000180020590     LIBCMT:initcon.obj
 0002:00000598       pterm                      0000000180020598     LIBCMT:_file.obj
 0002:00000688       $cppxdata$??2@YAPEAX_KAEBUnothrow_t@std@@@Z 0000000180020688     LIBCMT:newopnt.obj
 0002:000006b0       GS_ExceptionPointers       00000001800206b0     LIBCMT:gs_report.obj
 0002:000006d0       ?ExceptionTemplate@?1??_CxxThrowException@@9@4UEHExceptionRecord@@B 00000001800206d0     LIBCMT:throw.obj
 0002:00000770       ?ExceptionTemplate@?1??_UnwindNestedFrames@@9@4U_EXCEPTION_RECORD@@B 0000000180020770     LIBCMT:trnsctrl.obj
 0002:00000808       _mb_locale_names           0000000180020808     LIBCMT:mbctype.obj
 0002:00000c20       _first_127char             0000000180020c20     LIBCMT:wsetloca.obj
 0002:00000fb0       rterrs                     0000000180020fb0     LIBCMT:crt0msg.obj
 0002:00001bf0       tokenTable                 0000000180021bf0     LIBCMT:undname.obj
 0002:00001c60       nameTable                  0000000180021c60     LIBCMT:undname.obj
 0002:00001ee0       rttiTable                  0000000180021ee0     LIBCMT:undname.obj
 0002:00006220       _Win_errtab                0000000180026220     libcpmt:syserror.obj
 0002:000066d0       _Sys_errtab                00000001800266d0     libcpmt:syserror.obj
 0002:00007830       c_szIhvUIResponse          0000000180027830     * CIL library *:* CIL module *
 0002:00007850       SecExtensions              0000000180027850     * CIL library *:* CIL module *
 0002:000078e0       c_szIhvUIRequest           00000001800278e0     * CIL library *:* CIL module *
 0002:00007900       HEXCHARS                   0000000180027900     * CIL library *:* CIL module *
 0002:00007910       rgszCERT_PROPERTY_DLG_PROPERTY_NAME 0000000180027910     * CIL library *:* CIL module *
 0002:00007940       c_szDialogProperty         0000000180027940     * CIL library *:* CIL module *
 0002:00008838       ?s@?1??GetXmlElemRoot@@YAPEB_WW4XML_ELEM_ROOT_ENUM@@@Z@4PAPEB_WA 0000000180028838     * CIL library *:* CIL module *
 0002:00008848       ?s@?1??GetXmlEmptyDoc@@YAPEB_WW4XML_ELEM_ROOT_ENUM@@@Z@4PAPEB_WA 0000000180028848     * CIL library *:* CIL module *
 0002:00008858       ?s@?1??GetXmlElemAuth@@YAPEB_WW4XML_ELEM_AUTH_ENUM@@@Z@4PAPEB_WA 0000000180028858     * CIL library *:* CIL module *
 0002:00008870       ?rgBlobType@?1??IsHexStringConversionNeeded@@YAHPEBU_IHV_CREDENTIAL@@@Z@4PAKA 0000000180028870     * CIL library *:* CIL module *
 0002:000089e0       $cppxdata$?CreateInstance@CFactory@@UEAAJPEAUIUnknown@@AEBU_GUID@@PEAPEAX@Z 00000001800289e0     * CIL library *:* CIL module *
 0002:00008a10       $cppxdata$?_Copy@?$basic_string@DU?$char_traits@D@std@@V?$allocator@D@2@@std@@QEAAX_K0@Z 0000000180028a10     * CIL library *:* CIL module *
 0002:00008a40       $cppxdata$?DisplayDot11ExtUIProperty@CExtUICon@@UEAAJPEAUHWND__@@PEA_WPEAU_DOT11EXT_IHV_PARAMS@@PEAPEA_WPEAH@Z 0000000180028a40     * CIL library *:* CIL module *
 0002:00008a70       $cppxdata$?DisplayDot11ExtUIProperty@CExtUISec@@UEAAJPEAUHWND__@@PEA_WPEAU_DOT11EXT_IHV_PARAMS@@PEAPEA_WPEAH@Z 0000000180028a70     * CIL library *:* CIL module *
 0002:00008aa0       $cppxdata$?Dot11ExtUIPropertyGetDisplayInfo@CExtUISec@@UEAAJW4_DOT11_EXT_UI_DISPLAY_INFO_TYPE@@PEA_WPEAU_DOT11EXT_IHV_PARAMS@@PEAK3PEAPEAU_DOT11_EXT_UI_PROPERTY_DISPLAY_INFO@@@Z 0000000180028aa0     * CIL library *:* CIL module *
 0002:00008ad0       $cppxdata$?Dot11ExtUIPropertySetSelected@CExtUISec@@UEAAJPEA_WPEAU_DOT11EXT_IHV_PARAMS@@PEAPEA_WPEAH@Z 0000000180028ad0     * CIL library *:* CIL module *
 0002:00008b00       $cppxdata$?Dot11ExtUIPropertySetDisplayInfo@CExtUISec@@UEAAJW4_DOT11_EXT_UI_DISPLAY_INFO_TYPE@@PEA_WPEAU_DOT11EXT_IHV_PARAMS@@PEAU_DOT11_EXT_UI_PROPERTY_DISPLAY_INFO@@PEAPEA_WPEAH@Z 0000000180028b00     * CIL library *:* CIL module *
 0002:00008b00       $cppxdata$?Dot11ExtUIPropertySetDisplayInfo@CExtUIKey@@UEAAJW4_DOT11_EXT_UI_DISPLAY_INFO_TYPE@@PEA_WPEAU_DOT11EXT_IHV_PARAMS@@PEAU_DOT11_EXT_UI_PROPERTY_DISPLAY_INFO@@PEAPEA_WPEAH@Z 0000000180028b00     * CIL library *:* CIL module *
 0002:00008b30       $cppxdata$?Dot11ExtUIPropertyGetDisplayInfo@CExtUIKey@@UEAAJW4_DOT11_EXT_UI_DISPLAY_INFO_TYPE@@PEA_WPEAU_DOT11EXT_IHV_PARAMS@@PEAK3PEAPEAU_DOT11_EXT_UI_PROPERTY_DISPLAY_INFO@@@Z 0000000180028b30     * CIL library *:* CIL module *
 0002:00008b60       $cppxdata$?Dot11ExtUIPropertySetSelected@CExtUIKey@@UEAAJPEA_WPEAU_DOT11EXT_IHV_PARAMS@@PEAPEA_WPEAH@Z 0000000180028b60     * CIL library *:* CIL module *
 0002:00008b90       $cppxdata$?Dot11ExtUIPropertyGetSelected@CExtUISec@@UEAAJPEA_WPEAU_DOT11EXT_IHV_PARAMS@@PEAH@Z 0000000180028b90     * CIL library *:* CIL module *
 0002:00008b90       $cppxdata$?Dot11ExtUIPropertyGetSelected@CExtUIKey@@UEAAJPEA_WPEAU_DOT11EXT_IHV_PARAMS@@PEAH@Z 0000000180028b90     * CIL library *:* CIL module *
 0002:00008bc0       $cppxdata$??0_bstr_t@@QEAA@PEB_W@Z 0000000180028bc0     * CIL library *:* CIL module *
 0002:00008bf0       $cppxdata$?xmlGet@DPTProfile@@QEAAPEA_WPEAUIXMLDOMDocument@@@Z 0000000180028bf0     * CIL library *:* CIL module *
 0002:00008c20       $cppxdata$?xmlSet@DPTProfile@@QEAAXPEB_W@Z 0000000180028c20     * CIL library *:* CIL module *
 0002:00008c50       $cppxdata$?xmlSet@DPTProfile@@QEAAXPEAUIXMLDOMDocument@@PEA_W@Z 0000000180028c50     * CIL library *:* CIL module *
 0002:00008c80       $cppxdata$?xmlGet@DPTProfile@@QEAAPEA_WXZ 0000000180028c80     * CIL library *:* CIL module *
 0002:00008cb0       $cppxdata$??$_Insert_nohint@AEAU?$pair@$$CBV?$basic_string@_WU?$char_traits@_W@std@@V?$allocator@_W@2@@std@@H@std@@PEAU?$_Tree_node@U?$pair@$$CBV?$basic_string@_WU?$char_traits@_W@std@@V?$allocator@_W@2@@std@@H@std@@PEAX@2@@?$_Tree@V?$_Tmap_traits@V?$basic_string@_WU?$char_traits@_W@std@@V?$allocator@_W@2@@std@@HU?$less@V?$basic_string@_WU?$char_traits@_W@std@@V?$allocator@_W@2@@std@@@2@V?$allocator@U?$pair@$$CBV?$basic_string@_WU?$char_traits@_W@std@@V?$allocator@_W@2@@std@@H@std@@@2@$0A@@std@@@std@@IEAA?AU?$pair@V?$_Tree_iterator@V?$_Tree_val@U?$_Tree_simple_types@U?$pair@$$CBV?$basic_string@_WU?$char_traits@_W@std@@V?$allocator@_W@2@@std@@H@std@@@std@@@std@@@std@@_N@1@_NAEAU?$pair@$$CBV?$basic_string@_WU?$char_traits@_W@std@@V?$allocator@_W@2@@std@@H@1@PEAU?$_Tree_node@U?$pair@$$CBV?$basic_string@_WU?$char_traits@_W@std@@V?$allocator@_W@2@@std@@H@std@@PEAX@1@@Z 0000000180028cb0     * CIL library *:* CIL module *
 0002:00008ce0       $cppxdata$??$_Insert_hint@AEAU?$pair@$$CBV?$basic_string@_WU?$char_traits@_W@std@@V?$allocator@_W@2@@std@@H@std@@PEAU?$_Tree_node@U?$pair@$$CBV?$basic_string@_WU?$char_traits@_W@std@@V?$allocator@_W@2@@std@@H@std@@PEAX@2@@?$_Tree@V?$_Tmap_traits@V?$basic_string@_WU?$char_traits@_W@std@@V?$allocator@_W@2@@std@@HU?$less@V?$basic_string@_WU?$char_traits@_W@std@@V?$allocator@_W@2@@std@@@2@V?$allocator@U?$pair@$$CBV?$basic_string@_WU?$char_traits@_W@std@@V?$allocator@_W@2@@std@@H@std@@@2@$0A@@std@@@std@@IEAA?AV?$_Tree_iterator@V?$_Tree_val@U?$_Tree_simple_types@U?$pair@$$CBV?$basic_string@_WU?$char_traits@_W@std@@V?$allocator@_W@2@@std@@H@std@@@std@@@std@@@1@V?$_Tree_const_iterator@V?$_Tree_val@U?$_Tree_simple_types@U?$pair@$$CBV?$basic_string@_WU?$char_traits@_W@std@@V?$allocator@_W@2@@std@@H@std@@@std@@@std@@@1@AEAU?$pair@$$CBV?$basic_string@_WU?$char_traits@_W@std@@V?$allocator@_W@2@@std@@H@1@PEAU?$_Tree_node@U?$pair@$$CBV?$basic_string@_WU?$char_traits@_W@std@@V?$allocator@_W@2@@std@@H@std@@PEAX@1@@Z 0000000180028ce0     * CIL library *:* CIL module *
 0002:00008d10       $cppxdata$??$_Buynode@AEBUpiecewise_construct_t@std@@V?$tuple@AEBV?$basic_string@_WU?$char_traits@_W@std@@V?$allocator@_W@2@@std@@@2@V?$tuple@$$$V@2@@?$_Tree_buy@U?$pair@$$CBV?$basic_string@_WU?$char_traits@_W@std@@V?$allocator@_W@2@@std@@H@std@@V?$allocator@U?$pair@$$CBV?$basic_string@_WU?$char_traits@_W@std@@V?$allocator@_W@2@@std@@H@std@@@2@@std@@QEAAPEAU?$_Tree_node@U?$pair@$$CBV?$basic_string@_WU?$char_traits@_W@std@@V?$allocator@_W@2@@std@@H@std@@PEAX@1@AEBUpiecewise_construct_t@1@$$QEAV?$tuple@AEBV?$basic_string@_WU?$char_traits@_W@std@@V?$allocator@_W@2@@std@@@1@$$QEAV?$tuple@$$$V@1@@Z 0000000180028d10     * CIL library *:* CIL module *
 0002:00008d40       $cppxdata$??$?H_WU?$char_traits@_W@std@@V?$allocator@_W@1@@std@@YA?AV?$basic_string@_WU?$char_traits@_W@std@@V?$allocator@_W@2@@0@AEBV10@PEB_W@Z 0000000180028d40     * CIL library *:* CIL module *
 0002:00008d70       $cppxdata$?_Copy@?$basic_string@_WU?$char_traits@_W@std@@V?$allocator@_W@2@@std@@QEAAX_K0@Z 0000000180028d70     * CIL library *:* CIL module *
 0002:00008da0       $cppxdata$?EnumStrings@@YAHPEAUHINSTANCE__@@KP6AXPEA_WK@Z@Z 0000000180028da0     * CIL library *:* CIL module *
 0002:00008dd0       $cppxdata$?TranslateString@@YA?AV?$basic_string@_WU?$char_traits@_W@std@@V?$allocator@_W@2@@std@@PEA_WH@Z 0000000180028dd0     * CIL library *:* CIL module *
 0002:00008e00       $cppxdata$?xmlSet@CProfileIHVConnectivity@@QEAAXPEB_W@Z 0000000180028e00     * CIL library *:* CIL module *
 0002:00008e30       $cppxdata$?xmlSet@CProfileIHVSecurity@@QEAAXPEB_W@Z 0000000180028e30     * CIL library *:* CIL module *
 0002:00008e60       $cppxdata$?IsValid@CProfileIHVSecurity@@QEAAHXZ 0000000180028e60     * CIL library *:* CIL module *
 0002:00008e90       $cppxdata$?xmlGet@CProfileIHVSecurity@@QEAAPEA_WXZ 0000000180028e90     * CIL library *:* CIL module *
 0002:00008ec0       $cppxdata$?IsValid@CProfileIHVConnectivity@@QEAAHXZ 0000000180028ec0     * CIL library *:* CIL module *
 0002:00008ef0       $cppxdata$?xmlGet@CProfileIHVConnectivity@@QEAAPEA_WXZ 0000000180028ef0     * CIL library *:* CIL module *
 0002:0000a140       $unwind$?InitIhvCommon@@YAXXZ 000000018002a140     * CIL library *:* CIL module *
 0002:0000a148       $unwind$?CopyCredential@@YAKPEBU_IHV_CREDENTIAL@@PEAPEAU1@@Z 000000018002a148     * CIL library *:* CIL module *
 0002:0000a15c       $unwind$?SecureCredential@@YAKPEBU_IHV_CREDENTIAL@@PEAPEAU1@H@Z 000000018002a15c     * CIL library *:* CIL module *
 0002:0000a168       $chain$3$?SecureCredential@@YAKPEBU_IHV_CREDENTIAL@@PEAPEAU1@H@Z 000000018002a168     * CIL library *:* CIL module *
 0002:0000a188       $chain$4$?SecureCredential@@YAKPEBU_IHV_CREDENTIAL@@PEAPEAU1@H@Z 000000018002a188     * CIL library *:* CIL module *
 0002:0000a19c       $chain$5$?SecureCredential@@YAKPEBU_IHV_CREDENTIAL@@PEAPEAU1@H@Z 000000018002a19c     * CIL library *:* CIL module *
 0002:0000a1ac       $chain$6$?SecureCredential@@YAKPEBU_IHV_CREDENTIAL@@PEAPEAU1@H@Z 000000018002a1ac     * CIL library *:* CIL module *
 0002:0000a1bc       $unwind$IsolationAwareLoadLibraryW 000000018002a1bc     * CIL library *:* CIL module *
 0002:0000a1e4       $unwind$PrshtIsolationAwarePrivatetRgCebPnQQeRff_pbZPgYQP_QYY$fin$0 000000018002a1e4     * CIL library *:* CIL module *
 0002:0000a1e4       $unwind$IsolationAwareLoadLibraryW$fin$0 000000018002a1e4     * CIL library *:* CIL module *
 0002:0000a1e4       $unwind$IsolationAwareCreatePropertySheetPageW$fin$0 000000018002a1e4     * CIL library *:* CIL module *
 0002:0000a1f0       $unwind$WinbaseIsolationAwarePrivatetRgzlnPgpgk 000000018002a1f0     * CIL library *:* CIL module *
 0002:0000a218       $unwind$WinbaseIsolationAwarePrivatetRgzlnPgpgk$fin$0 000000018002a218     * CIL library *:* CIL module *
 0002:0000a218       $unwind$_CallSETranslator$filt$0 000000018002a218     * CIL library *:* CIL module *
 0002:0000a220       $unwind$_GetImageBase      000000018002a220     * CIL library *:* CIL module *
 0002:0000a220       $unwind$_GetThrowImageBase 000000018002a220     * CIL library *:* CIL module *
 0002:0000a220       $unwind$_initp_eh_hooks    000000018002a220     * CIL library *:* CIL module *
 0002:0000a220       $unwind$_set_error_mode    000000018002a220     * CIL library *:* CIL module *
 0002:0000a220       $unwind$?QueryInterface@CFactory@@UEAAJAEBU_GUID@@PEAPEAX@Z 000000018002a220     * CIL library *:* CIL module *
 0002:0000a220       $unwind$__termconout       000000018002a220     * CIL library *:* CIL module *
 0002:0000a220       $unwind$_isatty            000000018002a220     * CIL library *:* CIL module *
 0002:0000a220       $unwind$atexit             000000018002a220     * CIL library *:* CIL module *
 0002:0000a220       $unwind$?CheckValid@CertPropertyDlg@@UEBAKPEBU_CERT_CONTEXT@@@Z 000000018002a220     * CIL library *:* CIL module *
 0002:0000a220       $unwind$?QueryInterface@CExtUI@@UEAAJAEBU_GUID@@PEAPEAX@Z 000000018002a220     * CIL library *:* CIL module *
 0002:0000a220       $unwind$__GSHandlerCheck   000000018002a220     * CIL library *:* CIL module *
 0002:0000a220       $unwind$?EnumResNameProc@@YAHPEAUHINSTANCE__@@PEB_WPEA_W_J@Z 000000018002a220     * CIL library *:* CIL module *
 0002:0000a220       $unwind$__FrameUnwindFilter 000000018002a220     * CIL library *:* CIL module *
 0002:0000a220       $unwind$_invoke_watson     000000018002a220     * CIL library *:* CIL module *
 0002:0000a220       $unwind$_mtterm            000000018002a220     * CIL library *:* CIL module *
 0002:0000a220       $unwind$?DestroyStringMap@@YAXXZ 000000018002a220     * CIL library *:* CIL module *
 0002:0000a220       $unwind$__endstdio         000000018002a220     * CIL library *:* CIL module *
 0002:0000a220       $unwind$__crtInitializeCriticalSectionEx 000000018002a220     * CIL library *:* CIL module *
 0002:0000a220       $unwind$?__GetCurrentState@@YAHPEA_KPEAU_xDISPATCHER_CONTEXT@@PEBU_s_FuncInfo@@@Z 000000018002a220     * CIL library *:* CIL module *
 0002:0000a220       $unwind$abort              000000018002a220     * CIL library *:* CIL module *
 0002:0000a220       $unwind$_errno             000000018002a220     * CIL library *:* CIL module *
 0002:0000a220       $unwind$__doserrno         000000018002a220     * CIL library *:* CIL module *
 0002:0000a220       $unwind$_heap_init         000000018002a220     * CIL library *:* CIL module *
 0002:0000a220       $unwind$??__Eg_stringResMap@@YAXXZ 000000018002a220     * CIL library *:* CIL module *
 0002:0000a220       $unwind$__initmbctable     000000018002a220     * CIL library *:* CIL module *
 0002:0000a220       $unwind$_msize             000000018002a220     * CIL library *:* CIL module *
 0002:0000a220       $unwind$DllMain            000000018002a220     * CIL library *:* CIL module *
 0002:0000a220       $unwind$_FF_MSGBANNER      000000018002a220     * CIL library *:* CIL module *
 0002:0000a220       $unwind$??__Eg_guard@@YAXXZ 000000018002a220     * CIL library *:* CIL module *
 0002:0000a220       $unwind$_fileno            000000018002a220     * CIL library *:* CIL module *
 0002:0000a220       $unwind$__crtDownlevelLocaleNameToLCID 000000018002a220     * CIL library *:* CIL module *
 0002:0000a220       $unwind$?Release@CFactory@@UEAAKXZ 000000018002a220     * CIL library *:* CIL module *
 0002:0000a220       $unwind$_wcsicmp           000000018002a220     * CIL library *:* CIL module *
 0002:0000a220       $unwind$?QueryInterface@CExtUIKey@@UEAAJAEBU_GUID@@PEAPEAX@Z 000000018002a220     * CIL library *:* CIL module *
 0002:0000a220       $unwind$?QueryInterface@CExtUICon@@UEAAJAEBU_GUID@@PEAPEAX@Z 000000018002a220     * CIL library *:* CIL module *
 0002:0000a220       $unwind$?_Buyheadnode@?$_Tree_alloc@$0A@U?$_Tree_base_types@U?$pair@$$CBV?$basic_string@_WU?$char_traits@_W@std@@V?$allocator@_W@2@@std@@H@std@@V?$allocator@U?$pair@$$CBV?$basic_string@_WU?$char_traits@_W@std@@V?$allocator@_W@2@@std@@H@std@@@2@@std@@@std@@QEAAPEAU?$_Tree_node@U?$pair@$$CBV?$basic_string@_WU?$char_traits@_W@std@@V?$allocator@_W@2@@std@@H@std@@PEAX@2@XZ 000000018002a220     * CIL library *:* CIL module *
 0002:0000a220       $unwind$_wcsnicmp          000000018002a220     * CIL library *:* CIL module *
 0002:0000a220       $unwind$??8type_info@@QEBA_NAEBV0@@Z 000000018002a220     * CIL library *:* CIL module *
 0002:0000a220       $unwind$?_Buynode0@?$_Tree_buy@U?$pair@$$CBV?$basic_string@_WU?$char_traits@_W@std@@V?$allocator@_W@2@@std@@H@std@@V?$allocator@U?$pair@$$CBV?$basic_string@_WU?$char_traits@_W@std@@V?$allocator@_W@2@@std@@H@std@@@2@@std@@QEAAPEAU?$_Tree_node@U?$pair@$$CBV?$basic_string@_WU?$char_traits@_W@std@@V?$allocator@_W@2@@std@@H@std@@PEAX@2@XZ 000000018002a220     * CIL library *:* CIL module *
 0002:0000a220       $unwind$_get_osfhandle     000000018002a220     * CIL library *:* CIL module *
 0002:0000a220       $unwind$??$_Insert_at@AEAU?$pair@$$CBV?$basic_string@_WU?$char_traits@_W@std@@V?$allocator@_W@2@@std@@H@std@@PEAU?$_Tree_node@U?$pair@$$CBV?$basic_string@_WU?$char_traits@_W@std@@V?$allocator@_W@2@@std@@H@std@@PEAX@2@@?$_Tree@V?$_Tmap_traits@V?$basic_string@_WU?$char_traits@_W@std@@V?$allocator@_W@2@@std@@HU?$less@V?$basic_string@_WU?$char_traits@_W@std@@V?$allocator@_W@2@@std@@@2@V?$allocator@U?$pair@$$CBV?$basic_string@_WU?$char_traits@_W@std@@V?$allocator@_W@2@@std@@H@std@@@2@$0A@@std@@@std@@IEAA?AV?$_Tree_iterator@V?$_Tree_val@U?$_Tree_simple_types@U?$pair@$$CBV?$basic_string@_WU?$char_traits@_W@std@@V?$allocator@_W@2@@std@@H@std@@@std@@@std@@@1@_NPEAU?$_Tree_node@U?$pair@$$CBV?$basic_string@_WU?$char_traits@_W@std@@V?$allocator@_W@2@@std@@H@std@@PEAX@1@AEAU?$pair@$$CBV?$basic_string@_WU?$char_traits@_W@std@@V?$allocator@_W@2@@std@@H@1@1@Z 000000018002a220     * CIL library *:* CIL module *
 0002:0000a220       $unwind$_purecall          000000018002a220     * CIL library *:* CIL module *
 0002:0000a220       $unwind$?QueryInterface@CExtUISec@@UEAAJAEBU_GUID@@PEAPEAX@Z 000000018002a220     * CIL library *:* CIL module *
 0002:0000a228       $unwind$?SelfRegister@@YAJ_N@Z 000000018002a228     * CIL library *:* CIL module *
 0002:0000a248       $chain$0$?SelfRegister@@YAJ_N@Z 000000018002a248     * CIL library *:* CIL module *
 0002:0000a25c       $chain$1$?SelfRegister@@YAJ_N@Z 000000018002a25c     * CIL library *:* CIL module *
 0002:0000a26c       $unwind$?GetComponentGuid@@YAPEA_WXZ 000000018002a26c     * CIL library *:* CIL module *
 0002:0000a280       $unwind$?CreateInstance@CFactory@@UEAAJPEAUIUnknown@@AEBU_GUID@@PEAPEAX@Z 000000018002a280     * CIL library *:* CIL module *
 0002:0000a29c       $stateUnwindMap$?CreateInstance@CFactory@@UEAAJPEAUIUnknown@@AEBU_GUID@@PEAPEAX@Z 000000018002a29c     * CIL library *:* CIL module *
 0002:0000a2bc       $ip2state$?CreateInstance@CFactory@@UEAAJPEAUIUnknown@@AEBU_GUID@@PEAPEAX@Z 000000018002a2bc     * CIL library *:* CIL module *
 0002:0000a304       $unwind$?GUID_COMPONENT@@YAAEBU_GUID@@XZ 000000018002a304     * CIL library *:* CIL module *
 0002:0000a314       $chain$3$?GUID_COMPONENT@@YAAEBU_GUID@@XZ 000000018002a314     * CIL library *:* CIL module *
 0002:0000a334       $chain$4$?GUID_COMPONENT@@YAAEBU_GUID@@XZ 000000018002a334     * CIL library *:* CIL module *
 0002:0000a344       $unwind$?DialogProc@ConnConfigDlg@@SA_JPEAUHWND__@@I_K_J@Z 000000018002a344     * CIL library *:* CIL module *
 0002:0000a344       $unwind$?DialogProc@KeyInputDlg@@SA_JPEAUHWND__@@I_K_J@Z 000000018002a344     * CIL library *:* CIL module *
 0002:0000a344       $unwind$?GetClassObject@@YAJAEBU_GUID@@0PEAPEAX@Z 000000018002a344     * CIL library *:* CIL module *
 0002:0000a344       $unwind$?append@?$basic_string@_WU?$char_traits@_W@std@@V?$allocator@_W@2@@std@@QEAAAEAV12@PEB_W_K@Z 000000018002a344     * CIL library *:* CIL module *
 0002:0000a354       $chain$0$?GetClassObject@@YAJAEBU_GUID@@0PEAPEAX@Z 000000018002a354     * CIL library *:* CIL module *
 0002:0000a368       $chain$2$?GetClassObject@@YAJAEBU_GUID@@0PEAPEAX@Z 000000018002a368     * CIL library *:* CIL module *
 0002:0000a37c       $chain$3$?GetClassObject@@YAJAEBU_GUID@@0PEAPEAX@Z 000000018002a37c     * CIL library *:* CIL module *
 0002:0000a38c       $unwind$IsolationAwareDialogBoxParamW 000000018002a38c     * CIL library *:* CIL module *
 0002:0000a3bc       $unwind$IsolationAwareDialogBoxParamW$fin$0 000000018002a3bc     * CIL library *:* CIL module *
 0002:0000a3c8       $unwind$IsolationAwareCreatePropertySheetPageW 000000018002a3c8     * CIL library *:* CIL module *
 0002:0000a3f4       $unwind$PrshtIsolationAwarePrivatetRgCebPnQQeRff_pbZPgYQP_QYY 000000018002a3f4     * CIL library *:* CIL module *
 0002:0000a41c       $unwind$??0_bstr_t@@QEAA@PEB_W@Z 000000018002a41c     * CIL library *:* CIL module *
 0002:0000a434       $stateUnwindMap$??0_bstr_t@@QEAA@PEB_W@Z 000000018002a434     * CIL library *:* CIL module *
 0002:0000a43c       $ip2state$??0_bstr_t@@QEAA@PEB_W@Z 000000018002a43c     * CIL library *:* CIL module *
 0002:0000a454       $unwind$?_Tidy@?$basic_string@_WU?$char_traits@_W@std@@V?$allocator@_W@2@@std@@QEAAX_N_K@Z 000000018002a454     * CIL library *:* CIL module *
 0002:0000a454       $unwind$??1_bstr_t@@QEAA@XZ 000000018002a454     * CIL library *:* CIL module *
 0002:0000a460       $unwind$write_string       000000018002a460     * CIL library *:* CIL module *
 0002:0000a460       $unwind$??0Data_t@_bstr_t@@QEAA@AEBV1@0@Z 000000018002a460     * CIL library *:* CIL module *
 0002:0000a478       $unwind$?__SetUnwindTryBlock@@YAXPEA_KPEAU_xDISPATCHER_CONTEXT@@PEBU_s_FuncInfo@@H@Z 000000018002a478     * CIL library *:* CIL module *
 0002:0000a478       $unwind$_initterm_e        000000018002a478     * CIL library *:* CIL module *
 0002:0000a478       $unwind$_updatetlocinfoEx_nolock 000000018002a478     * CIL library *:* CIL module *
 0002:0000a478       $unwind$_dosmaperr         000000018002a478     * CIL library *:* CIL module *
 0002:0000a478       $unwind$??0WapiCertPropDlg@@QEAA@PEAUHINSTANCE__@@PEAX@Z 000000018002a478     * CIL library *:* CIL module *
 0002:0000a478       $unwind$?OnInitDialog@WapiCertPropDlg@@UEAAHPEAUHWND__@@@Z 000000018002a478     * CIL library *:* CIL module *
 0002:0000a478       $unwind$_getptd_noexit     000000018002a478     * CIL library *:* CIL module *
 0002:0000a478       $unwind$_RTC_Terminate     000000018002a478     * CIL library *:* CIL module *
 0002:0000a478       $unwind$??_Gout_of_range@std@@UEAAPEAXI@Z 000000018002a478     * CIL library *:* CIL module *
 0002:0000a478       $unwind$??_Gexception@std@@UEAAPEAXI@Z 000000018002a478     * CIL library *:* CIL module *
 0002:0000a478       $unwind$??_Gtype_info@@UEAAPEAXI@Z 000000018002a478     * CIL library *:* CIL module *
 0002:0000a478       $unwind$_calloc_impl       000000018002a478     * CIL library *:* CIL module *
 0002:0000a478       $unwind$_cinit             000000018002a478     * CIL library *:* CIL module *
 0002:0000a478       $unwind$??_GWapiCertPropDlg@@UEAAPEAXI@Z 000000018002a478     * CIL library *:* CIL module *
 0002:0000a478       $unwind$?erase@?$basic_string@DU?$char_traits@D@std@@V?$allocator@D@2@@std@@QEAAAEAV12@_K0@Z 000000018002a478     * CIL library *:* CIL module *
 0002:0000a478       $unwind$?SetCertificate@CertPropertyDlg@@EEAAXPEBU_CERT_CONTEXT@@@Z 000000018002a478     * CIL library *:* CIL module *
 0002:0000a478       $unwind$?GetDot11ExtUIPropertyFriendlyName@CExtUIKey@@UEAAJPEAPEA_W@Z 000000018002a478     * CIL library *:* CIL module *
 0002:0000a478       $unwind$_FindAndUnlinkFrame 000000018002a478     * CIL library *:* CIL module *
 0002:0000a478       $unwind$?SelectEditGroup@ConnConfigDlg@@AEAAXH@Z 000000018002a478     * CIL library *:* CIL module *
 0002:0000a478       $unwind$??_GCertPropertyDlg@@UEAAPEAXI@Z 000000018002a478     * CIL library *:* CIL module *
 0002:0000a478       $unwind$_initp_misc_cfltcvt_tab 000000018002a478     * CIL library *:* CIL module *
 0002:0000a478       $unwind$_fptostr           000000018002a478     * CIL library *:* CIL module *
 0002:0000a478       $unwind$__initstdio        000000018002a478     * CIL library *:* CIL module *
 0002:0000a478       $unwind$__freeCrtMemory    000000018002a478     * CIL library *:* CIL module *
 0002:0000a478       $unwind$?erase@?$basic_string@_WU?$char_traits@_W@std@@V?$allocator@_W@2@@std@@QEAAAEAV12@_K0@Z 000000018002a478     * CIL library *:* CIL module *
 0002:0000a478       $unwind$_lock              000000018002a478     * CIL library *:* CIL module *
 0002:0000a478       $unwind$??_GWapiCertPropertyDlg@@UEAAPEAXI@Z 000000018002a478     * CIL library *:* CIL module *
 0002:0000a478       $unwind$_close_nolock      000000018002a478     * CIL library *:* CIL module *
 0002:0000a478       $unwind$??_G_com_error@@UEAAPEAXI@Z 000000018002a478     * CIL library *:* CIL module *
 0002:0000a478       $unwind$??_Gbad_exception@std@@UEAAPEAXI@Z 000000018002a478     * CIL library *:* CIL module *
 0002:0000a478       $unwind$?SetSite@CExtUI@@UEAAJPEAUIUnknown@@@Z 000000018002a478     * CIL library *:* CIL module *
 0002:0000a478       $unwind$_RTC_Initialize    000000018002a478     * CIL library *:* CIL module *
 0002:0000a478       $unwind$?OnInitDialog@ConnConfigDlg@@UEAAHPEAUHWND__@@@Z 000000018002a478     * CIL library *:* CIL module *
 0002:0000a478       $unwind$?OnHideChars@KeyInputDlg@@UEAAXXZ 000000018002a478     * CIL library *:* CIL module *
 0002:0000a478       $unwind$??4exception@std@@QEAAAEAV01@AEBV01@@Z 000000018002a478     * CIL library *:* CIL module *
 0002:0000a478       $unwind$?default_error_condition@_System_error_category@std@@UEBA?AVerror_condition@2@H@Z 000000018002a478     * CIL library *:* CIL module *
 0002:0000a478       $unwind$?Release@CExtUI@@UEAAKXZ 000000018002a478     * CIL library *:* CIL module *
 0002:0000a478       $unwind$??_Glogic_error@std@@UEAAPEAXI@Z 000000018002a478     * CIL library *:* CIL module *
 0002:0000a478       $unwind$_fclose_nolock     000000018002a478     * CIL library *:* CIL module *
 0002:0000a478       $unwind$??_Glength_error@std@@UEAAPEAXI@Z 000000018002a478     * CIL library *:* CIL module *
 0002:0000a478       $unwind$??_Gbad_alloc@std@@UEAAPEAXI@Z 000000018002a478     * CIL library *:* CIL module *
 0002:0000a484       $unwind$??0_LocaleUpdate@@QEAA@PEAUlocaleinfo_struct@@@Z 000000018002a484     * CIL library *:* CIL module *
 0002:0000a484       $unwind$??0?$basic_string@_WU?$char_traits@_W@std@@V?$allocator@_W@2@@std@@QEAA@PEB_W@Z 000000018002a484     * CIL library *:* CIL module *
 0002:0000a484       $unwind$??0length_error@std@@QEAA@AEBV01@@Z 000000018002a484     * CIL library *:* CIL module *
 0002:0000a484       $unwind$??0out_of_range@std@@QEAA@AEBV01@@Z 000000018002a484     * CIL library *:* CIL module *
 0002:0000a484       $unwind$?Release@CExtUICon@@UEAAKXZ 000000018002a484     * CIL library *:* CIL module *
 0002:0000a484       $unwind$_SetImageBase      000000018002a484     * CIL library *:* CIL module *
 0002:0000a484       $unwind$??$GetThis@VCExtUI@@@@YAPEAVCExtUI@@PEAUHWND__@@I_K_J@Z 000000018002a484     * CIL library *:* CIL module *
 0002:0000a484       $unwind$_fflush_nolock     000000018002a484     * CIL library *:* CIL module *
 0002:0000a484       $unwind$??0logic_error@std@@QEAA@AEBV01@@Z 000000018002a484     * CIL library *:* CIL module *
 0002:0000a484       $unwind$_mtinit            000000018002a484     * CIL library *:* CIL module *
 0002:0000a484       $unwind$?Release@CExtUIKey@@UEAAKXZ 000000018002a484     * CIL library *:* CIL module *
 0002:0000a484       $unwind$__GSHandlerCheckCommon 000000018002a484     * CIL library *:* CIL module *
 0002:0000a484       $unwind$_SetThrowImageBase 000000018002a484     * CIL library *:* CIL module *
 0002:0000a484       $unwind$_getbuf            000000018002a484     * CIL library *:* CIL module *
 0002:0000a484       $unwind$write_char         000000018002a484     * CIL library *:* CIL module *
 0002:0000a484       $unwind$_freebuf           000000018002a484     * CIL library *:* CIL module *
 0002:0000a484       $unwind$?_Destroy_if_not_nil@?$_Tree@V?$_Tmap_traits@V?$basic_string@_WU?$char_traits@_W@std@@V?$allocator@_W@2@@std@@HU?$less@V?$basic_string@_WU?$char_traits@_W@std@@V?$allocator@_W@2@@std@@@2@V?$allocator@U?$pair@$$CBV?$basic_string@_WU?$char_traits@_W@std@@V?$allocator@_W@2@@std@@H@std@@@2@$0A@@std@@@std@@IEAAXPEAU?$_Tree_node@U?$pair@$$CBV?$basic_string@_WU?$char_traits@_W@std@@V?$allocator@_W@2@@std@@H@std@@PEAX@2@@Z 000000018002a484     * CIL library *:* CIL module *
 0002:0000a484       $unwind$??1_com_error@@UEAA@XZ 000000018002a484     * CIL library *:* CIL module *
 0002:0000a484       $unwind$?Notify_IsValid@WapiKeyInputDlg@@UEAAXH@Z 000000018002a484     * CIL library *:* CIL module *
 0002:0000a484       $unwind$?Release@CExtUISec@@UEAAKXZ 000000018002a484     * CIL library *:* CIL module *
 0002:0000a484       $unwind$??__Fg_stringResMap@@YAXXZ 000000018002a484     * CIL library *:* CIL module *
 0002:0000a484       $unwind$?IsValid@CertPropertyDlg@@UEBAHXZ 000000018002a484     * CIL library *:* CIL module *
 0002:0000a484       $unwind$??_Gerror_category@std@@UEAAPEAXI@Z 000000018002a484     * CIL library *:* CIL module *
 0002:0000a484       $unwind$_lock_file2        000000018002a484     * CIL library *:* CIL module *
 0002:0000a484       $unwind$_lock_file         000000018002a484     * CIL library *:* CIL module *
 0002:0000a484       $unwind$_freeptd           000000018002a484     * CIL library *:* CIL module *
 0002:0000a484       $unwind$??0_com_error@@QEAA@AEBV0@@Z 000000018002a484     * CIL library *:* CIL module *
 0002:0000a484       $unwind$_itow              000000018002a484     * CIL library *:* CIL module *
 0002:0000a484       $unwind$?OnOK@ConnConfigDlg@@UEAAXXZ 000000018002a484     * CIL library *:* CIL module *
 0002:0000a484       $unwind$??0bad_exception@std@@QEAA@AEBV01@@Z 000000018002a484     * CIL library *:* CIL module *
 0002:0000a484       $unwind$??1?$basic_string@_WU?$char_traits@_W@std@@V?$allocator@_W@2@@std@@QEAA@XZ 000000018002a484     * CIL library *:* CIL module *
 0002:0000a484       $unwind$?GetDot11ExtUIPropertyFriendlyName@CExtUICon@@UEAAJPEAPEA_W@Z 000000018002a484     * CIL library *:* CIL module *
 0002:0000a484       $unwind$__onexitinit       000000018002a484     * CIL library *:* CIL module *
 0002:0000a484       $unwind$?OnInitDialog@CertPropertyDlg@@MEAAHPEAUHWND__@@@Z 000000018002a484     * CIL library *:* CIL module *
 0002:0000a484       $unwind$?OnOK@CertPropertyDlg@@UEAAXXZ 000000018002a484     * CIL library *:* CIL module *
 0002:0000a484       $unwind$??_G_Generic_error_category@std@@UEAAPEAXI@Z 000000018002a484     * CIL library *:* CIL module *
 0002:0000a484       $unwind$??_G_Iostream_error_category@std@@UEAAPEAXI@Z 000000018002a484     * CIL library *:* CIL module *
 0002:0000a484       $unwind$_amsg_exit         000000018002a484     * CIL library *:* CIL module *
 0002:0000a484       $unwind$__crtExitProcess   000000018002a484     * CIL library *:* CIL module *
 0002:0000a484       $unwind$??_G_System_error_category@std@@UEAAPEAXI@Z 000000018002a484     * CIL library *:* CIL module *
 0002:0000a484       $unwind$__crtLoadWinApiPointers 000000018002a484     * CIL library *:* CIL module *
 0002:0000a484       $unwind$_getptd            000000018002a484     * CIL library *:* CIL module *
 0002:0000a484       $unwind$strcpy_s           000000018002a484     * CIL library *:* CIL module *
 0002:0000a484       $unwind$?OnInitDialog@KeyInputDlg@@UEAAHPEAUHWND__@@@Z 000000018002a484     * CIL library *:* CIL module *
 0002:0000a484       $unwind$wcscat_s           000000018002a484     * CIL library *:* CIL module *
 0002:0000a484       $unwind$?OnOK@KeyInputDlg@@UEAAXXZ 000000018002a484     * CIL library *:* CIL module *
 0002:0000a484       $unwind$wcscpy_s           000000018002a484     * CIL library *:* CIL module *
 0002:0000a484       $unwind$__crtCorExitProcess 000000018002a484     * CIL library *:* CIL module *
 0002:0000a484       $unwind$wcsncpy_s          000000018002a484     * CIL library *:* CIL module *
 0002:0000a484       $unwind$?OnEditFocus@KeyInputDlg@@UEAAXH@Z 000000018002a484     * CIL library *:* CIL module *
 0002:0000a484       $unwind$_callnewh          000000018002a484     * CIL library *:* CIL module *
 0002:0000a484       $unwind$_init_pointers     000000018002a484     * CIL library *:* CIL module *
 0002:0000a484       $unwind$?CheckValid@WapiCertPropertyDlg@@UEBAKPEBU_CERT_CONTEXT@@@Z 000000018002a484     * CIL library *:* CIL module *
 0002:0000a484       $unwind$??0exception@std@@QEAA@AEBQEBD@Z 000000018002a484     * CIL library *:* CIL module *
 0002:0000a484       $unwind$??1CProfileIHVSecurity@@QEAA@XZ 000000018002a484     * CIL library *:* CIL module *
 0002:0000a484       $unwind$??0bad_alloc@std@@QEAA@AEBV01@@Z 000000018002a484     * CIL library *:* CIL module *
 0002:0000a484       $unwind$?__GetUnwindTryBlock@@YAHPEA_KPEAU_xDISPATCHER_CONTEXT@@PEBU_s_FuncInfo@@@Z 000000018002a484     * CIL library *:* CIL module *
 0002:0000a484       $unwind$??1CExtUI@@QEAA@XZ 000000018002a484     * CIL library *:* CIL module *
 0002:0000a484       $unwind$__raise_securityfailure 000000018002a484     * CIL library *:* CIL module *
 0002:0000a484       $unwind$?Notify_IsValid@WapiKeyInputPropDlg@@UEAAXH@Z 000000018002a484     * CIL library *:* CIL module *
 0002:0000a484       $unwind$??0exception@std@@QEAA@AEBV01@@Z 000000018002a484     * CIL library *:* CIL module *
 0002:0000a484       $unwind$__crtTerminateProcess 000000018002a484     * CIL library *:* CIL module *
 0002:0000a484       $unwind$?CheckValid@WapiCertPropDlg@@UEBAKPEBU_CERT_CONTEXT@@@Z 000000018002a484     * CIL library *:* CIL module *
 0002:0000a484       $unwind$?Notify_IsValid@WapiCertPropDlg@@UEAAXH@Z 000000018002a484     * CIL library *:* CIL module *
 0002:0000a484       $unwind$_CreateFrameInfo   000000018002a484     * CIL library *:* CIL module *
 0002:0000a484       $unwind$__crtIsPackagedApp 000000018002a484     * CIL library *:* CIL module *
 0002:0000a484       $unwind$?_Tidy@exception@std@@AEAAXXZ 000000018002a484     * CIL library *:* CIL module *
 0002:0000a484       $unwind$__crtUnhandledException 000000018002a484     * CIL library *:* CIL module *
 0002:0000a484       $unwind$_IsExceptionObjectToBeDestroyed 000000018002a484     * CIL library *:* CIL module *
 0002:0000a48c       $unwind$?message@_Iostream_error_category@std@@UEBA?AV?$basic_string@DU?$char_traits@D@std@@V?$allocator@D@2@@2@H@Z 000000018002a48c     * CIL library *:* CIL module *
 0002:0000a48c       $unwind$_fassign_l         000000018002a48c     * CIL library *:* CIL module *
 0002:0000a48c       $unwind$?equivalent@error_category@std@@UEBA_NHAEBVerror_condition@2@@Z 000000018002a48c     * CIL library *:* CIL module *
 0002:0000a494       $unwind$?message@_Generic_error_category@std@@UEBA?AV?$basic_string@DU?$char_traits@D@std@@V?$allocator@D@2@@2@H@Z 000000018002a494     * CIL library *:* CIL module *
 0002:0000a494       $unwind$?DialogProc@CertSelectorDlg@@SA_JPEAUHWND__@@I_K_J@Z 000000018002a494     * CIL library *:* CIL module *
 0002:0000a494       $unwind$?message@_System_error_category@std@@UEBA?AV?$basic_string@DU?$char_traits@D@std@@V?$allocator@D@2@@2@H@Z 000000018002a494     * CIL library *:* CIL module *
 0002:0000a494       $unwind$_vswprintf_s_l     000000018002a494     * CIL library *:* CIL module *
 0002:0000a4a0       $unwind$?GetCredentialFromCertificate@@YAHPEBU_CERT_CONTEXT@@PEAPEAU_IHV_CREDENTIAL@@@Z 000000018002a4a0     * CIL library *:* CIL module *
 0002:0000a4ac       $chain$1$?GetCredentialFromCertificate@@YAHPEBU_CERT_CONTEXT@@PEAPEAU_IHV_CREDENTIAL@@@Z 000000018002a4ac     * CIL library *:* CIL module *
 0002:0000a4c4       $chain$2$?GetCredentialFromCertificate@@YAHPEBU_CERT_CONTEXT@@PEAPEAU_IHV_CREDENTIAL@@@Z 000000018002a4c4     * CIL library *:* CIL module *
 0002:0000a4d8       $chain$3$?GetCredentialFromCertificate@@YAHPEBU_CERT_CONTEXT@@PEAPEAU_IHV_CREDENTIAL@@@Z 000000018002a4d8     * CIL library *:* CIL module *
 0002:0000a4e8       $chain$7$?GetCredentialFromCertificate@@YAHPEBU_CERT_CONTEXT@@PEAPEAU_IHV_CREDENTIAL@@@Z 000000018002a4e8     * CIL library *:* CIL module *
 0002:0000a4e8       $chain$4$?GetCredentialFromCertificate@@YAHPEBU_CERT_CONTEXT@@PEAPEAU_IHV_CREDENTIAL@@@Z 000000018002a4e8     * CIL library *:* CIL module *
 0002:0000a4f8       $chain$5$?GetCredentialFromCertificate@@YAHPEBU_CERT_CONTEXT@@PEAPEAU_IHV_CREDENTIAL@@@Z 000000018002a4f8     * CIL library *:* CIL module *
 0002:0000a514       $chain$6$?GetCredentialFromCertificate@@YAHPEBU_CERT_CONTEXT@@PEAPEAU_IHV_CREDENTIAL@@@Z 000000018002a514     * CIL library *:* CIL module *
 0002:0000a52c       $unwind$?OnInitDialog@WapiBaseKeyInputDlg@@MEAAHPEAUHWND__@@@Z 000000018002a52c     * CIL library *:* CIL module *
 0002:0000a544       $unwind$?GetDot11ExtUIFriendlyName@CExtUI@@UEAAJPEAPEA_W@Z 000000018002a544     * CIL library *:* CIL module *
 0002:0000a544       $unwind$?__FrameUnwindToEmptyState@@YAXPEA_KPEAU_xDISPATCHER_CONTEXT@@PEBU_s_FuncInfo@@@Z 000000018002a544     * CIL library *:* CIL module *
 0002:0000a558       $unwind$?GetDot11ExtUIProperties@CExtUI@@UEAAJW4_DOT11_EXT_UI_PROPERTY_TYPE@@PEAKPEAPEAUIDot11ExtUIProperty@@@Z 000000018002a558     * CIL library *:* CIL module *
 0002:0000a570       $unwind$_ioterm            000000018002a570     * CIL library *:* CIL module *
 0002:0000a570       $unwind$_mtinitlocks       000000018002a570     * CIL library *:* CIL module *
 0002:0000a570       $unwind$?assign@?$basic_string@DU?$char_traits@D@std@@V?$allocator@D@2@@std@@QEAAAEAV12@PEBD_K@Z 000000018002a570     * CIL library *:* CIL module *
 0002:0000a570       $unwind$realloc            000000018002a570     * CIL library *:* CIL module *
 0002:0000a570       $unwind$_lseeki64_nolock   000000018002a570     * CIL library *:* CIL module *
 0002:0000a570       $unwind$?InitEditGroup@KeyInputDlg@@UEAAXXZ 000000018002a570     * CIL library *:* CIL module *
 0002:0000a570       $unwind$??_GKeyInputDlg@@UEAAPEAXI@Z 000000018002a570     * CIL library *:* CIL module *
 0002:0000a570       $unwind$?DialogProc@CertPropertyDlg@@SA_JPEAUHWND__@@I_K_J@Z 000000018002a570     * CIL library *:* CIL module *
 0002:0000a570       $unwind$?BuildStringMap@@YAXPEAUHINSTANCE__@@@Z 000000018002a570     * CIL library *:* CIL module *
 0002:0000a570       $unwind$??_GWapiKeyInputDlg@@UEAAPEAXI@Z 000000018002a570     * CIL library *:* CIL module *
 0002:0000a570       $unwind$memcpy_s           000000018002a570     * CIL library *:* CIL module *
 0002:0000a570       $unwind$_DllMainCRTStartup 000000018002a570     * CIL library *:* CIL module *
 0002:0000a570       $unwind$?_Assign_rv@?$basic_string@_WU?$char_traits@_W@std@@V?$allocator@_W@2@@std@@QEAAX$$QEAV12@@Z 000000018002a570     * CIL library *:* CIL module *
 0002:0000a570       $unwind$??0KeyInputDlg@@QEAA@PEAUHINSTANCE__@@PEA_WHHK@Z 000000018002a570     * CIL library *:* CIL module *
 0002:0000a570       $unwind$_flush             000000018002a570     * CIL library *:* CIL module *
 0002:0000a570       $unwind$??_GWapiKeyInputPropDlg@@UEAAPEAXI@Z 000000018002a570     * CIL library *:* CIL module *
 0002:0000a570       $unwind$??_GConnConfigDlg@@UEAAPEAXI@Z 000000018002a570     * CIL library *:* CIL module *
 0002:0000a570       $unwind$malloc             000000018002a570     * CIL library *:* CIL module *
 0002:0000a570       $unwind$?assign@?$basic_string@_WU?$char_traits@_W@std@@V?$allocator@_W@2@@std@@QEAAAEAV12@PEB_W_K@Z 000000018002a570     * CIL library *:* CIL module *
 0002:0000a580       $unwind$?ReadUiRequest@CExtUI@@AEAAJPEAPEAU_IHV_UI_REQUEST@@@Z 000000018002a580     * CIL library *:* CIL module *
 0002:0000a594       $chain$0$?ReadUiRequest@CExtUI@@AEAAJPEAPEAU_IHV_UI_REQUEST@@@Z 000000018002a594     * CIL library *:* CIL module *
 0002:0000a5a8       $chain$1$?ReadUiRequest@CExtUI@@AEAAJPEAPEAU_IHV_UI_REQUEST@@@Z 000000018002a5a8     * CIL library *:* CIL module *
 0002:0000a5b8       $unwind$?WriteUiResponse@CExtUI@@AEAAJPEBU_IHV_CREDENTIAL@@@Z 000000018002a5b8     * CIL library *:* CIL module *
 0002:0000a5cc       $chain$0$?WriteUiResponse@CExtUI@@AEAAJPEBU_IHV_CREDENTIAL@@@Z 000000018002a5cc     * CIL library *:* CIL module *
 0002:0000a5e0       $chain$4$?WriteUiResponse@CExtUI@@AEAAJPEBU_IHV_CREDENTIAL@@@Z 000000018002a5e0     * CIL library *:* CIL module *
 0002:0000a600       $chain$5$?WriteUiResponse@CExtUI@@AEAAJPEBU_IHV_CREDENTIAL@@@Z 000000018002a600     * CIL library *:* CIL module *
 0002:0000a610       $chain$6$?WriteUiResponse@CExtUI@@AEAAJPEBU_IHV_CREDENTIAL@@@Z 000000018002a610     * CIL library *:* CIL module *
 0002:0000a620       $unwind$?AddPages@CExtUI@@UEAAJPEAPEAU_PSP@@IPEAI@Z 000000018002a620     * CIL library *:* CIL module *
 0002:0000a63c       $unwind$?GetClsidPropertyName@CExtUI@@AEAAJPEBU_GUID@@PEB_WPEA_WI@Z 000000018002a63c     * CIL library *:* CIL module *
 0002:0000a648       $chain$0$?GetClsidPropertyName@CExtUI@@AEAAJPEBU_GUID@@PEB_WPEA_WI@Z 000000018002a648     * CIL library *:* CIL module *
 0002:0000a65c       $chain$3$?GetClsidPropertyName@CExtUI@@AEAAJPEBU_GUID@@PEB_WPEA_WI@Z 000000018002a65c     * CIL library *:* CIL module *
 0002:0000a678       $chain$4$?GetClsidPropertyName@CExtUI@@AEAAJPEBU_GUID@@PEB_WPEA_WI@Z 000000018002a678     * CIL library *:* CIL module *
 0002:0000a688       $chain$5$?GetClsidPropertyName@CExtUI@@AEAAJPEBU_GUID@@PEB_WPEA_WI@Z 000000018002a688     * CIL library *:* CIL module *
 0002:0000a698       $unwind$??1CExtUIKey@@QEAA@XZ 000000018002a698     * CIL library *:* CIL module *
 0002:0000a698       $unwind$??1CExtUISec@@QEAA@XZ 000000018002a698     * CIL library *:* CIL module *
 0002:0000a6a8       $chain$0$??1CExtUIKey@@QEAA@XZ 000000018002a6a8     * CIL library *:* CIL module *
 0002:0000a6bc       $chain$1$??1CExtUIKey@@QEAA@XZ 000000018002a6bc     * CIL library *:* CIL module *
 0002:0000a6cc       $unwind$?Customize@CExtUIKey@@UEAAJPEAE@Z 000000018002a6cc     * CIL library *:* CIL module *
 0002:0000a6cc       $unwind$?Customize@CExtUISec@@QEAAJPEAE@Z 000000018002a6cc     * CIL library *:* CIL module *
 0002:0000a6dc       $chain$4$?Customize@CExtUIKey@@UEAAJPEAE@Z 000000018002a6dc     * CIL library *:* CIL module *
 0002:0000a6f8       $chain$5$?Customize@CExtUIKey@@UEAAJPEAE@Z 000000018002a6f8     * CIL library *:* CIL module *
 0002:0000a708       $unwind$?Dot11ExtUIPropertyGetSelected@CExtUISec@@UEAAJPEA_WPEAU_DOT11EXT_IHV_PARAMS@@PEAH@Z 000000018002a708     * CIL library *:* CIL module *
 0002:0000a708       $unwind$?Dot11ExtUIPropertyGetSelected@CExtUIKey@@UEAAJPEA_WPEAU_DOT11EXT_IHV_PARAMS@@PEAH@Z 000000018002a708     * CIL library *:* CIL module *
 0002:0000a728       $stateUnwindMap$?Dot11ExtUIPropertySetSelected@CExtUISec@@UEAAJPEA_WPEAU_DOT11EXT_IHV_PARAMS@@PEAPEA_WPEAH@Z 000000018002a728     * CIL library *:* CIL module *
 0002:0000a728       $stateUnwindMap$?Dot11ExtUIPropertyGetSelected@CExtUIKey@@UEAAJPEA_WPEAU_DOT11EXT_IHV_PARAMS@@PEAH@Z 000000018002a728     * CIL library *:* CIL module *
 0002:0000a728       $stateUnwindMap$?Dot11ExtUIPropertyGetSelected@CExtUISec@@UEAAJPEA_WPEAU_DOT11EXT_IHV_PARAMS@@PEAH@Z 000000018002a728     * CIL library *:* CIL module *
 0002:0000a728       $stateUnwindMap$?Dot11ExtUIPropertySetDisplayInfo@CExtUISec@@UEAAJW4_DOT11_EXT_UI_DISPLAY_INFO_TYPE@@PEA_WPEAU_DOT11EXT_IHV_PARAMS@@PEAU_DOT11_EXT_UI_PROPERTY_DISPLAY_INFO@@PEAPEA_WPEAH@Z 000000018002a728     * CIL library *:* CIL module *
 0002:0000a728       $stateUnwindMap$?Dot11ExtUIPropertySetDisplayInfo@CExtUIKey@@UEAAJW4_DOT11_EXT_UI_DISPLAY_INFO_TYPE@@PEA_WPEAU_DOT11EXT_IHV_PARAMS@@PEAU_DOT11_EXT_UI_PROPERTY_DISPLAY_INFO@@PEAPEA_WPEAH@Z 000000018002a728     * CIL library *:* CIL module *
 0002:0000a728       $stateUnwindMap$?Dot11ExtUIPropertyGetDisplayInfo@CExtUIKey@@UEAAJW4_DOT11_EXT_UI_DISPLAY_INFO_TYPE@@PEA_WPEAU_DOT11EXT_IHV_PARAMS@@PEAK3PEAPEAU_DOT11_EXT_UI_PROPERTY_DISPLAY_INFO@@@Z 000000018002a728     * CIL library *:* CIL module *
 0002:0000a728       $stateUnwindMap$?Dot11ExtUIPropertySetSelected@CExtUIKey@@UEAAJPEA_WPEAU_DOT11EXT_IHV_PARAMS@@PEAPEA_WPEAH@Z 000000018002a728     * CIL library *:* CIL module *
 0002:0000a728       $stateUnwindMap$?Dot11ExtUIPropertyGetDisplayInfo@CExtUISec@@UEAAJW4_DOT11_EXT_UI_DISPLAY_INFO_TYPE@@PEA_WPEAU_DOT11EXT_IHV_PARAMS@@PEAK3PEAPEAU_DOT11_EXT_UI_PROPERTY_DISPLAY_INFO@@@Z 000000018002a728     * CIL library *:* CIL module *
 0002:0000a730       $ip2state$?Dot11ExtUIPropertyGetSelected@CExtUISec@@UEAAJPEA_WPEAU_DOT11EXT_IHV_PARAMS@@PEAH@Z 000000018002a730     * CIL library *:* CIL module *
 0002:0000a730       $ip2state$?Dot11ExtUIPropertyGetSelected@CExtUIKey@@UEAAJPEA_WPEAU_DOT11EXT_IHV_PARAMS@@PEAH@Z 000000018002a730     * CIL library *:* CIL module *
 0002:0000a748       $unwind$?Dot11ExtUIPropertySetSelected@CExtUIKey@@UEAAJPEA_WPEAU_DOT11EXT_IHV_PARAMS@@PEAPEA_WPEAH@Z 000000018002a748     * CIL library *:* CIL module *
 0002:0000a764       $ip2state$?Dot11ExtUIPropertySetSelected@CExtUIKey@@UEAAJPEA_WPEAU_DOT11EXT_IHV_PARAMS@@PEAPEA_WPEAH@Z 000000018002a764     * CIL library *:* CIL module *
 0002:0000a77c       $unwind$?Dot11ExtUIPropertyGetDisplayInfo@CExtUIKey@@UEAAJW4_DOT11_EXT_UI_DISPLAY_INFO_TYPE@@PEA_WPEAU_DOT11EXT_IHV_PARAMS@@PEAK3PEAPEAU_DOT11_EXT_UI_PROPERTY_DISPLAY_INFO@@@Z 000000018002a77c     * CIL library *:* CIL module *
 0002:0000a798       $ip2state$?Dot11ExtUIPropertyGetDisplayInfo@CExtUIKey@@UEAAJW4_DOT11_EXT_UI_DISPLAY_INFO_TYPE@@PEA_WPEAU_DOT11EXT_IHV_PARAMS@@PEAK3PEAPEAU_DOT11_EXT_UI_PROPERTY_DISPLAY_INFO@@@Z 000000018002a798     * CIL library *:* CIL module *
 0002:0000a7b0       $unwind$?Dot11ExtUIPropertySetDisplayInfo@CExtUISec@@UEAAJW4_DOT11_EXT_UI_DISPLAY_INFO_TYPE@@PEA_WPEAU_DOT11EXT_IHV_PARAMS@@PEAU_DOT11_EXT_UI_PROPERTY_DISPLAY_INFO@@PEAPEA_WPEAH@Z 000000018002a7b0     * CIL library *:* CIL module *
 0002:0000a7b0       $unwind$?Dot11ExtUIPropertySetDisplayInfo@CExtUIKey@@UEAAJW4_DOT11_EXT_UI_DISPLAY_INFO_TYPE@@PEA_WPEAU_DOT11EXT_IHV_PARAMS@@PEAU_DOT11_EXT_UI_PROPERTY_DISPLAY_INFO@@PEAPEA_WPEAH@Z 000000018002a7b0     * CIL library *:* CIL module *
 0002:0000a7cc       $ip2state$?Dot11ExtUIPropertySetDisplayInfo@CExtUISec@@UEAAJW4_DOT11_EXT_UI_DISPLAY_INFO_TYPE@@PEA_WPEAU_DOT11EXT_IHV_PARAMS@@PEAU_DOT11_EXT_UI_PROPERTY_DISPLAY_INFO@@PEAPEA_WPEAH@Z 000000018002a7cc     * CIL library *:* CIL module *
 0002:0000a7cc       $ip2state$?Dot11ExtUIPropertySetDisplayInfo@CExtUIKey@@UEAAJW4_DOT11_EXT_UI_DISPLAY_INFO_TYPE@@PEA_WPEAU_DOT11EXT_IHV_PARAMS@@PEAU_DOT11_EXT_UI_PROPERTY_DISPLAY_INFO@@PEAPEA_WPEAH@Z 000000018002a7cc     * CIL library *:* CIL module *
 0002:0000a7e4       $chain$0$??1CExtUISec@@QEAA@XZ 000000018002a7e4     * CIL library *:* CIL module *
 0002:0000a7f8       $chain$1$??1CExtUISec@@QEAA@XZ 000000018002a7f8     * CIL library *:* CIL module *
 0002:0000a808       $chain$4$?Customize@CExtUISec@@QEAAJPEAE@Z 000000018002a808     * CIL library *:* CIL module *
 0002:0000a824       $chain$5$?Customize@CExtUISec@@QEAAJPEAE@Z 000000018002a824     * CIL library *:* CIL module *
 0002:0000a834       $unwind$?GetDot11ExtUIPropertyFriendlyName@CExtUISec@@UEAAJPEAPEA_W@Z 000000018002a834     * CIL library *:* CIL module *
 0002:0000a84c       $unwind$?Dot11ExtUIPropertySetSelected@CExtUISec@@UEAAJPEA_WPEAU_DOT11EXT_IHV_PARAMS@@PEAPEA_WPEAH@Z 000000018002a84c     * CIL library *:* CIL module *
 0002:0000a868       $ip2state$?Dot11ExtUIPropertySetSelected@CExtUISec@@UEAAJPEA_WPEAU_DOT11EXT_IHV_PARAMS@@PEAPEA_WPEAH@Z 000000018002a868     * CIL library *:* CIL module *
 0002:0000a880       $unwind$?Dot11ExtUIPropertyGetDisplayInfo@CExtUISec@@UEAAJW4_DOT11_EXT_UI_DISPLAY_INFO_TYPE@@PEA_WPEAU_DOT11EXT_IHV_PARAMS@@PEAK3PEAPEAU_DOT11_EXT_UI_PROPERTY_DISPLAY_INFO@@@Z 000000018002a880     * CIL library *:* CIL module *
 0002:0000a8a0       $ip2state$?Dot11ExtUIPropertyGetDisplayInfo@CExtUISec@@UEAAJW4_DOT11_EXT_UI_DISPLAY_INFO_TYPE@@PEA_WPEAU_DOT11EXT_IHV_PARAMS@@PEAK3PEAPEAU_DOT11_EXT_UI_PROPERTY_DISPLAY_INFO@@@Z 000000018002a8a0     * CIL library *:* CIL module *
 0002:0000a8b8       $unwind$?DisplayDot11ExtUIProperty@CExtUISec@@UEAAJPEAUHWND__@@PEA_WPEAU_DOT11EXT_IHV_PARAMS@@PEAPEA_WPEAH@Z 000000018002a8b8     * CIL library *:* CIL module *
 0002:0000a8e0       $stateUnwindMap$?DisplayDot11ExtUIProperty@CExtUISec@@UEAAJPEAUHWND__@@PEA_WPEAU_DOT11EXT_IHV_PARAMS@@PEAPEA_WPEAH@Z 000000018002a8e0     * CIL library *:* CIL module *
 0002:0000a8e8       $ip2state$?DisplayDot11ExtUIProperty@CExtUISec@@UEAAJPEAUHWND__@@PEA_WPEAU_DOT11EXT_IHV_PARAMS@@PEAPEA_WPEAH@Z 000000018002a8e8     * CIL library *:* CIL module *
 0002:0000a900       $unwind$?MessageBoxW@@YAHPEAUHWND__@@III@Z 000000018002a900     * CIL library *:* CIL module *
 0002:0000a900       $unwind$?IsInExceptionSpec@@YAEPEAUEHExceptionRecord@@PEBU_s_ESTypeList@@@Z 000000018002a900     * CIL library *:* CIL module *
 0002:0000a91c       $unwind$?DisplayDot11ExtUIProperty@CExtUICon@@UEAAJPEAUHWND__@@PEA_WPEAU_DOT11EXT_IHV_PARAMS@@PEAPEA_WPEAH@Z 000000018002a91c     * CIL library *:* CIL module *
 0002:0000a944       $stateUnwindMap$?DisplayDot11ExtUIProperty@CExtUICon@@UEAAJPEAUHWND__@@PEA_WPEAU_DOT11EXT_IHV_PARAMS@@PEAPEA_WPEAH@Z 000000018002a944     * CIL library *:* CIL module *
 0002:0000a9ec       $ip2state$?DisplayDot11ExtUIProperty@CExtUICon@@UEAAJPEAUHWND__@@PEA_WPEAU_DOT11EXT_IHV_PARAMS@@PEAPEA_WPEAH@Z 000000018002a9ec     * CIL library *:* CIL module *
 0002:0000ab44       $unwind$?CreateConnFragment@CExtUICon@@AEAAPEA_WPEA_W0@Z 000000018002ab44     * CIL library *:* CIL module *
 0002:0000ab58       $chain$0$?CreateConnFragment@CExtUICon@@AEAAPEA_WPEA_W0@Z 000000018002ab58     * CIL library *:* CIL module *
 0002:0000ab6c       $chain$3$?CreateConnFragment@CExtUICon@@AEAAPEA_WPEA_W0@Z 000000018002ab6c     * CIL library *:* CIL module *
 0002:0000ab88       $chain$5$?CreateConnFragment@CExtUICon@@AEAAPEA_WPEA_W0@Z 000000018002ab88     * CIL library *:* CIL module *
 0002:0000aba0       $chain$6$?CreateConnFragment@CExtUICon@@AEAAPEA_WPEA_W0@Z 000000018002aba0     * CIL library *:* CIL module *
 0002:0000abb0       $chain$7$?CreateConnFragment@CExtUICon@@AEAAPEA_WPEA_W0@Z 000000018002abb0     * CIL library *:* CIL module *
 0002:0000abc0       $chain$8$?CreateConnFragment@CExtUICon@@AEAAPEA_WPEA_W0@Z 000000018002abc0     * CIL library *:* CIL module *
 0002:0000abd0       $unwind$?OnHideChars@ConnConfigDlg@@UEAAXXZ 000000018002abd0     * CIL library *:* CIL module *
 0002:0000abd0       $unwind$?CertificateFilterFunction@@YAHPEBU_CERT_CONTEXT@@PEAHPEAX@Z 000000018002abd0     * CIL library *:* CIL module *
 0002:0000abd0       $unwind$__freetlocinfo     000000018002abd0     * CIL library *:* CIL module *
 0002:0000abd0       $unwind$_XcptFilter        000000018002abd0     * CIL library *:* CIL module *
 0002:0000abd0       $unwind$?assign@?$basic_string@DU?$char_traits@D@std@@V?$allocator@D@2@@std@@QEAAAEAV12@AEBV12@_K1@Z 000000018002abd0     * CIL library *:* CIL module *
 0002:0000abd0       $unwind$?assign@?$basic_string@_WU?$char_traits@_W@std@@V?$allocator@_W@2@@std@@QEAAAEAV12@AEBV12@_K1@Z 000000018002abd0     * CIL library *:* CIL module *
 0002:0000abd0       $unwind$?SelectEditGroup@KeyInputDlg@@IEAAXPEAU_tKeyInEditGroup@1@@Z 000000018002abd0     * CIL library *:* CIL module *
 0002:0000abd0       $unwind$?__StateFromIp@@YAHPEBU_s_FuncInfo@@PEAU_xDISPATCHER_CONTEXT@@_J@Z 000000018002abd0     * CIL library *:* CIL module *
 0002:0000abd0       $unwind$_mtdeletelocks     000000018002abd0     * CIL library *:* CIL module *
 0002:0000abd0       $unwind$?setSBCS@@YAXPEAUthreadmbcinfostruct@@@Z 000000018002abd0     * CIL library *:* CIL module *
 0002:0000abe4       $chain$0$?_Tidy@?$basic_string@_WU?$char_traits@_W@std@@V?$allocator@_W@2@@std@@QEAAX_N_K@Z 000000018002abe4     * CIL library *:* CIL module *
 0002:0000abf8       $chain$1$?_Tidy@?$basic_string@_WU?$char_traits@_W@std@@V?$allocator@_W@2@@std@@QEAAX_N_K@Z 000000018002abf8     * CIL library *:* CIL module *
 0002:0000ac08       $unwind$?_Copy@?$basic_string@DU?$char_traits@D@std@@V?$allocator@D@2@@std@@QEAAX_K0@Z 000000018002ac08     * CIL library *:* CIL module *
 0002:0000ac20       $stateUnwindMap$?_Copy@?$basic_string@DU?$char_traits@D@std@@V?$allocator@D@2@@std@@QEAAX_K0@Z 000000018002ac20     * CIL library *:* CIL module *
 0002:0000ac20       $stateUnwindMap$?_Copy@?$basic_string@_WU?$char_traits@_W@std@@V?$allocator@_W@2@@std@@QEAAX_K0@Z 000000018002ac20     * CIL library *:* CIL module *
 0002:0000ac40       $tryMap$?_Copy@?$basic_string@DU?$char_traits@D@std@@V?$allocator@D@2@@std@@QEAAX_K0@Z 000000018002ac40     * CIL library *:* CIL module *
 0002:0000ac68       $handlerMap$0$?_Copy@?$basic_string@DU?$char_traits@D@std@@V?$allocator@D@2@@std@@QEAAX_K0@Z 000000018002ac68     * CIL library *:* CIL module *
 0002:0000ac7c       $handlerMap$1$?_Copy@?$basic_string@DU?$char_traits@D@std@@V?$allocator@D@2@@std@@QEAAX_K0@Z 000000018002ac7c     * CIL library *:* CIL module *
 0002:0000ac90       $ip2state$?_Copy@?$basic_string@DU?$char_traits@D@std@@V?$allocator@D@2@@std@@QEAAX_K0@Z 000000018002ac90     * CIL library *:* CIL module *
 0002:0000acd0       $unwind$?catch$1@?0??_Copy@?$basic_string@DU?$char_traits@D@std@@V?$allocator@D@2@@std@@QEAAX_K0@Z@4HA 000000018002acd0     * CIL library *:* CIL module *
 0002:0000ace0       $unwind$?catch$0@?0??_Copy@?$basic_string@DU?$char_traits@D@std@@V?$allocator@D@2@@std@@QEAAX_K0@Z@4HA 000000018002ace0     * CIL library *:* CIL module *
 0002:0000acf4       $unwind$??$GetCredentialDlgProc@VWapiKeyInputPropDlg@@@CExtUI@@CA_JPEAUHWND__@@I_K_J@Z 000000018002acf4     * CIL library *:* CIL module *
 0002:0000ad04       $chain$0$??$GetCredentialDlgProc@VWapiKeyInputPropDlg@@@CExtUI@@CA_JPEAUHWND__@@I_K_J@Z 000000018002ad04     * CIL library *:* CIL module *
 0002:0000ad18       $chain$7$??$GetCredentialDlgProc@VWapiKeyInputPropDlg@@@CExtUI@@CA_JPEAUHWND__@@I_K_J@Z 000000018002ad18     * CIL library *:* CIL module *
 0002:0000ad18       $chain$1$??$GetCredentialDlgProc@VWapiKeyInputPropDlg@@@CExtUI@@CA_JPEAUHWND__@@I_K_J@Z 000000018002ad18     * CIL library *:* CIL module *
 0002:0000ad28       $chain$2$??$GetCredentialDlgProc@VWapiKeyInputPropDlg@@@CExtUI@@CA_JPEAUHWND__@@I_K_J@Z 000000018002ad28     * CIL library *:* CIL module *
 0002:0000ad3c       $chain$3$??$GetCredentialDlgProc@VWapiKeyInputPropDlg@@@CExtUI@@CA_JPEAUHWND__@@I_K_J@Z 000000018002ad3c     * CIL library *:* CIL module *
 0002:0000ad50       $chain$4$??$GetCredentialDlgProc@VWapiKeyInputPropDlg@@@CExtUI@@CA_JPEAUHWND__@@I_K_J@Z 000000018002ad50     * CIL library *:* CIL module *
 0002:0000ad64       $chain$5$??$GetCredentialDlgProc@VWapiKeyInputPropDlg@@@CExtUI@@CA_JPEAUHWND__@@I_K_J@Z 000000018002ad64     * CIL library *:* CIL module *
 0002:0000ad74       $chain$6$??$GetCredentialDlgProc@VWapiKeyInputPropDlg@@@CExtUI@@CA_JPEAUHWND__@@I_K_J@Z 000000018002ad74     * CIL library *:* CIL module *
 0002:0000ad84       $unwind$?Refresh@CertSelectorDlg@@EEAAXXZ 000000018002ad84     * CIL library *:* CIL module *
 0002:0000ad84       $unwind$__crtLCMapStringW  000000018002ad84     * CIL library *:* CIL module *
 0002:0000ad84       $unwind$??$GetCredentialDlgProc@VWapiCertPropDlg@@@CExtUI@@CA_JPEAUHWND__@@I_K_J@Z 000000018002ad84     * CIL library *:* CIL module *
 0002:0000ad94       $unwind$?LaunchDialog@ConnConfigDlg@@SAHPEAUHINSTANCE__@@PEAUHWND__@@PEAVDPTProfile@@H@Z 000000018002ad94     * CIL library *:* CIL module *
 0002:0000adac       $chain$0$?DialogProc@ConnConfigDlg@@SA_JPEAUHWND__@@I_K_J@Z 000000018002adac     * CIL library *:* CIL module *
 0002:0000adc0       $chain$2$?DialogProc@ConnConfigDlg@@SA_JPEAUHWND__@@I_K_J@Z 000000018002adc0     * CIL library *:* CIL module *
 0002:0000adc0       $chain$4$?DialogProc@ConnConfigDlg@@SA_JPEAUHWND__@@I_K_J@Z 000000018002adc0     * CIL library *:* CIL module *
 0002:0000adc0       $chain$8$?DialogProc@ConnConfigDlg@@SA_JPEAUHWND__@@I_K_J@Z 000000018002adc0     * CIL library *:* CIL module *
 0002:0000adc0       $chain$6$?DialogProc@ConnConfigDlg@@SA_JPEAUHWND__@@I_K_J@Z 000000018002adc0     * CIL library *:* CIL module *
 0002:0000adc0       $chain$10$?DialogProc@ConnConfigDlg@@SA_JPEAUHWND__@@I_K_J@Z 000000018002adc0     * CIL library *:* CIL module *
 0002:0000add4       $chain$11$?DialogProc@ConnConfigDlg@@SA_JPEAUHWND__@@I_K_J@Z 000000018002add4     * CIL library *:* CIL module *
 0002:0000ade4       $unwind$?Refresh@ConnConfigDlg@@UEAAXXZ 000000018002ade4     * CIL library *:* CIL module *
 0002:0000ade4       $unwind$?Refresh@KeyInputDlg@@UEAAXXZ 000000018002ade4     * CIL library *:* CIL module *
 0002:0000adec       $chain$0$?Refresh@ConnConfigDlg@@UEAAXXZ 000000018002adec     * CIL library *:* CIL module *
 0002:0000ae00       $chain$1$?Refresh@ConnConfigDlg@@UEAAXXZ 000000018002ae00     * CIL library *:* CIL module *
 0002:0000ae14       $chain$2$?Refresh@ConnConfigDlg@@UEAAXXZ 000000018002ae14     * CIL library *:* CIL module *
 0002:0000ae24       $chain$3$?Refresh@ConnConfigDlg@@UEAAXXZ 000000018002ae24     * CIL library *:* CIL module *
 0002:0000ae34       $unwind$?BinaryToHexRawString@@YAPEA_WQEAEK@Z 000000018002ae34     * CIL library *:* CIL module *
 0002:0000ae48       $unwind$?HexRawStringToBinary@@YAPEAEPEB_WPEAK@Z 000000018002ae48     * CIL library *:* CIL module *
 0002:0000ae5c       $unwind$?IsCertificateExpired@@YAHPEBU_CERT_CONTEXT@@@Z 000000018002ae5c     * CIL library *:* CIL module *
 0002:0000ae6c       $unwind$?GetCertificateExpiresOn@@YAHPEBU_CERT_CONTEXT@@PEA_WHPEAH@Z 000000018002ae6c     * CIL library *:* CIL module *
 0002:0000ae80       $unwind$?GetCertificateDisplayInfo@@YAHPEBU_CERT_CONTEXT@@PEAPEAU_CERT_DISPLAY_INFO@@@Z 000000018002ae80     * CIL library *:* CIL module *
 0002:0000ae9c       $chain$1$?GetCertificateDisplayInfo@@YAHPEBU_CERT_CONTEXT@@PEAPEAU_CERT_DISPLAY_INFO@@@Z 000000018002ae9c     * CIL library *:* CIL module *
 0002:0000aeb4       $chain$2$?GetCertificateDisplayInfo@@YAHPEBU_CERT_CONTEXT@@PEAPEAU_CERT_DISPLAY_INFO@@@Z 000000018002aeb4     * CIL library *:* CIL module *
 0002:0000aeb4       $chain$4$?GetCertificateDisplayInfo@@YAHPEBU_CERT_CONTEXT@@PEAPEAU_CERT_DISPLAY_INFO@@@Z 000000018002aeb4     * CIL library *:* CIL module *
 0002:0000aec4       $chain$3$?GetCertificateDisplayInfo@@YAHPEBU_CERT_CONTEXT@@PEAPEAU_CERT_DISPLAY_INFO@@@Z 000000018002aec4     * CIL library *:* CIL module *
 0002:0000aedc       $unwind$__free_lc_time     000000018002aedc     * CIL library *:* CIL module *
 0002:0000aedc       $unwind$__free_lconv_mon   000000018002aedc     * CIL library *:* CIL module *
 0002:0000aedc       $unwind$?FreeCertificateDisplayInfo@@YAXPEAU_CERT_DISPLAY_INFO@@@Z 000000018002aedc     * CIL library *:* CIL module *
 0002:0000aee4       $chain$0$?FreeCertificateDisplayInfo@@YAXPEAU_CERT_DISPLAY_INFO@@@Z 000000018002aee4     * CIL library *:* CIL module *
 0002:0000aef8       $chain$1$?FreeCertificateDisplayInfo@@YAXPEAU_CERT_DISPLAY_INFO@@@Z 000000018002aef8     * CIL library *:* CIL module *
 0002:0000af08       $unwind$?xmlSet@DPTProfile@@QEAAXPEAUIXMLDOMDocument@@PEA_W@Z 000000018002af08     * CIL library *:* CIL module *
 0002:0000af24       $stateUnwindMap$?xmlSet@DPTProfile@@QEAAXPEAUIXMLDOMDocument@@PEA_W@Z 000000018002af24     * CIL library *:* CIL module *
 0002:0000af5c       $ip2state$?xmlSet@DPTProfile@@QEAAXPEAUIXMLDOMDocument@@PEA_W@Z 000000018002af5c     * CIL library *:* CIL module *
 0002:0000afd4       $unwind$?xmlSet@DPTProfile@@QEAAXPEB_W@Z 000000018002afd4     * CIL library *:* CIL module *
 0002:0000afec       $stateUnwindMap$?xmlSet@DPTProfile@@QEAAXPEB_W@Z 000000018002afec     * CIL library *:* CIL module *
 0002:0000aff4       $ip2state$?xmlSet@DPTProfile@@QEAAXPEB_W@Z 000000018002aff4     * CIL library *:* CIL module *
 0002:0000b00c       $unwind$?xmlGet@DPTProfile@@QEAAPEA_WPEAUIXMLDOMDocument@@@Z 000000018002b00c     * CIL library *:* CIL module *
 0002:0000b028       $stateUnwindMap$?xmlGet@DPTProfile@@QEAAPEA_WPEAUIXMLDOMDocument@@@Z 000000018002b028     * CIL library *:* CIL module *
 0002:0000b068       $ip2state$?xmlGet@DPTProfile@@QEAAPEA_WPEAUIXMLDOMDocument@@@Z 000000018002b068     * CIL library *:* CIL module *
 0002:0000b0f8       $unwind$_setmbcp$fin$0     000000018002b0f8     * CIL library *:* CIL module *
 0002:0000b0f8       $unwind$__updatetlocinfo$fin$0 000000018002b0f8     * CIL library *:* CIL module *
 0002:0000b0f8       $unwind$_mtinitlocknum$fin$0 000000018002b0f8     * CIL library *:* CIL module *
 0002:0000b0f8       $unwind$?fin$0@?0??_Type_info_dtor@type_info@@CAXPEAV1@@Z@4HA 000000018002b0f8     * CIL library *:* CIL module *
 0002:0000b0f8       $unwind$_lseeki64$fin$0    000000018002b0f8     * CIL library *:* CIL module *
 0002:0000b0f8       $unwind$__CxxCallCatchBlock$filt$0 000000018002b0f8     * CIL library *:* CIL module *
 0002:0000b0f8       $unwind$_onexit$fin$0      000000018002b0f8     * CIL library *:* CIL module *
 0002:0000b0f8       $unwind$_commit$fin$0      000000018002b0f8     * CIL library *:* CIL module *
 0002:0000b0f8       $unwind$_IsNonwritableInCurrentImage$filt$0 000000018002b0f8     * CIL library *:* CIL module *
 0002:0000b0f8       $unwind$_fcloseall$fin$0   000000018002b0f8     * CIL library *:* CIL module *
 0002:0000b0f8       $unwind$_ioinit$fin$0      000000018002b0f8     * CIL library *:* CIL module *
 0002:0000b0f8       $unwind$_locterm$fin$0     000000018002b0f8     * CIL library *:* CIL module *
 0002:0000b0f8       $unwind$_initptd$fin$0     000000018002b0f8     * CIL library *:* CIL module *
 0002:0000b0f8       $unwind$_CRT_INIT$fin$0    000000018002b0f8     * CIL library *:* CIL module *
 0002:0000b0f8       $unwind$__FrameUnwindToState$filt$0 000000018002b0f8     * CIL library *:* CIL module *
 0002:0000b0f8       $unwind$__lock_fhandle$fin$0 000000018002b0f8     * CIL library *:* CIL module *
 0002:0000b0f8       $unwind$__FrameUnwindToState$fin$1 000000018002b0f8     * CIL library *:* CIL module *
 0002:0000b0f8       $unwind$_initptd$fin$1     000000018002b0f8     * CIL library *:* CIL module *
 0002:0000b0f8       $unwind$__DllMainCRTStartup$filt$0 000000018002b0f8     * CIL library *:* CIL module *
 0002:0000b0f8       $unwind$_close$fin$0       000000018002b0f8     * CIL library *:* CIL module *
 0002:0000b0f8       $unwind$__DestructExceptionObject$filt$0 000000018002b0f8     * CIL library *:* CIL module *
 0002:0000b0f8       $unwind$flsall$fin$0       000000018002b0f8     * CIL library *:* CIL module *
 0002:0000b0f8       $unwind$?dtor$0@?0???$_Buynode@AEBUpiecewise_construct_t@std@@V?$tuple@AEBV?$basic_string@_WU?$char_traits@_W@std@@V?$allocator@_W@2@@std@@@2@V?$tuple@$$$V@2@@?$_Tree_buy@U?$pair@$$CBV?$basic_string@_WU?$char_traits@_W@std@@V?$allocator@_W@2@@std@@H@std@@V?$allocator@U?$pair@$$CBV?$basic_string@_WU?$char_traits@_W@std@@V?$allocator@_W@2@@std@@H@std@@@2@@std@@QEAAPEAU?$_Tree_node@U?$pair@$$CBV?$basic_string@_WU?$char_traits@_W@std@@V?$allocator@_W@2@@std@@H@std@@PEAX@1@AEBUpiecewise_construct_t@1@$$QEAV?$tuple@AEBV?$basic_string@_WU?$char_traits@_W@std@@V?$allocator@_W@2@@std@@@1@$$QEAV?$tuple@$$$V@1@@Z@4HA 000000018002b0f8     * CIL library *:* CIL module *
 0002:0000b0f8       $unwind$flsall$fin$1       000000018002b0f8     * CIL library *:* CIL module *
 0002:0000b0f8       $unwind$_write$fin$0       000000018002b0f8     * CIL library *:* CIL module *
 0002:0000b0f8       $unwind$?dtor$22@?0??xmlGet@CProfileIHVConnectivity@@QEAAPEA_WXZ@4HA 000000018002b0f8     * CIL library *:* CIL module *
 0002:0000b0f8       $unwind$raise$fin$0        000000018002b0f8     * CIL library *:* CIL module *
 0002:0000b0f8       $unwind$?dtor$21@?0??xmlGet@CProfileIHVConnectivity@@QEAAPEA_WXZ@4HA 000000018002b0f8     * CIL library *:* CIL module *
 0002:0000b0f8       $unwind$?dtor$15@?0??xmlGet@CProfileIHVConnectivity@@QEAAPEA_WXZ@4HA 000000018002b0f8     * CIL library *:* CIL module *
 0002:0000b0f8       $unwind$__updatetmbcinfo$fin$0 000000018002b0f8     * CIL library *:* CIL module *
 0002:0000b0f8       $unwind$?dtor$14@?0??xmlGet@CProfileIHVConnectivity@@QEAAPEA_WXZ@4HA 000000018002b0f8     * CIL library *:* CIL module *
 0002:0000b0f8       $unwind$?dtor$1@?0??xmlGet@DPTProfile@@QEAAPEA_WPEAUIXMLDOMDocument@@@Z@4HA 000000018002b0f8     * CIL library *:* CIL module *
 0002:0000b0f8       $unwind$?dtor$3@?0??xmlGet@CProfileIHVConnectivity@@QEAAPEA_WXZ@4HA 000000018002b0f8     * CIL library *:* CIL module *
 0002:0000b0f8       $unwind$doexit$fin$0       000000018002b0f8     * CIL library *:* CIL module *
 0002:0000b0f8       $unwind$?dtor$2@?0??xmlGet@CProfileIHVConnectivity@@QEAAPEA_WXZ@4HA 000000018002b0f8     * CIL library *:* CIL module *
 0002:0000b0f8       $unwind$fclose$fin$0       000000018002b0f8     * CIL library *:* CIL module *
 0002:0000b0f8       $unwind$?dtor$2@?0??xmlGet@DPTProfile@@QEAAPEA_WPEAUIXMLDOMDocument@@@Z@4HA 000000018002b0f8     * CIL library *:* CIL module *
 0002:0000b0f8       $unwind$?dtor$0@?0???$?H_WU?$char_traits@_W@std@@V?$allocator@_W@1@@std@@YA?AV?$basic_string@_WU?$char_traits@_W@std@@V?$allocator@_W@2@@0@AEBV10@PEB_W@Z@4HA 000000018002b0f8     * CIL library *:* CIL module *
 0002:0000b0f8       $unwind$?dtor$7@?0??xmlGet@CProfileIHVSecurity@@QEAAPEA_WXZ@4HA 000000018002b0f8     * CIL library *:* CIL module *
 0002:0000b0f8       $unwind$_freefls$fin$1     000000018002b0f8     * CIL library *:* CIL module *
 0002:0000b0f8       $unwind$?dtor$8@?0??xmlGet@CProfileIHVSecurity@@QEAAPEA_WXZ@4HA 000000018002b0f8     * CIL library *:* CIL module *
 0002:0000b0f8       $unwind$_freefls$fin$0     000000018002b0f8     * CIL library *:* CIL module *
 0002:0000b100       $unwind$?xmlGet@DPTProfile@@QEAAPEA_WXZ 000000018002b100     * CIL library *:* CIL module *
 0002:0000b118       $stateUnwindMap$?xmlGet@DPTProfile@@QEAAPEA_WXZ 000000018002b118     * CIL library *:* CIL module *
 0002:0000b120       $ip2state$?xmlGet@DPTProfile@@QEAAPEA_WXZ 000000018002b120     * CIL library *:* CIL module *
 0002:0000b138       $unwind$?DPTKey2Hex@DPTProfile@@SAPEA_WPEA_W@Z 000000018002b138     * CIL library *:* CIL module *
 0002:0000b144       $chain$0$?DPTKey2Hex@DPTProfile@@SAPEA_WPEA_W@Z 000000018002b144     * CIL library *:* CIL module *
 0002:0000b158       $chain$2$?DPTKey2Hex@DPTProfile@@SAPEA_WPEA_W@Z 000000018002b158     * CIL library *:* CIL module *
 0002:0000b170       $chain$3$?DPTKey2Hex@DPTProfile@@SAPEA_WPEA_W@Z 000000018002b170     * CIL library *:* CIL module *
 0002:0000b180       $chain$4$?DPTKey2Hex@DPTProfile@@SAPEA_WPEA_W@Z 000000018002b180     * CIL library *:* CIL module *
 0002:0000b190       $unwind$?HexString2Byte@DPTProfile@@SAPEAEPEB_WPEAK@Z 000000018002b190     * CIL library *:* CIL module *
 0002:0000b1a4       $chain$3$?HexString2Byte@DPTProfile@@SAPEAEPEB_WPEAK@Z 000000018002b1a4     * CIL library *:* CIL module *
 0002:0000b1c4       $chain$4$?HexString2Byte@DPTProfile@@SAPEAEPEB_WPEAK@Z 000000018002b1c4     * CIL library *:* CIL module *
 0002:0000b1d4       $chain$5$?HexString2Byte@DPTProfile@@SAPEAEPEB_WPEAK@Z 000000018002b1d4     * CIL library *:* CIL module *
 0002:0000b1f4       $unwind$?Hex2DPTKey@DPTProfile@@SAPEA_WPEB_W@Z 000000018002b1f4     * CIL library *:* CIL module *
 0002:0000b200       $chain$1$?Hex2DPTKey@DPTProfile@@SAPEA_WPEB_W@Z 000000018002b200     * CIL library *:* CIL module *
 0002:0000b214       $chain$2$?Hex2DPTKey@DPTProfile@@SAPEA_WPEB_W@Z 000000018002b214     * CIL library *:* CIL module *
 0002:0000b224       $unwind$?GetProfileFragment@DPTProfile@@SAPEA_WPEB_W0@Z 000000018002b224     * CIL library *:* CIL module *
 0002:0000b238       $chain$0$?GetProfileFragment@DPTProfile@@SAPEA_WPEB_W0@Z 000000018002b238     * CIL library *:* CIL module *
 0002:0000b24c       $chain$1$?GetProfileFragment@DPTProfile@@SAPEA_WPEB_W0@Z 000000018002b24c     * CIL library *:* CIL module *
 0002:0000b260       $chain$2$?GetProfileFragment@DPTProfile@@SAPEA_WPEB_W0@Z 000000018002b260     * CIL library *:* CIL module *
 0002:0000b274       $chain$3$?GetProfileFragment@DPTProfile@@SAPEA_WPEB_W0@Z 000000018002b274     * CIL library *:* CIL module *
 0002:0000b284       $chain$4$?GetProfileFragment@DPTProfile@@SAPEA_WPEB_W0@Z 000000018002b284     * CIL library *:* CIL module *
 0002:0000b294       $chain$5$?GetProfileFragment@DPTProfile@@SAPEA_WPEB_W0@Z 000000018002b294     * CIL library *:* CIL module *
 0002:0000b2a4       $unwind$?DecryptDPTKey@DPTUtils@@YAPEA_WPEAEK@Z 000000018002b2a4     * CIL library *:* CIL module *
 0002:0000b2b4       $chain$2$?DecryptDPTKey@DPTUtils@@YAPEA_WPEAEK@Z 000000018002b2b4     * CIL library *:* CIL module *
 0002:0000b2c8       $chain$3$?DecryptDPTKey@DPTUtils@@YAPEA_WPEAEK@Z 000000018002b2c8     * CIL library *:* CIL module *
 0002:0000b2d8       $unwind$?OpenDriverRegKey@DriverReg@@YAHPEA_WKAEAPEAUHKEY__@@@Z 000000018002b2d8     * CIL library *:* CIL module *
 0002:0000b2f0       $chain$1$?OpenDriverRegKey@DriverReg@@YAHPEA_WKAEAPEAUHKEY__@@@Z 000000018002b2f0     * CIL library *:* CIL module *
 0002:0000b308       $chain$2$?OpenDriverRegKey@DriverReg@@YAHPEA_WKAEAPEAUHKEY__@@@Z 000000018002b308     * CIL library *:* CIL module *
 0002:0000b31c       $chain$3$?OpenDriverRegKey@DriverReg@@YAHPEA_WKAEAPEAUHKEY__@@@Z 000000018002b31c     * CIL library *:* CIL module *
 0002:0000b330       $chain$4$?OpenDriverRegKey@DriverReg@@YAHPEA_WKAEAPEAUHKEY__@@@Z 000000018002b330     * CIL library *:* CIL module *
 0002:0000b344       $chain$5$?OpenDriverRegKey@DriverReg@@YAHPEA_WKAEAPEAUHKEY__@@@Z 000000018002b344     * CIL library *:* CIL module *
 0002:0000b354       $chain$6$?OpenDriverRegKey@DriverReg@@YAHPEA_WKAEAPEAUHKEY__@@@Z 000000018002b354     * CIL library *:* CIL module *
 0002:0000b364       $chain$7$?OpenDriverRegKey@DriverReg@@YAHPEA_WKAEAPEAUHKEY__@@@Z 000000018002b364     * CIL library *:* CIL module *
 0002:0000b374       $chain$8$?OpenDriverRegKey@DriverReg@@YAHPEA_WKAEAPEAUHKEY__@@@Z 000000018002b374     * CIL library *:* CIL module *
 0002:0000b384       $unwind$?IsDPTAvailable@DriverReg@@YAHPEBU_GUID@@@Z 000000018002b384     * CIL library *:* CIL module *
 0002:0000b394       $chain$0$?IsDPTAvailable@DriverReg@@YAHPEBU_GUID@@@Z 000000018002b394     * CIL library *:* CIL module *
 0002:0000b3a8       $chain$1$?IsDPTAvailable@DriverReg@@YAHPEBU_GUID@@@Z 000000018002b3a8     * CIL library *:* CIL module *
 0002:0000b3b8       $unwind$?EnumStrings@@YAHPEAUHINSTANCE__@@KP6AXPEA_WK@Z@Z 000000018002b3b8     * CIL library *:* CIL module *
 0002:0000b3dc       $stateUnwindMap$?EnumStrings@@YAHPEAUHINSTANCE__@@KP6AXPEA_WK@Z@Z 000000018002b3dc     * CIL library *:* CIL module *
 0002:0000b3e4       $ip2state$?EnumStrings@@YAHPEAUHINSTANCE__@@KP6AXPEA_WK@Z@Z 000000018002b3e4     * CIL library *:* CIL module *
 0002:0000b3fc       $chain$2$?DestroyStringMap@@YAXXZ 000000018002b3fc     * CIL library *:* CIL module *
 0002:0000b418       $chain$3$?DestroyStringMap@@YAXXZ 000000018002b418     * CIL library *:* CIL module *
 0002:0000b428       $unwind$?HasDots@@YAHPEA_W@Z 000000018002b428     * CIL library *:* CIL module *
 0002:0000b430       $chain$0$?HasDots@@YAHPEA_W@Z 000000018002b430     * CIL library *:* CIL module *
 0002:0000b444       $chain$2$?HasDots@@YAHPEA_W@Z 000000018002b444     * CIL library *:* CIL module *
 0002:0000b458       $chain$3$?HasDots@@YAHPEA_W@Z 000000018002b458     * CIL library *:* CIL module *
 0002:0000b468       $unwind$?TranslateString@@YA?AV?$basic_string@_WU?$char_traits@_W@std@@V?$allocator@_W@2@@std@@PEA_WH@Z 000000018002b468     * CIL library *:* CIL module *
 0002:0000b490       $stateUnwindMap$?TranslateString@@YA?AV?$basic_string@_WU?$char_traits@_W@std@@V?$allocator@_W@2@@std@@PEA_WH@Z 000000018002b490     * CIL library *:* CIL module *
 0002:0000b4a0       $ip2state$?TranslateString@@YA?AV?$basic_string@_WU?$char_traits@_W@std@@V?$allocator@_W@2@@std@@PEA_WH@Z 000000018002b4a0     * CIL library *:* CIL module *
 0002:0000b4d8       $unwind$?LocalizeDialog@@YAXPEAUHWND__@@H@Z 000000018002b4d8     * CIL library *:* CIL module *
 0002:0000b4ec       $unwind$??A?$map@V?$basic_string@_WU?$char_traits@_W@std@@V?$allocator@_W@2@@std@@HU?$less@V?$basic_string@_WU?$char_traits@_W@std@@V?$allocator@_W@2@@std@@@2@V?$allocator@U?$pair@$$CBV?$basic_string@_WU?$char_traits@_W@std@@V?$allocator@_W@2@@std@@H@std@@@2@@std@@QEAAAEAHAEBV?$basic_string@_WU?$char_traits@_W@std@@V?$allocator@_W@2@@1@@Z 000000018002b4ec     * CIL library *:* CIL module *
 0002:0000b4f8       $unwind$?_Erase@?$_Tree@V?$_Tmap_traits@V?$basic_string@_WU?$char_traits@_W@std@@V?$allocator@_W@2@@std@@HU?$less@V?$basic_string@_WU?$char_traits@_W@std@@V?$allocator@_W@2@@std@@@2@V?$allocator@U?$pair@$$CBV?$basic_string@_WU?$char_traits@_W@std@@V?$allocator@_W@2@@std@@H@std@@@2@$0A@@std@@@std@@IEAAXPEAU?$_Tree_node@U?$pair@$$CBV?$basic_string@_WU?$char_traits@_W@std@@V?$allocator@_W@2@@std@@H@std@@PEAX@2@@Z 000000018002b4f8     * CIL library *:* CIL module *
 0002:0000b508       $chain$0$?_Erase@?$_Tree@V?$_Tmap_traits@V?$basic_string@_WU?$char_traits@_W@std@@V?$allocator@_W@2@@std@@HU?$less@V?$basic_string@_WU?$char_traits@_W@std@@V?$allocator@_W@2@@std@@@2@V?$allocator@U?$pair@$$CBV?$basic_string@_WU?$char_traits@_W@std@@V?$allocator@_W@2@@std@@H@std@@@2@$0A@@std@@@std@@IEAAXPEAU?$_Tree_node@U?$pair@$$CBV?$basic_string@_WU?$char_traits@_W@std@@V?$allocator@_W@2@@std@@H@std@@PEAX@2@@Z 000000018002b508     * CIL library *:* CIL module *
 0002:0000b51c       $chain$1$?_Erase@?$_Tree@V?$_Tmap_traits@V?$basic_string@_WU?$char_traits@_W@std@@V?$allocator@_W@2@@std@@HU?$less@V?$basic_string@_WU?$char_traits@_W@std@@V?$allocator@_W@2@@std@@@2@V?$allocator@U?$pair@$$CBV?$basic_string@_WU?$char_traits@_W@std@@V?$allocator@_W@2@@std@@H@std@@@2@$0A@@std@@@std@@IEAAXPEAU?$_Tree_node@U?$pair@$$CBV?$basic_string@_WU?$char_traits@_W@std@@V?$allocator@_W@2@@std@@H@std@@PEAX@2@@Z 000000018002b51c     * CIL library *:* CIL module *
 0002:0000b52c       $unwind$?erase@?$_Tree@V?$_Tmap_traits@V?$basic_string@_WU?$char_traits@_W@std@@V?$allocator@_W@2@@std@@HU?$less@V?$basic_string@_WU?$char_traits@_W@std@@V?$allocator@_W@2@@std@@@2@V?$allocator@U?$pair@$$CBV?$basic_string@_WU?$char_traits@_W@std@@V?$allocator@_W@2@@std@@H@std@@@2@$0A@@std@@@std@@QEAA?AV?$_Tree_iterator@V?$_Tree_val@U?$_Tree_simple_types@U?$pair@$$CBV?$basic_string@_WU?$char_traits@_W@std@@V?$allocator@_W@2@@std@@H@std@@@std@@@std@@@2@V?$_Tree_const_iterator@V?$_Tree_val@U?$_Tree_simple_types@U?$pair@$$CBV?$basic_string@_WU?$char_traits@_W@std@@V?$allocator@_W@2@@std@@H@std@@@std@@@std@@@2@0@Z 000000018002b52c     * CIL library *:* CIL module *
 0002:0000b534       $unwind$?_Lbound@?$_Tree@V?$_Tmap_traits@V?$basic_string@_WU?$char_traits@_W@std@@V?$allocator@_W@2@@std@@HU?$less@V?$basic_string@_WU?$char_traits@_W@std@@V?$allocator@_W@2@@std@@@2@V?$allocator@U?$pair@$$CBV?$basic_string@_WU?$char_traits@_W@std@@V?$allocator@_W@2@@std@@H@std@@@2@$0A@@std@@@std@@IEAAPEAU?$_Tree_node@U?$pair@$$CBV?$basic_string@_WU?$char_traits@_W@std@@V?$allocator@_W@2@@std@@H@std@@PEAX@2@AEBV?$basic_string@_WU?$char_traits@_W@std@@V?$allocator@_W@2@@2@@Z 000000018002b534     * CIL library *:* CIL module *
 0002:0000b540       $chain$1$?_Lbound@?$_Tree@V?$_Tmap_traits@V?$basic_string@_WU?$char_traits@_W@std@@V?$allocator@_W@2@@std@@HU?$less@V?$basic_string@_WU?$char_traits@_W@std@@V?$allocator@_W@2@@std@@@2@V?$allocator@U?$pair@$$CBV?$basic_string@_WU?$char_traits@_W@std@@V?$allocator@_W@2@@std@@H@std@@@2@$0A@@std@@@std@@IEAAPEAU?$_Tree_node@U?$pair@$$CBV?$basic_string@_WU?$char_traits@_W@std@@V?$allocator@_W@2@@std@@H@std@@PEAX@2@AEBV?$basic_string@_WU?$char_traits@_W@std@@V?$allocator@_W@2@@2@@Z 000000018002b540     * CIL library *:* CIL module *
 0002:0000b558       $chain$2$?_Lbound@?$_Tree@V?$_Tmap_traits@V?$basic_string@_WU?$char_traits@_W@std@@V?$allocator@_W@2@@std@@HU?$less@V?$basic_string@_WU?$char_traits@_W@std@@V?$allocator@_W@2@@std@@@2@V?$allocator@U?$pair@$$CBV?$basic_string@_WU?$char_traits@_W@std@@V?$allocator@_W@2@@std@@H@std@@@2@$0A@@std@@@std@@IEAAPEAU?$_Tree_node@U?$pair@$$CBV?$basic_string@_WU?$char_traits@_W@std@@V?$allocator@_W@2@@std@@H@std@@PEAX@2@AEBV?$basic_string@_WU?$char_traits@_W@std@@V?$allocator@_W@2@@2@@Z 000000018002b558     * CIL library *:* CIL module *
 0002:0000b568       $unwind$?_Grow@?$basic_string@_WU?$char_traits@_W@std@@V?$allocator@_W@2@@std@@QEAA_N_K_N@Z 000000018002b568     * CIL library *:* CIL module *
 0002:0000b574       $chain$0$?_Grow@?$basic_string@_WU?$char_traits@_W@std@@V?$allocator@_W@2@@std@@QEAA_N_K_N@Z 000000018002b574     * CIL library *:* CIL module *
 0002:0000b588       $chain$1$?_Grow@?$basic_string@_WU?$char_traits@_W@std@@V?$allocator@_W@2@@std@@QEAA_N_K_N@Z 000000018002b588     * CIL library *:* CIL module *
 0002:0000b59c       $chain$2$?_Grow@?$basic_string@_WU?$char_traits@_W@std@@V?$allocator@_W@2@@std@@QEAA_N_K_N@Z 000000018002b59c     * CIL library *:* CIL module *
 0002:0000b5b0       $chain$3$?_Grow@?$basic_string@_WU?$char_traits@_W@std@@V?$allocator@_W@2@@std@@QEAA_N_K_N@Z 000000018002b5b0     * CIL library *:* CIL module *
 0002:0000b5c0       $chain$4$?_Grow@?$basic_string@_WU?$char_traits@_W@std@@V?$allocator@_W@2@@std@@QEAA_N_K_N@Z 000000018002b5c0     * CIL library *:* CIL module *
 0002:0000b5d0       $chain$5$?_Grow@?$basic_string@_WU?$char_traits@_W@std@@V?$allocator@_W@2@@std@@QEAA_N_K_N@Z 000000018002b5d0     * CIL library *:* CIL module *
 0002:0000b5e0       $unwind$?erase@?$_Tree@V?$_Tmap_traits@V?$basic_string@_WU?$char_traits@_W@std@@V?$allocator@_W@2@@std@@HU?$less@V?$basic_string@_WU?$char_traits@_W@std@@V?$allocator@_W@2@@std@@@2@V?$allocator@U?$pair@$$CBV?$basic_string@_WU?$char_traits@_W@std@@V?$allocator@_W@2@@std@@H@std@@@2@$0A@@std@@@std@@QEAA?AV?$_Tree_iterator@V?$_Tree_val@U?$_Tree_simple_types@U?$pair@$$CBV?$basic_string@_WU?$char_traits@_W@std@@V?$allocator@_W@2@@std@@H@std@@@std@@@std@@@2@V?$_Tree_const_iterator@V?$_Tree_val@U?$_Tree_simple_types@U?$pair@$$CBV?$basic_string@_WU?$char_traits@_W@std@@V?$allocator@_W@2@@std@@H@std@@@std@@@std@@@2@@Z 000000018002b5e0     * CIL library *:* CIL module *
 0002:0000b5e8       $chain$0$?erase@?$_Tree@V?$_Tmap_traits@V?$basic_string@_WU?$char_traits@_W@std@@V?$allocator@_W@2@@std@@HU?$less@V?$basic_string@_WU?$char_traits@_W@std@@V?$allocator@_W@2@@std@@@2@V?$allocator@U?$pair@$$CBV?$basic_string@_WU?$char_traits@_W@std@@V?$allocator@_W@2@@std@@H@std@@@2@$0A@@std@@@std@@QEAA?AV?$_Tree_iterator@V?$_Tree_val@U?$_Tree_simple_types@U?$pair@$$CBV?$basic_string@_WU?$char_traits@_W@std@@V?$allocator@_W@2@@std@@H@std@@@std@@@std@@@2@V?$_Tree_const_iterator@V?$_Tree_val@U?$_Tree_simple_types@U?$pair@$$CBV?$basic_string@_WU?$char_traits@_W@std@@V?$allocator@_W@2@@std@@H@std@@@std@@@std@@@2@@Z 000000018002b5e8     * CIL library *:* CIL module *
 0002:0000b5fc       $chain$2$?erase@?$_Tree@V?$_Tmap_traits@V?$basic_string@_WU?$char_traits@_W@std@@V?$allocator@_W@2@@std@@HU?$less@V?$basic_string@_WU?$char_traits@_W@std@@V?$allocator@_W@2@@std@@@2@V?$allocator@U?$pair@$$CBV?$basic_string@_WU?$char_traits@_W@std@@V?$allocator@_W@2@@std@@H@std@@@2@$0A@@std@@@std@@QEAA?AV?$_Tree_iterator@V?$_Tree_val@U?$_Tree_simple_types@U?$pair@$$CBV?$basic_string@_WU?$char_traits@_W@std@@V?$allocator@_W@2@@std@@H@std@@@std@@@std@@@2@V?$_Tree_const_iterator@V?$_Tree_val@U?$_Tree_simple_types@U?$pair@$$CBV?$basic_string@_WU?$char_traits@_W@std@@V?$allocator@_W@2@@std@@H@std@@@std@@@std@@@2@@Z 000000018002b5fc     * CIL library *:* CIL module *
 0002:0000b614       $chain$3$?erase@?$_Tree@V?$_Tmap_traits@V?$basic_string@_WU?$char_traits@_W@std@@V?$allocator@_W@2@@std@@HU?$less@V?$basic_string@_WU?$char_traits@_W@std@@V?$allocator@_W@2@@std@@@2@V?$allocator@U?$pair@$$CBV?$basic_string@_WU?$char_traits@_W@std@@V?$allocator@_W@2@@std@@H@std@@@2@$0A@@std@@@std@@QEAA?AV?$_Tree_iterator@V?$_Tree_val@U?$_Tree_simple_types@U?$pair@$$CBV?$basic_string@_WU?$char_traits@_W@std@@V?$allocator@_W@2@@std@@H@std@@@std@@@std@@@2@V?$_Tree_const_iterator@V?$_Tree_val@U?$_Tree_simple_types@U?$pair@$$CBV?$basic_string@_WU?$char_traits@_W@std@@V?$allocator@_W@2@@std@@H@std@@@std@@@std@@@2@@Z 000000018002b614     * CIL library *:* CIL module *
 0002:0000b624       $chain$4$?erase@?$_Tree@V?$_Tmap_traits@V?$basic_string@_WU?$char_traits@_W@std@@V?$allocator@_W@2@@std@@HU?$less@V?$basic_string@_WU?$char_traits@_W@std@@V?$allocator@_W@2@@std@@@2@V?$allocator@U?$pair@$$CBV?$basic_string@_WU?$char_traits@_W@std@@V?$allocator@_W@2@@std@@H@std@@@2@$0A@@std@@@std@@QEAA?AV?$_Tree_iterator@V?$_Tree_val@U?$_Tree_simple_types@U?$pair@$$CBV?$basic_string@_WU?$char_traits@_W@std@@V?$allocator@_W@2@@std@@H@std@@@std@@@std@@@2@V?$_Tree_const_iterator@V?$_Tree_val@U?$_Tree_simple_types@U?$pair@$$CBV?$basic_string@_WU?$char_traits@_W@std@@V?$allocator@_W@2@@std@@H@std@@@std@@@std@@@2@@Z 000000018002b624     * CIL library *:* CIL module *
 0002:0000b634       $unwind$?_Copy@?$basic_string@_WU?$char_traits@_W@std@@V?$allocator@_W@2@@std@@QEAAX_K0@Z 000000018002b634     * CIL library *:* CIL module *
 0002:0000b64c       $tryMap$?_Copy@?$basic_string@_WU?$char_traits@_W@std@@V?$allocator@_W@2@@std@@QEAAX_K0@Z 000000018002b64c     * CIL library *:* CIL module *
 0002:0000b674       $handlerMap$0$?_Copy@?$basic_string@_WU?$char_traits@_W@std@@V?$allocator@_W@2@@std@@QEAAX_K0@Z 000000018002b674     * CIL library *:* CIL module *
 0002:0000b688       $handlerMap$1$?_Copy@?$basic_string@_WU?$char_traits@_W@std@@V?$allocator@_W@2@@std@@QEAAX_K0@Z 000000018002b688     * CIL library *:* CIL module *
 0002:0000b69c       $ip2state$?_Copy@?$basic_string@_WU?$char_traits@_W@std@@V?$allocator@_W@2@@std@@QEAAX_K0@Z 000000018002b69c     * CIL library *:* CIL module *
 0002:0000b6dc       $unwind$?catch$1@?0??_Copy@?$basic_string@_WU?$char_traits@_W@std@@V?$allocator@_W@2@@std@@QEAAX_K0@Z@4HA 000000018002b6dc     * CIL library *:* CIL module *
 0002:0000b6ec       $unwind$?catch$0@?0??_Copy@?$basic_string@_WU?$char_traits@_W@std@@V?$allocator@_W@2@@std@@QEAAX_K0@Z@4HA 000000018002b6ec     * CIL library *:* CIL module *
 0002:0000b700       $unwind$??$?H_WU?$char_traits@_W@std@@V?$allocator@_W@1@@std@@YA?AV?$basic_string@_WU?$char_traits@_W@std@@V?$allocator@_W@2@@0@AEBV10@PEB_W@Z 000000018002b700     * CIL library *:* CIL module *
 0002:0000b71c       $stateUnwindMap$??$?H_WU?$char_traits@_W@std@@V?$allocator@_W@1@@std@@YA?AV?$basic_string@_WU?$char_traits@_W@std@@V?$allocator@_W@2@@0@AEBV10@PEB_W@Z 000000018002b71c     * CIL library *:* CIL module *
 0002:0000b724       $ip2state$??$?H_WU?$char_traits@_W@std@@V?$allocator@_W@1@@std@@YA?AV?$basic_string@_WU?$char_traits@_W@std@@V?$allocator@_W@2@@0@AEBV10@PEB_W@Z 000000018002b724     * CIL library *:* CIL module *
 0002:0000b734       $unwind$?compare@?$basic_string@_WU?$char_traits@_W@std@@V?$allocator@_W@2@@std@@QEBAHAEBV12@@Z 000000018002b734     * CIL library *:* CIL module *
 0002:0000b734       $unwind$?Name2Ssid@CProfileIHVConnectivity@@SA_NPEB_WPEAEPEAH@Z 000000018002b734     * CIL library *:* CIL module *
 0002:0000b734       $unwind$__dtold            000000018002b734     * CIL library *:* CIL module *
 0002:0000b734       $unwind$xtow               000000018002b734     * CIL library *:* CIL module *
 0002:0000b73c       $unwind$?append@?$basic_string@_WU?$char_traits@_W@std@@V?$allocator@_W@2@@std@@QEAAAEAV12@AEBV12@_K1@Z 000000018002b73c     * CIL library *:* CIL module *
 0002:0000b750       $chain$0$?append@?$basic_string@_WU?$char_traits@_W@std@@V?$allocator@_W@2@@std@@QEAAAEAV12@AEBV12@_K1@Z 000000018002b750     * CIL library *:* CIL module *
 0002:0000b764       $chain$1$?append@?$basic_string@_WU?$char_traits@_W@std@@V?$allocator@_W@2@@std@@QEAAAEAV12@AEBV12@_K1@Z 000000018002b764     * CIL library *:* CIL module *
 0002:0000b774       $chain$2$?append@?$basic_string@_WU?$char_traits@_W@std@@V?$allocator@_W@2@@std@@QEAAAEAV12@AEBV12@_K1@Z 000000018002b774     * CIL library *:* CIL module *
 0002:0000b788       $chain$0$?append@?$basic_string@_WU?$char_traits@_W@std@@V?$allocator@_W@2@@std@@QEAAAEAV12@PEB_W_K@Z 000000018002b788     * CIL library *:* CIL module *
 0002:0000b79c       $chain$1$?append@?$basic_string@_WU?$char_traits@_W@std@@V?$allocator@_W@2@@std@@QEAAAEAV12@PEB_W_K@Z 000000018002b79c     * CIL library *:* CIL module *
 0002:0000b7ac       $chain$2$?append@?$basic_string@_WU?$char_traits@_W@std@@V?$allocator@_W@2@@std@@QEAAAEAV12@PEB_W_K@Z 000000018002b7ac     * CIL library *:* CIL module *
 0002:0000b7c0       $unwind$??$_Buynode@AEBUpiecewise_construct_t@std@@V?$tuple@AEBV?$basic_string@_WU?$char_traits@_W@std@@V?$allocator@_W@2@@std@@@2@V?$tuple@$$$V@2@@?$_Tree_buy@U?$pair@$$CBV?$basic_string@_WU?$char_traits@_W@std@@V?$allocator@_W@2@@std@@H@std@@V?$allocator@U?$pair@$$CBV?$basic_string@_WU?$char_traits@_W@std@@V?$allocator@_W@2@@std@@H@std@@@2@@std@@QEAAPEAU?$_Tree_node@U?$pair@$$CBV?$basic_string@_WU?$char_traits@_W@std@@V?$allocator@_W@2@@std@@H@std@@PEAX@1@AEBUpiecewise_construct_t@1@$$QEAV?$tuple@AEBV?$basic_string@_WU?$char_traits@_W@std@@V?$allocator@_W@2@@std@@@1@$$QEAV?$tuple@$$$V@1@@Z 000000018002b7c0     * CIL library *:* CIL module *
 0002:0000b7d4       $stateUnwindMap$??$_Buynode@AEBUpiecewise_construct_t@std@@V?$tuple@AEBV?$basic_string@_WU?$char_traits@_W@std@@V?$allocator@_W@2@@std@@@2@V?$tuple@$$$V@2@@?$_Tree_buy@U?$pair@$$CBV?$basic_string@_WU?$char_traits@_W@std@@V?$allocator@_W@2@@std@@H@std@@V?$allocator@U?$pair@$$CBV?$basic_string@_WU?$char_traits@_W@std@@V?$allocator@_W@2@@std@@H@std@@@2@@std@@QEAAPEAU?$_Tree_node@U?$pair@$$CBV?$basic_string@_WU?$char_traits@_W@std@@V?$allocator@_W@2@@std@@H@std@@PEAX@1@AEBUpiecewise_construct_t@1@$$QEAV?$tuple@AEBV?$basic_string@_WU?$char_traits@_W@std@@V?$allocator@_W@2@@std@@@1@$$QEAV?$tuple@$$$V@1@@Z 000000018002b7d4     * CIL library *:* CIL module *
 0002:0000b7ec       $tryMap$??$_Buynode@AEBUpiecewise_construct_t@std@@V?$tuple@AEBV?$basic_string@_WU?$char_traits@_W@std@@V?$allocator@_W@2@@std@@@2@V?$tuple@$$$V@2@@?$_Tree_buy@U?$pair@$$CBV?$basic_string@_WU?$char_traits@_W@std@@V?$allocator@_W@2@@std@@H@std@@V?$allocator@U?$pair@$$CBV?$basic_string@_WU?$char_traits@_W@std@@V?$allocator@_W@2@@std@@H@std@@@2@@std@@QEAAPEAU?$_Tree_node@U?$pair@$$CBV?$basic_string@_WU?$char_traits@_W@std@@V?$allocator@_W@2@@std@@H@std@@PEAX@1@AEBUpiecewise_construct_t@1@$$QEAV?$tuple@AEBV?$basic_string@_WU?$char_traits@_W@std@@V?$allocator@_W@2@@std@@@1@$$QEAV?$tuple@$$$V@1@@Z 000000018002b7ec     * CIL library *:* CIL module *
 0002:0000b800       $handlerMap$0$??$_Buynode@AEBUpiecewise_construct_t@std@@V?$tuple@AEBV?$basic_string@_WU?$char_traits@_W@std@@V?$allocator@_W@2@@std@@@2@V?$tuple@$$$V@2@@?$_Tree_buy@U?$pair@$$CBV?$basic_string@_WU?$char_traits@_W@std@@V?$allocator@_W@2@@std@@H@std@@V?$allocator@U?$pair@$$CBV?$basic_string@_WU?$char_traits@_W@std@@V?$allocator@_W@2@@std@@H@std@@@2@@std@@QEAAPEAU?$_Tree_node@U?$pair@$$CBV?$basic_string@_WU?$char_traits@_W@std@@V?$allocator@_W@2@@std@@H@std@@PEAX@1@AEBUpiecewise_construct_t@1@$$QEAV?$tuple@AEBV?$basic_string@_WU?$char_traits@_W@std@@V?$allocator@_W@2@@std@@@1@$$QEAV?$tuple@$$$V@1@@Z 000000018002b800     * CIL library *:* CIL module *
 0002:0000b814       $ip2state$??$_Buynode@AEBUpiecewise_construct_t@std@@V?$tuple@AEBV?$basic_string@_WU?$char_traits@_W@std@@V?$allocator@_W@2@@std@@@2@V?$tuple@$$$V@2@@?$_Tree_buy@U?$pair@$$CBV?$basic_string@_WU?$char_traits@_W@std@@V?$allocator@_W@2@@std@@H@std@@V?$allocator@U?$pair@$$CBV?$basic_string@_WU?$char_traits@_W@std@@V?$allocator@_W@2@@std@@H@std@@@2@@std@@QEAAPEAU?$_Tree_node@U?$pair@$$CBV?$basic_string@_WU?$char_traits@_W@std@@V?$allocator@_W@2@@std@@H@std@@PEAX@1@AEBUpiecewise_construct_t@1@$$QEAV?$tuple@AEBV?$basic_string@_WU?$char_traits@_W@std@@V?$allocator@_W@2@@std@@@1@$$QEAV?$tuple@$$$V@1@@Z 000000018002b814     * CIL library *:* CIL module *
 0002:0000b844       $unwind$?catch$0@?0???$_Buynode@AEBUpiecewise_construct_t@std@@V?$tuple@AEBV?$basic_string@_WU?$char_traits@_W@std@@V?$allocator@_W@2@@std@@@2@V?$tuple@$$$V@2@@?$_Tree_buy@U?$pair@$$CBV?$basic_string@_WU?$char_traits@_W@std@@V?$allocator@_W@2@@std@@H@std@@V?$allocator@U?$pair@$$CBV?$basic_string@_WU?$char_traits@_W@std@@V?$allocator@_W@2@@std@@H@std@@@2@@std@@QEAAPEAU?$_Tree_node@U?$pair@$$CBV?$basic_string@_WU?$char_traits@_W@std@@V?$allocator@_W@2@@std@@H@std@@PEAX@1@AEBUpiecewise_construct_t@1@$$QEAV?$tuple@AEBV?$basic_string@_WU?$char_traits@_W@std@@V?$allocator@_W@2@@std@@@1@$$QEAV?$tuple@$$$V@1@@Z@4HA 000000018002b844     * CIL library *:* CIL module *
 0002:0000b854       $unwind$??$_Insert_hint@AEAU?$pair@$$CBV?$basic_string@_WU?$char_traits@_W@std@@V?$allocator@_W@2@@std@@H@std@@PEAU?$_Tree_node@U?$pair@$$CBV?$basic_string@_WU?$char_traits@_W@std@@V?$allocator@_W@2@@std@@H@std@@PEAX@2@@?$_Tree@V?$_Tmap_traits@V?$basic_string@_WU?$char_traits@_W@std@@V?$allocator@_W@2@@std@@HU?$less@V?$basic_string@_WU?$char_traits@_W@std@@V?$allocator@_W@2@@std@@@2@V?$allocator@U?$pair@$$CBV?$basic_string@_WU?$char_traits@_W@std@@V?$allocator@_W@2@@std@@H@std@@@2@$0A@@std@@@std@@IEAA?AV?$_Tree_iterator@V?$_Tree_val@U?$_Tree_simple_types@U?$pair@$$CBV?$basic_string@_WU?$char_traits@_W@std@@V?$allocator@_W@2@@std@@H@std@@@std@@@std@@@1@V?$_Tree_const_iterator@V?$_Tree_val@U?$_Tree_simple_types@U?$pair@$$CBV?$basic_string@_WU?$char_traits@_W@std@@V?$allocator@_W@2@@std@@H@std@@@std@@@std@@@1@AEAU?$pair@$$CBV?$basic_string@_WU?$char_traits@_W@std@@V?$allocator@_W@2@@std@@H@1@PEAU?$_Tree_node@U?$pair@$$CBV?$basic_string@_WU?$char_traits@_W@std@@V?$allocator@_W@2@@std@@H@std@@PEAX@1@@Z 000000018002b854     * CIL library *:* CIL module *
 0002:0000b86c       $stateUnwindMap$??$_Insert_hint@AEAU?$pair@$$CBV?$basic_string@_WU?$char_traits@_W@std@@V?$allocator@_W@2@@std@@H@std@@PEAU?$_Tree_node@U?$pair@$$CBV?$basic_string@_WU?$char_traits@_W@std@@V?$allocator@_W@2@@std@@H@std@@PEAX@2@@?$_Tree@V?$_Tmap_traits@V?$basic_string@_WU?$char_traits@_W@std@@V?$allocator@_W@2@@std@@HU?$less@V?$basic_string@_WU?$char_traits@_W@std@@V?$allocator@_W@2@@std@@@2@V?$allocator@U?$pair@$$CBV?$basic_string@_WU?$char_traits@_W@std@@V?$allocator@_W@2@@std@@H@std@@@2@$0A@@std@@@std@@IEAA?AV?$_Tree_iterator@V?$_Tree_val@U?$_Tree_simple_types@U?$pair@$$CBV?$basic_string@_WU?$char_traits@_W@std@@V?$allocator@_W@2@@std@@H@std@@@std@@@std@@@1@V?$_Tree_const_iterator@V?$_Tree_val@U?$_Tree_simple_types@U?$pair@$$CBV?$basic_string@_WU?$char_traits@_W@std@@V?$allocator@_W@2@@std@@H@std@@@std@@@std@@@1@AEAU?$pair@$$CBV?$basic_string@_WU?$char_traits@_W@std@@V?$allocator@_W@2@@std@@H@1@PEAU?$_Tree_node@U?$pair@$$CBV?$basic_string@_WU?$char_traits@_W@std@@V?$allocator@_W@2@@std@@H@std@@PEAX@1@@Z 000000018002b86c     * CIL library *:* CIL module *
 0002:0000b86c       $stateUnwindMap$??$_Insert_nohint@AEAU?$pair@$$CBV?$basic_string@_WU?$char_traits@_W@std@@V?$allocator@_W@2@@std@@H@std@@PEAU?$_Tree_node@U?$pair@$$CBV?$basic_string@_WU?$char_traits@_W@std@@V?$allocator@_W@2@@std@@H@std@@PEAX@2@@?$_Tree@V?$_Tmap_traits@V?$basic_string@_WU?$char_traits@_W@std@@V?$allocator@_W@2@@std@@HU?$less@V?$basic_string@_WU?$char_traits@_W@std@@V?$allocator@_W@2@@std@@@2@V?$allocator@U?$pair@$$CBV?$basic_string@_WU?$char_traits@_W@std@@V?$allocator@_W@2@@std@@H@std@@@2@$0A@@std@@@std@@IEAA?AU?$pair@V?$_Tree_iterator@V?$_Tree_val@U?$_Tree_simple_types@U?$pair@$$CBV?$basic_string@_WU?$char_traits@_W@std@@V?$allocator@_W@2@@std@@H@std@@@std@@@std@@@std@@_N@1@_NAEAU?$pair@$$CBV?$basic_string@_WU?$char_traits@_W@std@@V?$allocator@_W@2@@std@@H@1@PEAU?$_Tree_node@U?$pair@$$CBV?$basic_string@_WU?$char_traits@_W@std@@V?$allocator@_W@2@@std@@H@std@@PEAX@1@@Z 000000018002b86c     * CIL library *:* CIL module *
 0002:0000b86c       $stateUnwindMap$??2@YAPEAX_KAEBUnothrow_t@std@@@Z 000000018002b86c     * CIL library *:* CIL module *
 0002:0000b87c       $tryMap$??$_Insert_hint@AEAU?$pair@$$CBV?$basic_string@_WU?$char_traits@_W@std@@V?$allocator@_W@2@@std@@H@std@@PEAU?$_Tree_node@U?$pair@$$CBV?$basic_string@_WU?$char_traits@_W@std@@V?$allocator@_W@2@@std@@H@std@@PEAX@2@@?$_Tree@V?$_Tmap_traits@V?$basic_string@_WU?$char_traits@_W@std@@V?$allocator@_W@2@@std@@HU?$less@V?$basic_string@_WU?$char_traits@_W@std@@V?$allocator@_W@2@@std@@@2@V?$allocator@U?$pair@$$CBV?$basic_string@_WU?$char_traits@_W@std@@V?$allocator@_W@2@@std@@H@std@@@2@$0A@@std@@@std@@IEAA?AV?$_Tree_iterator@V?$_Tree_val@U?$_Tree_simple_types@U?$pair@$$CBV?$basic_string@_WU?$char_traits@_W@std@@V?$allocator@_W@2@@std@@H@std@@@std@@@std@@@1@V?$_Tree_const_iterator@V?$_Tree_val@U?$_Tree_simple_types@U?$pair@$$CBV?$basic_string@_WU?$char_traits@_W@std@@V?$allocator@_W@2@@std@@H@std@@@std@@@std@@@1@AEAU?$pair@$$CBV?$basic_string@_WU?$char_traits@_W@std@@V?$allocator@_W@2@@std@@H@1@PEAU?$_Tree_node@U?$pair@$$CBV?$basic_string@_WU?$char_traits@_W@std@@V?$allocator@_W@2@@std@@H@std@@PEAX@1@@Z 000000018002b87c     * CIL library *:* CIL module *
 0002:0000b890       $handlerMap$0$??$_Insert_hint@AEAU?$pair@$$CBV?$basic_string@_WU?$char_traits@_W@std@@V?$allocator@_W@2@@std@@H@std@@PEAU?$_Tree_node@U?$pair@$$CBV?$basic_string@_WU?$char_traits@_W@std@@V?$allocator@_W@2@@std@@H@std@@PEAX@2@@?$_Tree@V?$_Tmap_traits@V?$basic_string@_WU?$char_traits@_W@std@@V?$allocator@_W@2@@std@@HU?$less@V?$basic_string@_WU?$char_traits@_W@std@@V?$allocator@_W@2@@std@@@2@V?$allocator@U?$pair@$$CBV?$basic_string@_WU?$char_traits@_W@std@@V?$allocator@_W@2@@std@@H@std@@@2@$0A@@std@@@std@@IEAA?AV?$_Tree_iterator@V?$_Tree_val@U?$_Tree_simple_types@U?$pair@$$CBV?$basic_string@_WU?$char_traits@_W@std@@V?$allocator@_W@2@@std@@H@std@@@std@@@std@@@1@V?$_Tree_const_iterator@V?$_Tree_val@U?$_Tree_simple_types@U?$pair@$$CBV?$basic_string@_WU?$char_traits@_W@std@@V?$allocator@_W@2@@std@@H@std@@@std@@@std@@@1@AEAU?$pair@$$CBV?$basic_string@_WU?$char_traits@_W@std@@V?$allocator@_W@2@@std@@H@1@PEAU?$_Tree_node@U?$pair@$$CBV?$basic_string@_WU?$char_traits@_W@std@@V?$allocator@_W@2@@std@@H@std@@PEAX@1@@Z 000000018002b890     * CIL library *:* CIL module *
 0002:0000b8a4       $ip2state$??$_Insert_hint@AEAU?$pair@$$CBV?$basic_string@_WU?$char_traits@_W@std@@V?$allocator@_W@2@@std@@H@std@@PEAU?$_Tree_node@U?$pair@$$CBV?$basic_string@_WU?$char_traits@_W@std@@V?$allocator@_W@2@@std@@H@std@@PEAX@2@@?$_Tree@V?$_Tmap_traits@V?$basic_string@_WU?$char_traits@_W@std@@V?$allocator@_W@2@@std@@HU?$less@V?$basic_string@_WU?$char_traits@_W@std@@V?$allocator@_W@2@@std@@@2@V?$allocator@U?$pair@$$CBV?$basic_string@_WU?$char_traits@_W@std@@V?$allocator@_W@2@@std@@H@std@@@2@$0A@@std@@@std@@IEAA?AV?$_Tree_iterator@V?$_Tree_val@U?$_Tree_simple_types@U?$pair@$$CBV?$basic_string@_WU?$char_traits@_W@std@@V?$allocator@_W@2@@std@@H@std@@@std@@@std@@@1@V?$_Tree_const_iterator@V?$_Tree_val@U?$_Tree_simple_types@U?$pair@$$CBV?$basic_string@_WU?$char_traits@_W@std@@V?$allocator@_W@2@@std@@H@std@@@std@@@std@@@1@AEAU?$pair@$$CBV?$basic_string@_WU?$char_traits@_W@std@@V?$allocator@_W@2@@std@@H@1@PEAU?$_Tree_node@U?$pair@$$CBV?$basic_string@_WU?$char_traits@_W@std@@V?$allocator@_W@2@@std@@H@std@@PEAX@1@@Z 000000018002b8a4     * CIL library *:* CIL module *
 0002:0000b8cc       $unwind$?catch$0@?0???$_Insert_hint@AEAU?$pair@$$CBV?$basic_string@_WU?$char_traits@_W@std@@V?$allocator@_W@2@@std@@H@std@@PEAU?$_Tree_node@U?$pair@$$CBV?$basic_string@_WU?$char_traits@_W@std@@V?$allocator@_W@2@@std@@H@std@@PEAX@2@@?$_Tree@V?$_Tmap_traits@V?$basic_string@_WU?$char_traits@_W@std@@V?$allocator@_W@2@@std@@HU?$less@V?$basic_string@_WU?$char_traits@_W@std@@V?$allocator@_W@2@@std@@@2@V?$allocator@U?$pair@$$CBV?$basic_string@_WU?$char_traits@_W@std@@V?$allocator@_W@2@@std@@H@std@@@2@$0A@@std@@@std@@IEAA?AV?$_Tree_iterator@V?$_Tree_val@U?$_Tree_simple_types@U?$pair@$$CBV?$basic_string@_WU?$char_traits@_W@std@@V?$allocator@_W@2@@std@@H@std@@@std@@@std@@@1@V?$_Tree_const_iterator@V?$_Tree_val@U?$_Tree_simple_types@U?$pair@$$CBV?$basic_string@_WU?$char_traits@_W@std@@V?$allocator@_W@2@@std@@H@std@@@std@@@std@@@1@AEAU?$pair@$$CBV?$basic_string@_WU?$char_traits@_W@std@@V?$allocator@_W@2@@std@@H@1@PEAU?$_Tree_node@U?$pair@$$CBV?$basic_string@_WU?$char_traits@_W@std@@V?$allocator@_W@2@@std@@H@std@@PEAX@1@@Z@4HA 000000018002b8cc     * CIL library *:* CIL module *
 0002:0000b8dc       $chain$0$??$_Insert_at@AEAU?$pair@$$CBV?$basic_string@_WU?$char_traits@_W@std@@V?$allocator@_W@2@@std@@H@std@@PEAU?$_Tree_node@U?$pair@$$CBV?$basic_string@_WU?$char_traits@_W@std@@V?$allocator@_W@2@@std@@H@std@@PEAX@2@@?$_Tree@V?$_Tmap_traits@V?$basic_string@_WU?$char_traits@_W@std@@V?$allocator@_W@2@@std@@HU?$less@V?$basic_string@_WU?$char_traits@_W@std@@V?$allocator@_W@2@@std@@@2@V?$allocator@U?$pair@$$CBV?$basic_string@_WU?$char_traits@_W@std@@V?$allocator@_W@2@@std@@H@std@@@2@$0A@@std@@@std@@IEAA?AV?$_Tree_iterator@V?$_Tree_val@U?$_Tree_simple_types@U?$pair@$$CBV?$basic_string@_WU?$char_traits@_W@std@@V?$allocator@_W@2@@std@@H@std@@@std@@@std@@@1@_NPEAU?$_Tree_node@U?$pair@$$CBV?$basic_string@_WU?$char_traits@_W@std@@V?$allocator@_W@2@@std@@H@std@@PEAX@1@AEAU?$pair@$$CBV?$basic_string@_WU?$char_traits@_W@std@@V?$allocator@_W@2@@std@@H@1@1@Z 000000018002b8dc     * CIL library *:* CIL module *
 0002:0000b8f0       $chain$1$??$_Insert_at@AEAU?$pair@$$CBV?$basic_string@_WU?$char_traits@_W@std@@V?$allocator@_W@2@@std@@H@std@@PEAU?$_Tree_node@U?$pair@$$CBV?$basic_string@_WU?$char_traits@_W@std@@V?$allocator@_W@2@@std@@H@std@@PEAX@2@@?$_Tree@V?$_Tmap_traits@V?$basic_string@_WU?$char_traits@_W@std@@V?$allocator@_W@2@@std@@HU?$less@V?$basic_string@_WU?$char_traits@_W@std@@V?$allocator@_W@2@@std@@@2@V?$allocator@U?$pair@$$CBV?$basic_string@_WU?$char_traits@_W@std@@V?$allocator@_W@2@@std@@H@std@@@2@$0A@@std@@@std@@IEAA?AV?$_Tree_iterator@V?$_Tree_val@U?$_Tree_simple_types@U?$pair@$$CBV?$basic_string@_WU?$char_traits@_W@std@@V?$allocator@_W@2@@std@@H@std@@@std@@@std@@@1@_NPEAU?$_Tree_node@U?$pair@$$CBV?$basic_string@_WU?$char_traits@_W@std@@V?$allocator@_W@2@@std@@H@std@@PEAX@1@AEAU?$pair@$$CBV?$basic_string@_WU?$char_traits@_W@std@@V?$allocator@_W@2@@std@@H@1@1@Z 000000018002b8f0     * CIL library *:* CIL module *
 0002:0000b900       $chain$2$??$_Insert_at@AEAU?$pair@$$CBV?$basic_string@_WU?$char_traits@_W@std@@V?$allocator@_W@2@@std@@H@std@@PEAU?$_Tree_node@U?$pair@$$CBV?$basic_string@_WU?$char_traits@_W@std@@V?$allocator@_W@2@@std@@H@std@@PEAX@2@@?$_Tree@V?$_Tmap_traits@V?$basic_string@_WU?$char_traits@_W@std@@V?$allocator@_W@2@@std@@HU?$less@V?$basic_string@_WU?$char_traits@_W@std@@V?$allocator@_W@2@@std@@@2@V?$allocator@U?$pair@$$CBV?$basic_string@_WU?$char_traits@_W@std@@V?$allocator@_W@2@@std@@H@std@@@2@$0A@@std@@@std@@IEAA?AV?$_Tree_iterator@V?$_Tree_val@U?$_Tree_simple_types@U?$pair@$$CBV?$basic_string@_WU?$char_traits@_W@std@@V?$allocator@_W@2@@std@@H@std@@@std@@@std@@@1@_NPEAU?$_Tree_node@U?$pair@$$CBV?$basic_string@_WU?$char_traits@_W@std@@V?$allocator@_W@2@@std@@H@std@@PEAX@1@AEAU?$pair@$$CBV?$basic_string@_WU?$char_traits@_W@std@@V?$allocator@_W@2@@std@@H@1@1@Z 000000018002b900     * CIL library *:* CIL module *
 0002:0000b914       $unwind$??$_Insert_nohint@AEAU?$pair@$$CBV?$basic_string@_WU?$char_traits@_W@std@@V?$allocator@_W@2@@std@@H@std@@PEAU?$_Tree_node@U?$pair@$$CBV?$basic_string@_WU?$char_traits@_W@std@@V?$allocator@_W@2@@std@@H@std@@PEAX@2@@?$_Tree@V?$_Tmap_traits@V?$basic_string@_WU?$char_traits@_W@std@@V?$allocator@_W@2@@std@@HU?$less@V?$basic_string@_WU?$char_traits@_W@std@@V?$allocator@_W@2@@std@@@2@V?$allocator@U?$pair@$$CBV?$basic_string@_WU?$char_traits@_W@std@@V?$allocator@_W@2@@std@@H@std@@@2@$0A@@std@@@std@@IEAA?AU?$pair@V?$_Tree_iterator@V?$_Tree_val@U?$_Tree_simple_types@U?$pair@$$CBV?$basic_string@_WU?$char_traits@_W@std@@V?$allocator@_W@2@@std@@H@std@@@std@@@std@@@std@@_N@1@_NAEAU?$pair@$$CBV?$basic_string@_WU?$char_traits@_W@std@@V?$allocator@_W@2@@std@@H@1@PEAU?$_Tree_node@U?$pair@$$CBV?$basic_string@_WU?$char_traits@_W@std@@V?$allocator@_W@2@@std@@H@std@@PEAX@1@@Z 000000018002b914     * CIL library *:* CIL module *
 0002:0000b934       $tryMap$??$_Insert_nohint@AEAU?$pair@$$CBV?$basic_string@_WU?$char_traits@_W@std@@V?$allocator@_W@2@@std@@H@std@@PEAU?$_Tree_node@U?$pair@$$CBV?$basic_string@_WU?$char_traits@_W@std@@V?$allocator@_W@2@@std@@H@std@@PEAX@2@@?$_Tree@V?$_Tmap_traits@V?$basic_string@_WU?$char_traits@_W@std@@V?$allocator@_W@2@@std@@HU?$less@V?$basic_string@_WU?$char_traits@_W@std@@V?$allocator@_W@2@@std@@@2@V?$allocator@U?$pair@$$CBV?$basic_string@_WU?$char_traits@_W@std@@V?$allocator@_W@2@@std@@H@std@@@2@$0A@@std@@@std@@IEAA?AU?$pair@V?$_Tree_iterator@V?$_Tree_val@U?$_Tree_simple_types@U?$pair@$$CBV?$basic_string@_WU?$char_traits@_W@std@@V?$allocator@_W@2@@std@@H@std@@@std@@@std@@@std@@_N@1@_NAEAU?$pair@$$CBV?$basic_string@_WU?$char_traits@_W@std@@V?$allocator@_W@2@@std@@H@1@PEAU?$_Tree_node@U?$pair@$$CBV?$basic_string@_WU?$char_traits@_W@std@@V?$allocator@_W@2@@std@@H@std@@PEAX@1@@Z 000000018002b934     * CIL library *:* CIL module *
 0002:0000b948       $handlerMap$0$??$_Insert_nohint@AEAU?$pair@$$CBV?$basic_string@_WU?$char_traits@_W@std@@V?$allocator@_W@2@@std@@H@std@@PEAU?$_Tree_node@U?$pair@$$CBV?$basic_string@_WU?$char_traits@_W@std@@V?$allocator@_W@2@@std@@H@std@@PEAX@2@@?$_Tree@V?$_Tmap_traits@V?$basic_string@_WU?$char_traits@_W@std@@V?$allocator@_W@2@@std@@HU?$less@V?$basic_string@_WU?$char_traits@_W@std@@V?$allocator@_W@2@@std@@@2@V?$allocator@U?$pair@$$CBV?$basic_string@_WU?$char_traits@_W@std@@V?$allocator@_W@2@@std@@H@std@@@2@$0A@@std@@@std@@IEAA?AU?$pair@V?$_Tree_iterator@V?$_Tree_val@U?$_Tree_simple_types@U?$pair@$$CBV?$basic_string@_WU?$char_traits@_W@std@@V?$allocator@_W@2@@std@@H@std@@@std@@@std@@@std@@_N@1@_NAEAU?$pair@$$CBV?$basic_string@_WU?$char_traits@_W@std@@V?$allocator@_W@2@@std@@H@1@PEAU?$_Tree_node@U?$pair@$$CBV?$basic_string@_WU?$char_traits@_W@std@@V?$allocator@_W@2@@std@@H@std@@PEAX@1@@Z 000000018002b948     * CIL library *:* CIL module *
 0002:0000b95c       $ip2state$??$_Insert_nohint@AEAU?$pair@$$CBV?$basic_string@_WU?$char_traits@_W@std@@V?$allocator@_W@2@@std@@H@std@@PEAU?$_Tree_node@U?$pair@$$CBV?$basic_string@_WU?$char_traits@_W@std@@V?$allocator@_W@2@@std@@H@std@@PEAX@2@@?$_Tree@V?$_Tmap_traits@V?$basic_string@_WU?$char_traits@_W@std@@V?$allocator@_W@2@@std@@HU?$less@V?$basic_string@_WU?$char_traits@_W@std@@V?$allocator@_W@2@@std@@@2@V?$allocator@U?$pair@$$CBV?$basic_string@_WU?$char_traits@_W@std@@V?$allocator@_W@2@@std@@H@std@@@2@$0A@@std@@@std@@IEAA?AU?$pair@V?$_Tree_iterator@V?$_Tree_val@U?$_Tree_simple_types@U?$pair@$$CBV?$basic_string@_WU?$char_traits@_W@std@@V?$allocator@_W@2@@std@@H@std@@@std@@@std@@@std@@_N@1@_NAEAU?$pair@$$CBV?$basic_string@_WU?$char_traits@_W@std@@V?$allocator@_W@2@@std@@H@1@PEAU?$_Tree_node@U?$pair@$$CBV?$basic_string@_WU?$char_traits@_W@std@@V?$allocator@_W@2@@std@@H@std@@PEAX@1@@Z 000000018002b95c     * CIL library *:* CIL module *
 0002:0000b974       $unwind$?catch$0@?0???$_Insert_nohint@AEAU?$pair@$$CBV?$basic_string@_WU?$char_traits@_W@std@@V?$allocator@_W@2@@std@@H@std@@PEAU?$_Tree_node@U?$pair@$$CBV?$basic_string@_WU?$char_traits@_W@std@@V?$allocator@_W@2@@std@@H@std@@PEAX@2@@?$_Tree@V?$_Tmap_traits@V?$basic_string@_WU?$char_traits@_W@std@@V?$allocator@_W@2@@std@@HU?$less@V?$basic_string@_WU?$char_traits@_W@std@@V?$allocator@_W@2@@std@@@2@V?$allocator@U?$pair@$$CBV?$basic_string@_WU?$char_traits@_W@std@@V?$allocator@_W@2@@std@@H@std@@@2@$0A@@std@@@std@@IEAA?AU?$pair@V?$_Tree_iterator@V?$_Tree_val@U?$_Tree_simple_types@U?$pair@$$CBV?$basic_string@_WU?$char_traits@_W@std@@V?$allocator@_W@2@@std@@H@std@@@std@@@std@@@std@@_N@1@_NAEAU?$pair@$$CBV?$basic_string@_WU?$char_traits@_W@std@@V?$allocator@_W@2@@std@@H@1@PEAU?$_Tree_node@U?$pair@$$CBV?$basic_string@_WU?$char_traits@_W@std@@V?$allocator@_W@2@@std@@H@std@@PEAX@1@@Z@4HA 000000018002b974     * CIL library *:* CIL module *
 0002:0000b984       $chain$0$??1CProfileIHVSecurity@@QEAA@XZ 000000018002b984     * CIL library *:* CIL module *
 0002:0000b998       $chain$1$??1CProfileIHVSecurity@@QEAA@XZ 000000018002b998     * CIL library *:* CIL module *
 0002:0000b9a8       $unwind$?IsValid@CProfileIHVSecurity@@QEAAHXZ 000000018002b9a8     * CIL library *:* CIL module *
 0002:0000b9c0       $stateUnwindMap$?IsValid@CProfileIHVSecurity@@QEAAHXZ 000000018002b9c0     * CIL library *:* CIL module *
 0002:0000b9d0       $ip2state$?IsValid@CProfileIHVSecurity@@QEAAHXZ 000000018002b9d0     * CIL library *:* CIL module *
 0002:0000b9f8       $unwind$?xmlSet@CProfileIHVSecurity@@QEAAXPEB_W@Z 000000018002b9f8     * CIL library *:* CIL module *
 0002:0000ba18       $stateUnwindMap$?xmlSet@CProfileIHVSecurity@@QEAAXPEB_W@Z 000000018002ba18     * CIL library *:* CIL module *
 0002:0000ba78       $ip2state$?xmlSet@CProfileIHVSecurity@@QEAAXPEB_W@Z 000000018002ba78     * CIL library *:* CIL module *
 0002:0000bb40       $unwind$?xmlGet@CProfileIHVSecurity@@QEAAPEA_WXZ 000000018002bb40     * CIL library *:* CIL module *
 0002:0000bb64       $stateUnwindMap$?xmlGet@CProfileIHVSecurity@@QEAAPEA_WXZ 000000018002bb64     * CIL library *:* CIL module *
 0002:0000bbd4       $ip2state$?xmlGet@CProfileIHVSecurity@@QEAAPEA_WXZ 000000018002bbd4     * CIL library *:* CIL module *
 0002:0000bcc4       $unwind$?IsValid@CProfileIHVConnectivity@@QEAAHXZ 000000018002bcc4     * CIL library *:* CIL module *
 0002:0000bcdc       $stateUnwindMap$?IsValid@CProfileIHVConnectivity@@QEAAHXZ 000000018002bcdc     * CIL library *:* CIL module *
 0002:0000bce4       $ip2state$?IsValid@CProfileIHVConnectivity@@QEAAHXZ 000000018002bce4     * CIL library *:* CIL module *
 0002:0000bcfc       $unwind$?xmlSet@CProfileIHVConnectivity@@QEAAXPEB_W@Z 000000018002bcfc     * CIL library *:* CIL module *
 0002:0000bd24       $stateUnwindMap$?xmlSet@CProfileIHVConnectivity@@QEAAXPEB_W@Z 000000018002bd24     * CIL library *:* CIL module *
 0002:0000bdcc       $ip2state$?xmlSet@CProfileIHVConnectivity@@QEAAXPEB_W@Z 000000018002bdcc     * CIL library *:* CIL module *
 0002:0000bf24       $unwind$?xmlGet@CProfileIHVConnectivity@@QEAAPEA_WXZ 000000018002bf24     * CIL library *:* CIL module *
 0002:0000bf4c       $stateUnwindMap$?xmlGet@CProfileIHVConnectivity@@QEAAPEA_WXZ 000000018002bf4c     * CIL library *:* CIL module *
 0002:0000c00c       $ip2state$?xmlGet@CProfileIHVConnectivity@@QEAAPEA_WXZ 000000018002c00c     * CIL library *:* CIL module *
 0002:0000c1ac       $unwind$?Hex2Ssid@CProfileIHVConnectivity@@SA_NPEB_WPEAEPEAH@Z 000000018002c1ac     * CIL library *:* CIL module *
 0002:0000c1c0       $chain$0$?Hex2Ssid@CProfileIHVConnectivity@@SA_NPEB_WPEAEPEAH@Z 000000018002c1c0     * CIL library *:* CIL module *
 0002:0000c1d4       $chain$4$?Hex2Ssid@CProfileIHVConnectivity@@SA_NPEB_WPEAEPEAH@Z 000000018002c1d4     * CIL library *:* CIL module *
 0002:0000c1f4       $chain$5$?Hex2Ssid@CProfileIHVConnectivity@@SA_NPEB_WPEAEPEAH@Z 000000018002c1f4     * CIL library *:* CIL module *
 0002:0000c204       $chain$6$?Hex2Ssid@CProfileIHVConnectivity@@SA_NPEB_WPEAEPEAH@Z 000000018002c204     * CIL library *:* CIL module *
 0002:0000c204       $chain$9$?Hex2Ssid@CProfileIHVConnectivity@@SA_NPEB_WPEAEPEAH@Z 000000018002c204     * CIL library *:* CIL module *
 0002:0000c214       $chain$7$?Hex2Ssid@CProfileIHVConnectivity@@SA_NPEB_WPEAEPEAH@Z 000000018002c214     * CIL library *:* CIL module *
 0002:0000c238       $chain$8$?Hex2Ssid@CProfileIHVConnectivity@@SA_NPEB_WPEAEPEAH@Z 000000018002c238     * CIL library *:* CIL module *
 0002:0000c24c       $unwind$?LoadStringResource@@YAKPEAUHINSTANCE__@@IAEAPEA_WPEAK@Z 000000018002c24c     * CIL library *:* CIL module *
 0002:0000c268       $unwind$?OnViewCertificate@CertPropertyDlg@@UEAAHXZ 000000018002c268     * CIL library *:* CIL module *
 0002:0000c274       $unwind$?OnSelectCertificate@CertPropertyDlg@@UEAAHXZ 000000018002c274     * CIL library *:* CIL module *
 0002:0000c290       $unwind$?Refresh@CertPropertyDlg@@EEAAXXZ 000000018002c290     * CIL library *:* CIL module *
 0002:0000c2a8       $unwind$?InitCertificateListView@@YAXPEAUHINSTANCE__@@PEAUHWND__@@PEAXP6AHPEBU_CERT_CONTEXT@@PEAH2@Z2@Z 000000018002c2a8     * CIL library *:* CIL module *
 0002:0000c2c4       $chain$0$?InitCertificateListView@@YAXPEAUHINSTANCE__@@PEAUHWND__@@PEAXP6AHPEBU_CERT_CONTEXT@@PEAH2@Z2@Z 000000018002c2c4     * CIL library *:* CIL module *
 0002:0000c2d8       $chain$1$?InitCertificateListView@@YAXPEAUHINSTANCE__@@PEAUHWND__@@PEAXP6AHPEBU_CERT_CONTEXT@@PEAH2@Z2@Z 000000018002c2d8     * CIL library *:* CIL module *
 0002:0000c2e8       $unwind$?CleanupCertificateListView@@YAXPEAUHWND__@@@Z 000000018002c2e8     * CIL library *:* CIL module *
 0002:0000c2f4       $chain$0$?DialogProc@KeyInputDlg@@SA_JPEAUHWND__@@I_K_J@Z 000000018002c2f4     * CIL library *:* CIL module *
 0002:0000c308       $chain$2$?DialogProc@KeyInputDlg@@SA_JPEAUHWND__@@I_K_J@Z 000000018002c308     * CIL library *:* CIL module *
 0002:0000c308       $chain$8$?DialogProc@KeyInputDlg@@SA_JPEAUHWND__@@I_K_J@Z 000000018002c308     * CIL library *:* CIL module *
 0002:0000c308       $chain$4$?DialogProc@KeyInputDlg@@SA_JPEAUHWND__@@I_K_J@Z 000000018002c308     * CIL library *:* CIL module *
 0002:0000c308       $chain$6$?DialogProc@KeyInputDlg@@SA_JPEAUHWND__@@I_K_J@Z 000000018002c308     * CIL library *:* CIL module *
 0002:0000c31c       $chain$9$?DialogProc@KeyInputDlg@@SA_JPEAUHWND__@@I_K_J@Z 000000018002c31c     * CIL library *:* CIL module *
 0002:0000c32c       $chain$0$?Refresh@KeyInputDlg@@UEAAXXZ 000000018002c32c     * CIL library *:* CIL module *
 0002:0000c340       $chain$1$?Refresh@KeyInputDlg@@UEAAXXZ 000000018002c340     * CIL library *:* CIL module *
 0002:0000c354       $chain$2$?Refresh@KeyInputDlg@@UEAAXXZ 000000018002c354     * CIL library *:* CIL module *
 0002:0000c364       $chain$3$?Refresh@KeyInputDlg@@UEAAXXZ 000000018002c364     * CIL library *:* CIL module *
 0002:0000c374       $unwind$?ReflectEnableState@KeyInputDlg@@IEAAXPEAU_tKeyInEditGroup@1@@Z 000000018002c374     * CIL library *:* CIL module *
 0002:0000c380       $chain$2$?ReflectEnableState@KeyInputDlg@@IEAAXPEAU_tKeyInEditGroup@1@@Z 000000018002c380     * CIL library *:* CIL module *
 0002:0000c39c       $chain$3$?ReflectEnableState@KeyInputDlg@@IEAAXPEAU_tKeyInEditGroup@1@@Z 000000018002c39c     * CIL library *:* CIL module *
 0002:0000c3ac       $unwind$?OnChangeKey@KeyInputDlg@@IEAAXPEAU_tKeyInEditGroup@1@@Z 000000018002c3ac     * CIL library *:* CIL module *
 0002:0000c3c8       $chain$0$?OnChangeKey@KeyInputDlg@@IEAAXPEAU_tKeyInEditGroup@1@@Z 000000018002c3c8     * CIL library *:* CIL module *
 0002:0000c3dc       $chain$1$?OnChangeKey@KeyInputDlg@@IEAAXPEAU_tKeyInEditGroup@1@@Z 000000018002c3dc     * CIL library *:* CIL module *
 0002:0000c3ec       $unwind$?OnChangeConfirmKey@KeyInputDlg@@IEAAXPEAU_tKeyInEditGroup@1@@Z 000000018002c3ec     * CIL library *:* CIL module *
 0002:0000c404       $chain$0$?OnChangeConfirmKey@KeyInputDlg@@IEAAXPEAU_tKeyInEditGroup@1@@Z 000000018002c404     * CIL library *:* CIL module *
 0002:0000c418       $chain$1$?OnChangeConfirmKey@KeyInputDlg@@IEAAXPEAU_tKeyInEditGroup@1@@Z 000000018002c418     * CIL library *:* CIL module *
 0002:0000c42c       $chain$2$?OnChangeConfirmKey@KeyInputDlg@@IEAAXPEAU_tKeyInEditGroup@1@@Z 000000018002c42c     * CIL library *:* CIL module *
 0002:0000c43c       $chain$3$?OnChangeConfirmKey@KeyInputDlg@@IEAAXPEAU_tKeyInEditGroup@1@@Z 000000018002c43c     * CIL library *:* CIL module *
 0002:0000c44c       $unwind$?UpdateKeyDisplay@KeyInputDlg@@IEAAXPEAU_tKeyInEditGroup@1@HH@Z 000000018002c44c     * CIL library *:* CIL module *
 0002:0000c45c       $unwind$?HideEditGroup@KeyInputDlg@@IEAAXHPEAU_tKeyInEditGroup@1@H@Z 000000018002c45c     * CIL library *:* CIL module *
 0002:0000c47c       $unwind$?ReportError@KeyInputDlg@@IEAAXH@Z 000000018002c47c     * CIL library *:* CIL module *
 0002:0000c498       $unwind$?IsValid@KeyInputDlg@@IEAAHPEAU_tKeyInEditGroup@1@@Z 000000018002c498     * CIL library *:* CIL module *
 0002:0000c4b0       $chain$0$?IsValid@KeyInputDlg@@IEAAHPEAU_tKeyInEditGroup@1@@Z 000000018002c4b0     * CIL library *:* CIL module *
 0002:0000c4c4       $chain$1$?IsValid@KeyInputDlg@@IEAAHPEAU_tKeyInEditGroup@1@@Z 000000018002c4c4     * CIL library *:* CIL module *
 0002:0000c4d4       $unwind$?ValidateKey@KeyInputDlg@@UEAAHPEB_W@Z 000000018002c4d4     * CIL library *:* CIL module *
 0002:0000c4e0       $chain$2$?ValidateKey@KeyInputDlg@@UEAAHPEB_W@Z 000000018002c4e0     * CIL library *:* CIL module *
 0002:0000c4f8       $chain$3$?ValidateKey@KeyInputDlg@@UEAAHPEB_W@Z 000000018002c4f8     * CIL library *:* CIL module *
 0002:0000c508       $unwind$?OnKeyDown@KeyInputDlg@@UEAAHPEAU_tKeyInEditGroup@1@_K_J@Z 000000018002c508     * CIL library *:* CIL module *
 0002:0000c518       $xdatasym                  000000018002c518     LIBCMT:amdsecgs.obj
 0002:0000c51c       $unwind$swprintf_s         000000018002c51c     LIBCMT:swprintf.obj
 0002:0000c528       $xdatasym                  000000018002c528     LIBCMT:memcpy.obj
 0002:0000c52c       $unwind$_onexit            000000018002c52c     LIBCMT:onexit.obj
 0002:0000c55c       $unwind$wcsstr             000000018002c55c     LIBCMT:wcsstr.obj
 0002:0000c56c       $unwind$??2@YAPEAX_KAEBUnothrow_t@std@@@Z 000000018002c56c     LIBCMT:newopnt.obj
 0002:0000c57c       $tryMap$??2@YAPEAX_KAEBUnothrow_t@std@@@Z 000000018002c57c     LIBCMT:newopnt.obj
 0002:0000c590       $handlerMap$0$??2@YAPEAX_KAEBUnothrow_t@std@@@Z 000000018002c590     LIBCMT:newopnt.obj
 0002:0000c5a4       $ip2state$??2@YAPEAX_KAEBUnothrow_t@std@@@Z 000000018002c5a4     LIBCMT:newopnt.obj
 0002:0000c5d4       $unwind$?catch$0@?0???2@YAPEAX_KAEBUnothrow_t@std@@@Z@4HA 000000018002c5d4     LIBCMT:newopnt.obj
 0002:0000c5e4       $unwind$?wcstoxl@@YAKPEB_WPEAPEB_WHH@Z 000000018002c5e4     LIBCMT:wcstol.obj
 0002:0000c5fc       $unwind$_putwch_nolock     000000018002c5fc     LIBCMT:gs_report.obj
 0002:0000c5fc       $unwind$__report_gsfailure 000000018002c5fc     LIBCMT:gs_report.obj
 0002:0000c604       $unwind$_CRT_INIT          000000018002c604     LIBCMT:dllcrt0.obj
 0002:0000c624       $unwind$__DllMainCRTStartup 000000018002c624     LIBCMT:dllcrt0.obj
 0002:0000c64c       $unwind$_CxxThrowException 000000018002c64c     LIBCMT:throw.obj
 0002:0000c660       $xdatasym                  000000018002c660     LIBCMT:chkstk.obj
 0002:0000c668       $xdatasym                  000000018002c668     LIBCMT:memset.obj
 0002:0000c670       $xdatasym                  000000018002c670     LIBCMT:strcmp.obj
 0002:0000c674       $unwind$?_Type_info_dtor@type_info@@CAXPEAV1@@Z 000000018002c674     LIBCMT:typname.obj
 0002:0000c694       $unwind$?_Copy_str@exception@std@@AEAAXPEBD@Z 000000018002c694     LIBCMT:stdexcpt.obj
 0002:0000c6a4       $unwind$_call_reportfault  000000018002c6a4     LIBCMT:invarg.obj
 0002:0000c6c4       $unwind$_flsbuf            000000018002c6c4     LIBCMT:_flsbuf.obj
 0002:0000c6d8       $unwind$_vswprintf_helper  000000018002c6d8     LIBCMT:vswprnc.obj
 0002:0000c6f0       $unwind$__isa_available_init 000000018002c6f0     LIBCMT:cpu_disp.obj
 0002:0000c6fc       $unwind$_initterm          000000018002c6fc     LIBCMT:crt0dat.obj
 0002:0000c708       $unwind$doexit             000000018002c708     LIBCMT:crt0dat.obj
 0002:0000c738       $unwind$__C_specific_handler 000000018002c738     LIBCMT:chandler.obj
 0002:0000c754       $unwind$_UnwindNestedFrames 000000018002c754     LIBCMT:trnsctrl.obj
 0002:0000c778       $unwind$_CallSETranslator  000000018002c778     LIBCMT:trnsctrl.obj
 0002:0000c798       $unwind$?_GetEstablisherFrame@@YAPEA_KPEA_KPEAU_xDISPATCHER_CONTEXT@@PEBU_s_FuncInfo@@0@Z 000000018002c798     LIBCMT:trnsctrl.obj
 0002:0000c7b0       $unwind$__CxxFrameHandler3 000000018002c7b0     LIBCMT:trnsctrl.obj
 0002:0000c7c0       $unwind$?__SehTransFilter@@YAHPEAU_EXCEPTION_POINTERS@@PEAUEHExceptionRecord@@PEA_KPEAU_CONTEXT@@PEAU_xDISPATCHER_CONTEXT@@PEBU_s_FuncInfo@@PEAH@Z 000000018002c7c0     LIBCMT:trnsctrl.obj
 0002:0000c7c0       $unwind$_wcsicmp_l         000000018002c7c0     LIBCMT:trnsctrl.obj
 0002:0000c7d4       $unwind$__updatetlocinfo   000000018002c7d4     LIBCMT:localref.obj
 0002:0000c7f4       $unwind$__updatetmbcinfo   000000018002c7f4     LIBCMT:mbctype.obj
 0002:0000c818       $unwind$_setmbcp           000000018002c818     LIBCMT:mbctype.obj
 0002:0000c848       $unwind$_setmbcp_nolock    000000018002c848     LIBCMT:mbctype.obj
 0002:0000c868       $unwind$?setSBUpLow@@YAXPEAUthreadmbcinfostruct@@@Z 000000018002c868     LIBCMT:mbctype.obj
 0002:0000c884       $unwind$_towlower_l        000000018002c884     LIBCMT:towlower.obj
 0002:0000c890       $unwind$_freefls           000000018002c890     LIBCMT:tidtable.obj
 0002:0000c8c4       $unwind$_initptd           000000018002c8c4     LIBCMT:tidtable.obj
 0002:0000c8f8       $unwind$_locterm           000000018002c8f8     LIBCMT:wsetloca.obj
 0002:0000c918       $unwind$__crtCaptureCurrentContext 000000018002c918     LIBCMT:winapisupp.obj
 0002:0000c924       $unwind$__crtCapturePreviousContext 000000018002c924     LIBCMT:winapisupp.obj
 0002:0000c930       $unwind$_NMSG_WRITE        000000018002c930     LIBCMT:crt0msg.obj
 0002:0000c954       $unwind$_ioinit            000000018002c954     LIBCMT:ioinit.obj
 0002:0000c99c       $unwind$_setargv           000000018002c99c     LIBCMT:stdargv.obj
 0002:0000c9ac       $unwind$?_GetRangeOfTrysToCheck@@YAPEBU_s_TryBlockMapEntry@@PEA_KPEBU_s_FuncInfo@@HHPEAI2PEAU_xDISPATCHER_CONTEXT@@@Z 000000018002c9ac     LIBCMT:stdargv.obj
 0002:0000c9ac       $unwind$parse_cmdline      000000018002c9ac     LIBCMT:stdargv.obj
 0002:0000c9c8       $unwind$_setenvp           000000018002c9c8     LIBCMT:stdenvp.obj
 0002:0000c9c8       $unwind$_invalid_parameter 000000018002c9c8     LIBCMT:stdenvp.obj
 0002:0000c9dc       $unwind$__security_init_cookie 000000018002c9dc     LIBCMT:gs_support.obj
 0002:0000c9e8       $unwind$_cftoe2_l          000000018002c9e8     LIBCMT:cvt.obj
 0002:0000ca04       $unwind$_cftoe_l           000000018002ca04     LIBCMT:cvt.obj
 0002:0000ca1c       $unwind$_cftoa_l           000000018002ca1c     LIBCMT:cvt.obj
 0002:0000ca38       $unwind$__crtGetEnvironmentStringsA 000000018002ca38     LIBCMT:cvt.obj
 0002:0000ca38       $unwind$_cftof2_l          000000018002ca38     LIBCMT:cvt.obj
 0002:0000ca38       $unwind$_wcsnicmp_l        000000018002ca38     LIBCMT:cvt.obj
 0002:0000ca50       $unwind$_cftof_l           000000018002ca50     LIBCMT:cvt.obj
 0002:0000ca68       $unwind$_cftog_l           000000018002ca68     LIBCMT:cvt.obj
 0002:0000ca80       $xdatasym                  000000018002ca80     LIBCMT:strlen.obj
 0002:0000ca84       $unwind$_mtinitlocknum     000000018002ca84     LIBCMT:mlock.obj
 0002:0000cab0       $xdatasym                  000000018002cab0     LIBCMT:jmpuwind.obj
 0002:0000cac4       $unwind$_write             000000018002cac4     LIBCMT:write.obj
 0002:0000caf0       $unwind$_write_nolock      000000018002caf0     LIBCMT:write.obj
 0002:0000cb14       $unwind$_lseeki64          000000018002cb14     LIBCMT:lseeki64.obj
 0002:0000cb40       $unwind$_woutput_s_l       000000018002cb40     LIBCMT:woutputs.obj
 0002:0000cb64       $unwind$write_multi_char   000000018002cb64     LIBCMT:woutputs.obj
 0002:0000cb78       $unwind$_cropzeros_l       000000018002cb78     LIBCMT:_wctype.obj
 0002:0000cb78       $unwind$isdigit            000000018002cb78     LIBCMT:_wctype.obj
 0002:0000cb78       $unwind$isleadbyte         000000018002cb78     LIBCMT:_wctype.obj
 0002:0000cb78       $unwind$?getSystemCP@@YAHH@Z 000000018002cb78     LIBCMT:_wctype.obj
 0002:0000cb78       $unwind$??2@YAPEAX_K@Z     000000018002cb78     LIBCMT:_wctype.obj
 0002:0000cb78       $unwind$_isleadbyte_l      000000018002cb78     LIBCMT:_wctype.obj
 0002:0000cb78       $unwind$_forcdecpt_l       000000018002cb78     LIBCMT:_wctype.obj
 0002:0000cb80       $unwind$_fputwc_nolock     000000018002cb80     LIBCMT:fputwc.obj
 0002:0000cb9c       $unwind$_mbtowc_l          000000018002cb9c     LIBCMT:mbtowc.obj
 0002:0000cbb4       $unwind$_IsNonwritableInCurrentImage 000000018002cbb4     LIBCMT:pesect.obj
 0002:0000cbd8       $unwind$?terminate@@YAXXZ  000000018002cbd8     LIBCMT:hooks.obj
 0002:0000cbf8       $unwind$?_inconsistency@@YAXXZ 000000018002cbf8     LIBCMT:hooks.obj
 0002:0000cc18       $unwind$raise              000000018002cc18     LIBCMT:winsig.obj
 0002:0000cc48       $unwind$__crtLCMapStringEx 000000018002cc48     LIBCMT:winapinls.obj
 0002:0000cc58       $unwind$__CxxCallCatchBlock 000000018002cc58     LIBCMT:frame.obj
 0002:0000cc98       $unwind$__CxxCallCatchBlock$fin$1 000000018002cc98     LIBCMT:frame.obj
 0002:0000cca4       $unwind$__FrameUnwindToState 000000018002cca4     LIBCMT:frame.obj
 0002:0000cce0       $unwind$?FindHandler@@YAXPEAUEHExceptionRecord@@PEA_KPEAU_CONTEXT@@PEAU_xDISPATCHER_CONTEXT@@PEBU_s_FuncInfo@@EH1@Z 000000018002cce0     LIBCMT:frame.obj
 0002:0000ccfc       $unwind$?CatchIt@@YAXPEAUEHExceptionRecord@@PEA_KPEAU_CONTEXT@@PEAU_xDISPATCHER_CONTEXT@@PEBU_s_FuncInfo@@PEBU_s_HandlerType@@PEBU_s_CatchableType@@PEBU_s_TryBlockMapEntry@@H1EE@Z 000000018002ccfc     LIBCMT:frame.obj
 0002:0000cd14       $unwind$__BuildCatchObject 000000018002cd14     LIBCMT:frame.obj
 0002:0000cd40       $unwind$?FindHandlerForForeignException@@YAXPEAUEHExceptionRecord@@PEA_KPEAU_CONTEXT@@PEAU_xDISPATCHER_CONTEXT@@PEBU_s_FuncInfo@@HH1@Z 000000018002cd40     LIBCMT:frame.obj
 0002:0000cd58       $unwind$__DestructExceptionObject 000000018002cd58     LIBCMT:frame.obj
 0002:0000cd78       $unwind$__InternalCxxFrameHandler 000000018002cd78     LIBCMT:frame.obj
 0002:0000cd90       $unwind$__BuildCatchObjectHelper 000000018002cd90     LIBCMT:frame.obj
 0002:0000cdc0       $unwind$iswctype           000000018002cdc0     LIBCMT:initnum.obj
 0002:0000cdc0       $unwind$free               000000018002cdc0     LIBCMT:initnum.obj
 0002:0000cdc0       $unwind$__free_lconv_num   000000018002cdc0     LIBCMT:initnum.obj
 0002:0000cdc8       $unwind$__crtLCMapStringA  000000018002cdc8     LIBCMT:a_map.obj
 0002:0000cdd8       $unwind$?__crtLCMapStringA_stat@@YAHPEAUlocaleinfo_struct@@PEB_WKPEBDHPEADHHH@Z 000000018002cdd8     LIBCMT:a_map.obj
 0002:0000ce00       $unwind$__crtGetStringTypeA 000000018002ce00     LIBCMT:a_str.obj
 0002:0000ce10       $unwind$?__crtGetStringTypeA_stat@@YAHPEAUlocaleinfo_struct@@KPEBDHPEAGHH@Z 000000018002ce10     LIBCMT:a_str.obj
 0002:0000ce38       $xdatasym                  000000018002ce38     LIBCMT:memcmp.obj
 0002:0000ce3c       $unwind$_atoflt_l          000000018002ce3c     LIBCMT:atodbl.obj
 0002:0000ce3c       $unwind$_atodbl_l          000000018002ce3c     LIBCMT:atodbl.obj
 0002:0000ce50       $unwind$__crtMessageBoxW   000000018002ce50     LIBCMT:crtmboxw.obj
 0002:0000ce6c       $unwind$?x_ismbbtype_l@@YAHPEAUlocaleinfo_struct@@IHH@Z 000000018002ce6c     LIBCMT:ismbbyte.obj
 0002:0000ce7c       $unwind$_tolower_l         000000018002ce7c     LIBCMT:tolower.obj
 0002:0000ce8c       $unwind$wcschr             000000018002ce8c     LIBCMT:strrchr.obj
 0002:0000ce8c       $unwind$strrchr            000000018002ce8c     LIBCMT:strrchr.obj
 0002:0000ce94       $unwind$_fltout2           000000018002ce94     LIBCMT:cfout.obj
 0002:0000ceac       $unwind$_fcloseall         000000018002ceac     LIBCMT:closeall.obj
 0002:0000ced4       $unwind$flsall             000000018002ced4     LIBCMT:fflush.obj
 0002:0000cf14       $unwind$_free_osfhnd       000000018002cf14     LIBCMT:osfinfo.obj
 0002:0000cf24       $unwind$__lock_fhandle     000000018002cf24     LIBCMT:osfinfo.obj
 0002:0000cf50       $unwind$_cfltcvt_l         000000018002cf50     LIBCMT:wctomb.obj
 0002:0000cf50       $unwind$wctomb_s           000000018002cf50     LIBCMT:wctomb.obj
 0002:0000cf50       $unwind$_invalid_parameter_noinfo 000000018002cf50     LIBCMT:wctomb.obj
 0002:0000cf58       $unwind$_wctomb_s_l        000000018002cf58     LIBCMT:wctomb.obj
 0002:0000cf68       $unwind$_flswbuf           000000018002cf68     LIBCMT:_flswbuf.obj
 0002:0000cf80       $xdatasym                  000000018002cf80     LIBCMT:handlers.obj
 0002:0000cf88       $unwind$_ld12tod           000000018002cf88     LIBCMT:intrncvt.obj
 0002:0000cf88       $unwind$_ld12tof           000000018002cf88     LIBCMT:intrncvt.obj
 0002:0000cfac       $unwind$__strgtold12_l     000000018002cfac     LIBCMT:strgtold.obj
 0002:0000cfd0       $unwind$_isctype_l         000000018002cfd0     LIBCMT:isctype.obj
 0002:0000cfe0       $unwind$$I10_OUTPUT        000000018002cfe0     LIBCMT:x10fout.obj
 0002:0000d004       $unwind$fclose             000000018002d004     LIBCMT:fclose.obj
 0002:0000d028       $unwind$_commit            000000018002d028     LIBCMT:commit.obj
 0002:0000d050       $unwind$__mtold12          000000018002d050     LIBCMT:mantold.obj
 0002:0000d06c       $unwind$_close             000000018002d06c     LIBCMT:close.obj
 0002:0000d094       $unwind$?_Xbad_alloc@std@@YAXXZ 000000018002d094     libcpmt:xthrow.obj
 0002:0000d094       $unwind$?_com_raise_error@@YAXJPEAUIErrorInfo@@@Z 000000018002d094     libcpmt:xthrow.obj
 0002:0000d094       $unwind$?_Xout_of_range@std@@YAXPEBD@Z 000000018002d094     libcpmt:xthrow.obj
 0002:0000d094       $unwind$__initconout       000000018002d094     libcpmt:xthrow.obj
 0002:0000d094       $unwind$?_Xlength_error@std@@YAXPEBD@Z 000000018002d094     libcpmt:xthrow.obj
 0002:0000d094       $unwind$_cfltcvt           000000018002d094     libcpmt:xthrow.obj
 0002:0000d09c       $unwind$_realloc_crt       000000018002d09c     LIBCMT:gshandlereh.obj
 0002:0000d09c       $unwind$_calloc_crt        000000018002d09c     LIBCMT:gshandlereh.obj
 0002:0000d09c       $unwind$_malloc_crt        000000018002d09c     LIBCMT:gshandlereh.obj
 0002:0000d09c       $unwind$__GSHandlerCheck_EH 000000018002d09c     LIBCMT:gshandlereh.obj
 0002:0000d09c       $unwind$GetTableIndexFromLocaleName 000000018002d09c     LIBCMT:gshandlereh.obj
 0002:0000d09c       $unwind$__TypeMatch        000000018002d09c     LIBCMT:gshandlereh.obj
 0002:0000d09c       $unwind$__GSHandlerCheck_SEH 000000018002d09c     LIBCMT:gshandlereh.obj
 0002:0000d2f0       .edata                     000000018002d2f0     bcmihvui64.exp
 0002:0000d318       rgpv                       000000018002d318     bcmihvui64.exp
 0002:0000d328       rgszName                   000000018002d328     bcmihvui64.exp
 0002:0000d338       rgwOrd                     000000018002d338     bcmihvui64.exp
 0002:0000d340       szName                     000000018002d340     bcmihvui64.exp
 0002:0000d34d       $N00001                    000000018002d34d     bcmihvui64.exp
 0002:0000d35d       $N00002                    000000018002d35d     bcmihvui64.exp
 0002:0000d36f       $N00003                    000000018002d36f     bcmihvui64.exp
 0002:0000d381       $N00004                    000000018002d381     bcmihvui64.exp
 0002:0000dafa       .idata$6                   000000018002dafa     crypt32:CRYPT32.dll
 0002:0000db24       .idata$6                   000000018002db24     cryptui:CRYPTUI.dll
 0002:0000db52       .idata$6                   000000018002db52     rpcrt4:RPCRT4.dll
 0002:0000de1c       .idata$6                   000000018002de1c     kernel32:KERNEL32.dll
 0002:0000dfb8       .idata$6                   000000018002dfb8     user32:USER32.dll
 0002:0000e048       .idata$6                   000000018002e048     advapi32:ADVAPI32.dll
 0002:0000e0c0       .idata$6                   000000018002e0c0     ole32:ole32.dll
 0002:0000e0ca       .idata$6                   000000018002e0ca     oleaut32:OLEAUT32.dll
 0003:00000030       ErrnoNoMem                 000000018002f030     LIBCMT:dosmap.obj
 0003:00000034       DoserrorNoMem              000000018002f034     LIBCMT:dosmap.obj
 0003:00000040       errtable                   000000018002f040     LIBCMT:dosmap.obj
 0003:000005f8       __rgctypeflag              000000018002f5f8     LIBCMT:mbctype.obj
 0003:00000600       __rgcode_page_info         000000018002f600     LIBCMT:mbctype.obj
 0003:00000b40       _ctype_loc_style           000000018002fb40     LIBCMT:wsetloca.obj
 0003:00000b48       ?isPackaged@?1??__crtIsPackagedApp@@9@9 000000018002fb48     LIBCMT:winapisupp.obj
 0003:00000c00       _locktable                 000000018002fc00     LIBCMT:mlock.obj
 0003:000012d8       DoubleFormat               00000001800302d8     LIBCMT:intrncvt.obj
 0003:000012f0       FloatFormat                00000001800302f0     LIBCMT:intrncvt.obj
 0003:00001ef0       GS_ExceptionRecord         0000000180030ef0     LIBCMT:gs_report.obj
 0003:00001f90       GS_ContextRecord           0000000180030f90     LIBCMT:gs_report.obj
 0003:00002460       DebuggerWasPresent         0000000180031460     LIBCMT:gs_report.obj
 0003:00002468       __proc_attached            0000000180031468     LIBCMT:dllcrt0.obj
 0003:00002488       __type_info_root_node      0000000180031488     LIBCMT:typname.obj
 0003:00002538       fSystemSet                 0000000180031538     LIBCMT:mbctype.obj
 0003:00002560       ?outmsg@?8??_NMSG_WRITE@@9@9 0000000180031560     LIBCMT:crt0msg.obj
 0003:00002d90       ?_pgmname@?1??_setargv@@9@9 0000000180031d90     LIBCMT:stdargv.obj
 0003:00002ea0       lclcritsects               0000000180031ea0     LIBCMT:mlock.obj
 0003:00003118       heap                       0000000180032118     LIBCMT:undname.obj
 0003:00003148       __enable_percent_n         0000000180032148     LIBCMT:printf.obj
 0003:00003158       ctrlc_action               0000000180032158     LIBCMT:winsig.obj
 0003:00003160       ctrlbreak_action           0000000180032160     LIBCMT:winsig.obj
 0003:00003168       abort_action               0000000180032168     LIBCMT:winsig.obj
 0003:00003170       term_action                0000000180032170     LIBCMT:winsig.obj
 0003:00003178       ConsoleCtrlHandler_Installed 0000000180032178     LIBCMT:winsig.obj
 0003:00003180       g_pfnRtlGenRandom          0000000180032180     LIBCMT:rand_s.obj
 0003:00003198       __crtCallProc              0000000180032198     LIBCMT:winapinls.obj
 0003:000031b8       ?pfnMessageBox@?1??__crtMessageBoxW@@9@9 00000001800321b8     LIBCMT:crtmboxw.obj
 0003:000031c0       ?pfnGetActiveWindow@?1??__crtMessageBoxW@@9@9 00000001800321c0     LIBCMT:crtmboxw.obj
 0003:000031c8       ?pfnGetLastActivePopup@?1??__crtMessageBoxW@@9@9 00000001800321c8     LIBCMT:crtmboxw.obj
 0003:000031d0       ?pfnGetProcessWindowStation@?1??__crtMessageBoxW@@9@9 00000001800321d0     LIBCMT:crtmboxw.obj
 0003:000031d8       ?pfnGetUserObjectInformation@?1??__crtMessageBoxW@@9@9 00000001800321d8     LIBCMT:crtmboxw.obj
 0003:000031e4       allocator_arg              00000001800321e4     libcpmt:syserror.obj
 0003:000031e5       piecewise_construct        00000001800321e5     libcpmt:syserror.obj
 0003:000031e6       _Tuple_alloc               00000001800321e6     libcpmt:xthrow.obj
 0003:000031e7       ignore                     00000001800321e7     libcpmt:xthrow.obj
 0003:000031e8       allocator_arg              00000001800321e8     libcpmt:xthrow.obj
 0003:000031e9       piecewise_construct        00000001800321e9     libcpmt:xthrow.obj
 0003:000031f4       ?loaded@?1??GUID_COMPONENT@@YAAEBU_GUID@@XZ@4HA 00000001800321f4     * CIL library *:* CIL module *
 0003:000031f8       _nServerLocks              00000001800321f8     * CIL library *:* CIL module *
 0003:00003208       g_hStringResInstance       0000000180032208     * CIL library *:* CIL module *
 0003:00003210       _GI                        0000000180032210     * CIL library *:* CIL module *
 0003:00003211       allocator_arg              0000000180032211     * CIL library *:* CIL module *
 0003:00003212       piecewise_construct        0000000180032212     * CIL library *:* CIL module *
 0003:00003213       _Tuple_alloc               0000000180032213     * CIL library *:* CIL module *
 0003:00003214       ignore                     0000000180032214     * CIL library *:* CIL module *
 0003:00003215       allocator_arg              0000000180032215     * CIL library *:* CIL module *
 0003:00003216       piecewise_construct        0000000180032216     * CIL library *:* CIL module *
 0003:00003217       allocator_arg              0000000180032217     * CIL library *:* CIL module *
 0003:00003218       g_guard                    0000000180032218     * CIL library *:* CIL module *
 0003:00003250       piecewise_construct        0000000180032250     * CIL library *:* CIL module *
 0003:00003254       SupportedAuthFeats         0000000180032254     * CIL library *:* CIL module *
 0003:00003258       g_nrefResMapBuild          0000000180032258     * CIL library *:* CIL module *
 0003:00003270       ?guid@?1??GUID_COMPONENT@@YAAEBU_GUID@@XZ@4U2@A 0000000180032270     * CIL library *:* CIL module *
 0004:00000000       $pdata$??__Eg_stringResMap@@YAXXZ 0000000180034000     * CIL library *:* CIL module *
 0004:0000000c       $pdata$??__Eg_guard@@YAXXZ 000000018003400c     * CIL library *:* CIL module *
 0004:00000018       $pdata$?InitIhvCommon@@YAXXZ 0000000180034018     * CIL library *:* CIL module *
 0004:00000024       $pdata$?CopyCredential@@YAKPEBU_IHV_CREDENTIAL@@PEAPEAU1@@Z 0000000180034024     * CIL library *:* CIL module *
 0004:00000030       $pdata$?SecureCredential@@YAKPEBU_IHV_CREDENTIAL@@PEAPEAU1@H@Z 0000000180034030     * CIL library *:* CIL module *
 0004:0000003c       $pdata$3$?SecureCredential@@YAKPEBU_IHV_CREDENTIAL@@PEAPEAU1@H@Z 000000018003403c     * CIL library *:* CIL module *
 0004:00000048       $pdata$4$?SecureCredential@@YAKPEBU_IHV_CREDENTIAL@@PEAPEAU1@H@Z 0000000180034048     * CIL library *:* CIL module *
 0004:00000054       $pdata$5$?SecureCredential@@YAKPEBU_IHV_CREDENTIAL@@PEAPEAU1@H@Z 0000000180034054     * CIL library *:* CIL module *
 0004:00000060       $pdata$6$?SecureCredential@@YAKPEBU_IHV_CREDENTIAL@@PEAPEAU1@H@Z 0000000180034060     * CIL library *:* CIL module *
 0004:0000006c       $pdata$IsolationAwareLoadLibraryW 000000018003406c     * CIL library *:* CIL module *
 0004:00000078       $pdata$WinbaseIsolationAwarePrivatetRgzlnPgpgk 0000000180034078     * CIL library *:* CIL module *
 0004:00000084       $pdata$DllMain             0000000180034084     * CIL library *:* CIL module *
 0004:00000090       $pdata$?SelfRegister@@YAJ_N@Z 0000000180034090     * CIL library *:* CIL module *
 0004:0000009c       $pdata$0$?SelfRegister@@YAJ_N@Z 000000018003409c     * CIL library *:* CIL module *
 0004:000000a8       $pdata$1$?SelfRegister@@YAJ_N@Z 00000001800340a8     * CIL library *:* CIL module *
 0004:000000b4       $pdata$?GetComponentGuid@@YAPEA_WXZ 00000001800340b4     * CIL library *:* CIL module *
 0004:000000c0       $pdata$?CreateInstance@CFactory@@UEAAJPEAUIUnknown@@AEBU_GUID@@PEAPEAX@Z 00000001800340c0     * CIL library *:* CIL module *
 0004:000000cc       $pdata$?Release@CFactory@@UEAAKXZ 00000001800340cc     * CIL library *:* CIL module *
 0004:000000d8       $pdata$?QueryInterface@CFactory@@UEAAJAEBU_GUID@@PEAPEAX@Z 00000001800340d8     * CIL library *:* CIL module *
 0004:000000e4       $pdata$?GUID_COMPONENT@@YAAEBU_GUID@@XZ 00000001800340e4     * CIL library *:* CIL module *
 0004:000000f0       $pdata$3$?GUID_COMPONENT@@YAAEBU_GUID@@XZ 00000001800340f0     * CIL library *:* CIL module *
 0004:000000fc       $pdata$4$?GUID_COMPONENT@@YAAEBU_GUID@@XZ 00000001800340fc     * CIL library *:* CIL module *
 0004:00000108       $pdata$?GetClassObject@@YAJAEBU_GUID@@0PEAPEAX@Z 0000000180034108     * CIL library *:* CIL module *
 0004:00000114       $pdata$0$?GetClassObject@@YAJAEBU_GUID@@0PEAPEAX@Z 0000000180034114     * CIL library *:* CIL module *
 0004:00000120       $pdata$2$?GetClassObject@@YAJAEBU_GUID@@0PEAPEAX@Z 0000000180034120     * CIL library *:* CIL module *
 0004:0000012c       $pdata$3$?GetClassObject@@YAJAEBU_GUID@@0PEAPEAX@Z 000000018003412c     * CIL library *:* CIL module *
 0004:00000138       $pdata$IsolationAwareDialogBoxParamW 0000000180034138     * CIL library *:* CIL module *
 0004:00000144       $pdata$IsolationAwareCreatePropertySheetPageW 0000000180034144     * CIL library *:* CIL module *
 0004:00000150       $pdata$PrshtIsolationAwarePrivatetRgCebPnQQeRff_pbZPgYQP_QYY 0000000180034150     * CIL library *:* CIL module *
 0004:0000015c       $pdata$??0_bstr_t@@QEAA@PEB_W@Z 000000018003415c     * CIL library *:* CIL module *
 0004:00000168       $pdata$??1_bstr_t@@QEAA@XZ 0000000180034168     * CIL library *:* CIL module *
 0004:00000174       $pdata$??0Data_t@_bstr_t@@QEAA@AEBV1@0@Z 0000000180034174     * CIL library *:* CIL module *
 0004:00000180       $pdata$?Release@CExtUI@@UEAAKXZ 0000000180034180     * CIL library *:* CIL module *
 0004:0000018c       $pdata$?QueryInterface@CExtUI@@UEAAJAEBU_GUID@@PEAPEAX@Z 000000018003418c     * CIL library *:* CIL module *
 0004:00000198       $pdata$?Release@CExtUICon@@UEAAKXZ 0000000180034198     * CIL library *:* CIL module *
 0004:000001a4       $pdata$?QueryInterface@CExtUICon@@UEAAJAEBU_GUID@@PEAPEAX@Z 00000001800341a4     * CIL library *:* CIL module *
 0004:000001b0       $pdata$?Release@CExtUIKey@@UEAAKXZ 00000001800341b0     * CIL library *:* CIL module *
 0004:000001bc       $pdata$?QueryInterface@CExtUIKey@@UEAAJAEBU_GUID@@PEAPEAX@Z 00000001800341bc     * CIL library *:* CIL module *
 0004:000001c8       $pdata$?Release@CExtUISec@@UEAAKXZ 00000001800341c8     * CIL library *:* CIL module *
 0004:000001d4       $pdata$?QueryInterface@CExtUISec@@UEAAJAEBU_GUID@@PEAPEAX@Z 00000001800341d4     * CIL library *:* CIL module *
 0004:000001e0       $pdata$?IsValid@CertPropertyDlg@@UEBAHXZ 00000001800341e0     * CIL library *:* CIL module *
 0004:000001ec       $pdata$??_G_System_error_category@std@@UEAAPEAXI@Z 00000001800341ec     * CIL library *:* CIL module *
 0004:000001ec       $pdata$??_G_Generic_error_category@std@@UEAAPEAXI@Z 00000001800341ec     * CIL library *:* CIL module *
 0004:000001ec       $pdata$??_Gerror_category@std@@UEAAPEAXI@Z 00000001800341ec     * CIL library *:* CIL module *
 0004:000001ec       $pdata$??_G_Iostream_error_category@std@@UEAAPEAXI@Z 00000001800341ec     * CIL library *:* CIL module *
 0004:000001f8       $pdata$?equivalent@error_category@std@@UEBA_NHAEBVerror_condition@2@@Z 00000001800341f8     * CIL library *:* CIL module *
 0004:00000204       $pdata$?message@_Generic_error_category@std@@UEBA?AV?$basic_string@DU?$char_traits@D@std@@V?$allocator@D@2@@2@H@Z 0000000180034204     * CIL library *:* CIL module *
 0004:00000210       $pdata$?message@_Iostream_error_category@std@@UEBA?AV?$basic_string@DU?$char_traits@D@std@@V?$allocator@D@2@@2@H@Z 0000000180034210     * CIL library *:* CIL module *
 0004:0000021c       $pdata$?message@_System_error_category@std@@UEBA?AV?$basic_string@DU?$char_traits@D@std@@V?$allocator@D@2@@2@H@Z 000000018003421c     * CIL library *:* CIL module *
 0004:00000228       $pdata$?default_error_condition@_System_error_category@std@@UEBA?AVerror_condition@2@H@Z 0000000180034228     * CIL library *:* CIL module *
 0004:00000234       $pdata$?GetCredentialFromCertificate@@YAHPEBU_CERT_CONTEXT@@PEAPEAU_IHV_CREDENTIAL@@@Z 0000000180034234     * CIL library *:* CIL module *
 0004:00000240       $pdata$1$?GetCredentialFromCertificate@@YAHPEBU_CERT_CONTEXT@@PEAPEAU_IHV_CREDENTIAL@@@Z 0000000180034240     * CIL library *:* CIL module *
 0004:0000024c       $pdata$2$?GetCredentialFromCertificate@@YAHPEBU_CERT_CONTEXT@@PEAPEAU_IHV_CREDENTIAL@@@Z 000000018003424c     * CIL library *:* CIL module *
 0004:00000258       $pdata$3$?GetCredentialFromCertificate@@YAHPEBU_CERT_CONTEXT@@PEAPEAU_IHV_CREDENTIAL@@@Z 0000000180034258     * CIL library *:* CIL module *
 0004:00000264       $pdata$4$?GetCredentialFromCertificate@@YAHPEBU_CERT_CONTEXT@@PEAPEAU_IHV_CREDENTIAL@@@Z 0000000180034264     * CIL library *:* CIL module *
 0004:00000270       $pdata$5$?GetCredentialFromCertificate@@YAHPEBU_CERT_CONTEXT@@PEAPEAU_IHV_CREDENTIAL@@@Z 0000000180034270     * CIL library *:* CIL module *
 0004:0000027c       $pdata$6$?GetCredentialFromCertificate@@YAHPEBU_CERT_CONTEXT@@PEAPEAU_IHV_CREDENTIAL@@@Z 000000018003427c     * CIL library *:* CIL module *
 0004:00000288       $pdata$7$?GetCredentialFromCertificate@@YAHPEBU_CERT_CONTEXT@@PEAPEAU_IHV_CREDENTIAL@@@Z 0000000180034288     * CIL library *:* CIL module *
 0004:00000294       $pdata$?OnInitDialog@WapiBaseKeyInputDlg@@MEAAHPEAUHWND__@@@Z 0000000180034294     * CIL library *:* CIL module *
 0004:000002a0       $pdata$?CheckValid@WapiCertPropertyDlg@@UEBAKPEBU_CERT_CONTEXT@@@Z 00000001800342a0     * CIL library *:* CIL module *
 0004:000002a0       $pdata$?CheckValid@WapiCertPropDlg@@UEBAKPEBU_CERT_CONTEXT@@@Z 00000001800342a0     * CIL library *:* CIL module *
 0004:000002ac       $pdata$??_GCertPropertyDlg@@UEAAPEAXI@Z 00000001800342ac     * CIL library *:* CIL module *
 0004:000002ac       $pdata$??_GWapiCertPropDlg@@UEAAPEAXI@Z 00000001800342ac     * CIL library *:* CIL module *
 0004:000002ac       $pdata$??_GWapiCertPropertyDlg@@UEAAPEAXI@Z 00000001800342ac     * CIL library *:* CIL module *
 0004:000002b8       $pdata$??1CExtUI@@QEAA@XZ  00000001800342b8     * CIL library *:* CIL module *
 0004:000002c4       $pdata$?GetDot11ExtUIFriendlyName@CExtUI@@UEAAJPEAPEA_W@Z 00000001800342c4     * CIL library *:* CIL module *
 0004:000002d0       $pdata$?GetDot11ExtUIProperties@CExtUI@@UEAAJW4_DOT11_EXT_UI_PROPERTY_TYPE@@PEAKPEAPEAUIDot11ExtUIProperty@@@Z 00000001800342d0     * CIL library *:* CIL module *
 0004:000002dc       $pdata$?SetSite@CExtUI@@UEAAJPEAUIUnknown@@@Z 00000001800342dc     * CIL library *:* CIL module *
 0004:000002e8       $pdata$?Notify_IsValid@WapiKeyInputPropDlg@@UEAAXH@Z 00000001800342e8     * CIL library *:* CIL module *
 0004:000002e8       $pdata$?Notify_IsValid@WapiCertPropDlg@@UEAAXH@Z 00000001800342e8     * CIL library *:* CIL module *
 0004:000002f4       $pdata$??_GWapiKeyInputPropDlg@@UEAAPEAXI@Z 00000001800342f4     * CIL library *:* CIL module *
 0004:000002f4       $pdata$??_GKeyInputDlg@@UEAAPEAXI@Z 00000001800342f4     * CIL library *:* CIL module *
 0004:000002f4       $pdata$??_GWapiKeyInputDlg@@UEAAPEAXI@Z 00000001800342f4     * CIL library *:* CIL module *
 0004:000002f4       $pdata$??_GConnConfigDlg@@UEAAPEAXI@Z 00000001800342f4     * CIL library *:* CIL module *
 0004:00000300       $pdata$??0WapiCertPropDlg@@QEAA@PEAUHINSTANCE__@@PEAX@Z 0000000180034300     * CIL library *:* CIL module *
 0004:0000030c       $pdata$?OnInitDialog@WapiCertPropDlg@@UEAAHPEAUHWND__@@@Z 000000018003430c     * CIL library *:* CIL module *
 0004:00000318       $pdata$?ReadUiRequest@CExtUI@@AEAAJPEAPEAU_IHV_UI_REQUEST@@@Z 0000000180034318     * CIL library *:* CIL module *
 0004:00000324       $pdata$0$?ReadUiRequest@CExtUI@@AEAAJPEAPEAU_IHV_UI_REQUEST@@@Z 0000000180034324     * CIL library *:* CIL module *
 0004:00000330       $pdata$1$?ReadUiRequest@CExtUI@@AEAAJPEAPEAU_IHV_UI_REQUEST@@@Z 0000000180034330     * CIL library *:* CIL module *
 0004:0000033c       $pdata$?WriteUiResponse@CExtUI@@AEAAJPEBU_IHV_CREDENTIAL@@@Z 000000018003433c     * CIL library *:* CIL module *
 0004:00000348       $pdata$0$?WriteUiResponse@CExtUI@@AEAAJPEBU_IHV_CREDENTIAL@@@Z 0000000180034348     * CIL library *:* CIL module *
 0004:00000354       $pdata$4$?WriteUiResponse@CExtUI@@AEAAJPEBU_IHV_CREDENTIAL@@@Z 0000000180034354     * CIL library *:* CIL module *
 0004:00000360       $pdata$5$?WriteUiResponse@CExtUI@@AEAAJPEBU_IHV_CREDENTIAL@@@Z 0000000180034360     * CIL library *:* CIL module *
 0004:0000036c       $pdata$6$?WriteUiResponse@CExtUI@@AEAAJPEBU_IHV_CREDENTIAL@@@Z 000000018003436c     * CIL library *:* CIL module *
 0004:00000378       $pdata$?AddPages@CExtUI@@UEAAJPEAPEAU_PSP@@IPEAI@Z 0000000180034378     * CIL library *:* CIL module *
 0004:00000384       $pdata$?GetClsidPropertyName@CExtUI@@AEAAJPEBU_GUID@@PEB_WPEA_WI@Z 0000000180034384     * CIL library *:* CIL module *
 0004:00000390       $pdata$0$?GetClsidPropertyName@CExtUI@@AEAAJPEBU_GUID@@PEB_WPEA_WI@Z 0000000180034390     * CIL library *:* CIL module *
 0004:0000039c       $pdata$3$?GetClsidPropertyName@CExtUI@@AEAAJPEBU_GUID@@PEB_WPEA_WI@Z 000000018003439c     * CIL library *:* CIL module *
 0004:000003a8       $pdata$4$?GetClsidPropertyName@CExtUI@@AEAAJPEBU_GUID@@PEB_WPEA_WI@Z 00000001800343a8     * CIL library *:* CIL module *
 0004:000003b4       $pdata$5$?GetClsidPropertyName@CExtUI@@AEAAJPEBU_GUID@@PEB_WPEA_WI@Z 00000001800343b4     * CIL library *:* CIL module *
 0004:000003c0       $pdata$??1CExtUIKey@@QEAA@XZ 00000001800343c0     * CIL library *:* CIL module *
 0004:000003cc       $pdata$0$??1CExtUIKey@@QEAA@XZ 00000001800343cc     * CIL library *:* CIL module *
 0004:000003d8       $pdata$1$??1CExtUIKey@@QEAA@XZ 00000001800343d8     * CIL library *:* CIL module *
 0004:000003e4       $pdata$?Customize@CExtUIKey@@UEAAJPEAE@Z 00000001800343e4     * CIL library *:* CIL module *
 0004:000003f0       $pdata$4$?Customize@CExtUIKey@@UEAAJPEAE@Z 00000001800343f0     * CIL library *:* CIL module *
 0004:000003fc       $pdata$5$?Customize@CExtUIKey@@UEAAJPEAE@Z 00000001800343fc     * CIL library *:* CIL module *
 0004:00000408       $pdata$?GetDot11ExtUIPropertyFriendlyName@CExtUIKey@@UEAAJPEAPEA_W@Z 0000000180034408     * CIL library *:* CIL module *
 0004:00000414       $pdata$?Dot11ExtUIPropertyGetSelected@CExtUISec@@UEAAJPEA_WPEAU_DOT11EXT_IHV_PARAMS@@PEAH@Z 0000000180034414     * CIL library *:* CIL module *
 0004:00000414       $pdata$?Dot11ExtUIPropertyGetSelected@CExtUIKey@@UEAAJPEA_WPEAU_DOT11EXT_IHV_PARAMS@@PEAH@Z 0000000180034414     * CIL library *:* CIL module *
 0004:00000420       $pdata$?Dot11ExtUIPropertySetSelected@CExtUIKey@@UEAAJPEA_WPEAU_DOT11EXT_IHV_PARAMS@@PEAPEA_WPEAH@Z 0000000180034420     * CIL library *:* CIL module *
 0004:0000042c       $pdata$?Dot11ExtUIPropertyGetDisplayInfo@CExtUIKey@@UEAAJW4_DOT11_EXT_UI_DISPLAY_INFO_TYPE@@PEA_WPEAU_DOT11EXT_IHV_PARAMS@@PEAK3PEAPEAU_DOT11_EXT_UI_PROPERTY_DISPLAY_INFO@@@Z 000000018003442c     * CIL library *:* CIL module *
 0004:00000438       $pdata$?Dot11ExtUIPropertySetDisplayInfo@CExtUISec@@UEAAJW4_DOT11_EXT_UI_DISPLAY_INFO_TYPE@@PEA_WPEAU_DOT11EXT_IHV_PARAMS@@PEAU_DOT11_EXT_UI_PROPERTY_DISPLAY_INFO@@PEAPEA_WPEAH@Z 0000000180034438     * CIL library *:* CIL module *
 0004:00000438       $pdata$?Dot11ExtUIPropertySetDisplayInfo@CExtUIKey@@UEAAJW4_DOT11_EXT_UI_DISPLAY_INFO_TYPE@@PEA_WPEAU_DOT11EXT_IHV_PARAMS@@PEAU_DOT11_EXT_UI_PROPERTY_DISPLAY_INFO@@PEAPEA_WPEAH@Z 0000000180034438     * CIL library *:* CIL module *
 0004:00000444       $pdata$??1CExtUISec@@QEAA@XZ 0000000180034444     * CIL library *:* CIL module *
 0004:00000450       $pdata$0$??1CExtUISec@@QEAA@XZ 0000000180034450     * CIL library *:* CIL module *
 0004:0000045c       $pdata$1$??1CExtUISec@@QEAA@XZ 000000018003445c     * CIL library *:* CIL module *
 0004:00000468       $pdata$?Customize@CExtUISec@@QEAAJPEAE@Z 0000000180034468     * CIL library *:* CIL module *
 0004:00000474       $pdata$4$?Customize@CExtUISec@@QEAAJPEAE@Z 0000000180034474     * CIL library *:* CIL module *
 0004:00000480       $pdata$5$?Customize@CExtUISec@@QEAAJPEAE@Z 0000000180034480     * CIL library *:* CIL module *
 0004:0000048c       $pdata$?GetDot11ExtUIPropertyFriendlyName@CExtUISec@@UEAAJPEAPEA_W@Z 000000018003448c     * CIL library *:* CIL module *
 0004:00000498       $pdata$?Dot11ExtUIPropertySetSelected@CExtUISec@@UEAAJPEA_WPEAU_DOT11EXT_IHV_PARAMS@@PEAPEA_WPEAH@Z 0000000180034498     * CIL library *:* CIL module *
 0004:000004a4       $pdata$?Dot11ExtUIPropertyGetDisplayInfo@CExtUISec@@UEAAJW4_DOT11_EXT_UI_DISPLAY_INFO_TYPE@@PEA_WPEAU_DOT11EXT_IHV_PARAMS@@PEAK3PEAPEAU_DOT11_EXT_UI_PROPERTY_DISPLAY_INFO@@@Z 00000001800344a4     * CIL library *:* CIL module *
 0004:000004b0       $pdata$?Notify_IsValid@WapiKeyInputDlg@@UEAAXH@Z 00000001800344b0     * CIL library *:* CIL module *
 0004:000004bc       $pdata$?DisplayDot11ExtUIProperty@CExtUISec@@UEAAJPEAUHWND__@@PEA_WPEAU_DOT11EXT_IHV_PARAMS@@PEAPEA_WPEAH@Z 00000001800344bc     * CIL library *:* CIL module *
 0004:000004c8       $pdata$?GetDot11ExtUIPropertyFriendlyName@CExtUICon@@UEAAJPEAPEA_W@Z 00000001800344c8     * CIL library *:* CIL module *
 0004:000004d4       $pdata$?MessageBoxW@@YAHPEAUHWND__@@III@Z 00000001800344d4     * CIL library *:* CIL module *
 0004:000004e0       $pdata$?DisplayDot11ExtUIProperty@CExtUICon@@UEAAJPEAUHWND__@@PEA_WPEAU_DOT11EXT_IHV_PARAMS@@PEAPEA_WPEAH@Z 00000001800344e0     * CIL library *:* CIL module *
 0004:000004ec       $pdata$?CreateConnFragment@CExtUICon@@AEAAPEA_WPEA_W0@Z 00000001800344ec     * CIL library *:* CIL module *
 0004:000004f8       $pdata$0$?CreateConnFragment@CExtUICon@@AEAAPEA_WPEA_W0@Z 00000001800344f8     * CIL library *:* CIL module *
 0004:00000504       $pdata$3$?CreateConnFragment@CExtUICon@@AEAAPEA_WPEA_W0@Z 0000000180034504     * CIL library *:* CIL module *
 0004:00000510       $pdata$5$?CreateConnFragment@CExtUICon@@AEAAPEA_WPEA_W0@Z 0000000180034510     * CIL library *:* CIL module *
 0004:0000051c       $pdata$6$?CreateConnFragment@CExtUICon@@AEAAPEA_WPEA_W0@Z 000000018003451c     * CIL library *:* CIL module *
 0004:00000528       $pdata$7$?CreateConnFragment@CExtUICon@@AEAAPEA_WPEA_W0@Z 0000000180034528     * CIL library *:* CIL module *
 0004:00000534       $pdata$8$?CreateConnFragment@CExtUICon@@AEAAPEA_WPEA_W0@Z 0000000180034534     * CIL library *:* CIL module *
 0004:00000540       $pdata$??1?$basic_string@_WU?$char_traits@_W@std@@V?$allocator@_W@2@@std@@QEAA@XZ 0000000180034540     * CIL library *:* CIL module *
 0004:0000054c       $pdata$?assign@?$basic_string@DU?$char_traits@D@std@@V?$allocator@D@2@@std@@QEAAAEAV12@AEBV12@_K1@Z 000000018003454c     * CIL library *:* CIL module *
 0004:00000558       $pdata$?_Tidy@?$basic_string@_WU?$char_traits@_W@std@@V?$allocator@_W@2@@std@@QEAAX_N_K@Z 0000000180034558     * CIL library *:* CIL module *
 0004:00000564       $pdata$0$?_Tidy@?$basic_string@_WU?$char_traits@_W@std@@V?$allocator@_W@2@@std@@QEAAX_N_K@Z 0000000180034564     * CIL library *:* CIL module *
 0004:00000570       $pdata$1$?_Tidy@?$basic_string@_WU?$char_traits@_W@std@@V?$allocator@_W@2@@std@@QEAAX_N_K@Z 0000000180034570     * CIL library *:* CIL module *
 0004:0000057c       $pdata$?assign@?$basic_string@DU?$char_traits@D@std@@V?$allocator@D@2@@std@@QEAAAEAV12@PEBD_K@Z 000000018003457c     * CIL library *:* CIL module *
 0004:00000588       $pdata$?erase@?$basic_string@DU?$char_traits@D@std@@V?$allocator@D@2@@std@@QEAAAEAV12@_K0@Z 0000000180034588     * CIL library *:* CIL module *
 0004:00000594       $pdata$?_Copy@?$basic_string@DU?$char_traits@D@std@@V?$allocator@D@2@@std@@QEAAX_K0@Z 0000000180034594     * CIL library *:* CIL module *
 0004:000005a0       $pdata$??$GetCredentialDlgProc@VWapiKeyInputPropDlg@@@CExtUI@@CA_JPEAUHWND__@@I_K_J@Z 00000001800345a0     * CIL library *:* CIL module *
 0004:000005ac       $pdata$0$??$GetCredentialDlgProc@VWapiKeyInputPropDlg@@@CExtUI@@CA_JPEAUHWND__@@I_K_J@Z 00000001800345ac     * CIL library *:* CIL module *
 0004:000005b8       $pdata$1$??$GetCredentialDlgProc@VWapiKeyInputPropDlg@@@CExtUI@@CA_JPEAUHWND__@@I_K_J@Z 00000001800345b8     * CIL library *:* CIL module *
 0004:000005c4       $pdata$2$??$GetCredentialDlgProc@VWapiKeyInputPropDlg@@@CExtUI@@CA_JPEAUHWND__@@I_K_J@Z 00000001800345c4     * CIL library *:* CIL module *
 0004:000005d0       $pdata$3$??$GetCredentialDlgProc@VWapiKeyInputPropDlg@@@CExtUI@@CA_JPEAUHWND__@@I_K_J@Z 00000001800345d0     * CIL library *:* CIL module *
 0004:000005dc       $pdata$4$??$GetCredentialDlgProc@VWapiKeyInputPropDlg@@@CExtUI@@CA_JPEAUHWND__@@I_K_J@Z 00000001800345dc     * CIL library *:* CIL module *
 0004:000005e8       $pdata$5$??$GetCredentialDlgProc@VWapiKeyInputPropDlg@@@CExtUI@@CA_JPEAUHWND__@@I_K_J@Z 00000001800345e8     * CIL library *:* CIL module *
 0004:000005f4       $pdata$6$??$GetCredentialDlgProc@VWapiKeyInputPropDlg@@@CExtUI@@CA_JPEAUHWND__@@I_K_J@Z 00000001800345f4     * CIL library *:* CIL module *
 0004:00000600       $pdata$7$??$GetCredentialDlgProc@VWapiKeyInputPropDlg@@@CExtUI@@CA_JPEAUHWND__@@I_K_J@Z 0000000180034600     * CIL library *:* CIL module *
 0004:0000060c       $pdata$??$GetCredentialDlgProc@VWapiCertPropDlg@@@CExtUI@@CA_JPEAUHWND__@@I_K_J@Z 000000018003460c     * CIL library *:* CIL module *
 0004:00000618       $pdata$??$GetThis@VCExtUI@@@@YAPEAVCExtUI@@PEAUHWND__@@I_K_J@Z 0000000180034618     * CIL library *:* CIL module *
 0004:00000624       $pdata$?LaunchDialog@ConnConfigDlg@@SAHPEAUHINSTANCE__@@PEAUHWND__@@PEAVDPTProfile@@H@Z 0000000180034624     * CIL library *:* CIL module *
 0004:00000630       $pdata$?DialogProc@ConnConfigDlg@@SA_JPEAUHWND__@@I_K_J@Z 0000000180034630     * CIL library *:* CIL module *
 0004:0000063c       $pdata$0$?DialogProc@ConnConfigDlg@@SA_JPEAUHWND__@@I_K_J@Z 000000018003463c     * CIL library *:* CIL module *
 0004:00000648       $pdata$2$?DialogProc@ConnConfigDlg@@SA_JPEAUHWND__@@I_K_J@Z 0000000180034648     * CIL library *:* CIL module *
 0004:00000654       $pdata$4$?DialogProc@ConnConfigDlg@@SA_JPEAUHWND__@@I_K_J@Z 0000000180034654     * CIL library *:* CIL module *
 0004:00000660       $pdata$6$?DialogProc@ConnConfigDlg@@SA_JPEAUHWND__@@I_K_J@Z 0000000180034660     * CIL library *:* CIL module *
 0004:0000066c       $pdata$8$?DialogProc@ConnConfigDlg@@SA_JPEAUHWND__@@I_K_J@Z 000000018003466c     * CIL library *:* CIL module *
 0004:00000678       $pdata$10$?DialogProc@ConnConfigDlg@@SA_JPEAUHWND__@@I_K_J@Z 0000000180034678     * CIL library *:* CIL module *
 0004:00000684       $pdata$11$?DialogProc@ConnConfigDlg@@SA_JPEAUHWND__@@I_K_J@Z 0000000180034684     * CIL library *:* CIL module *
 0004:00000690       $pdata$?OnInitDialog@ConnConfigDlg@@UEAAHPEAUHWND__@@@Z 0000000180034690     * CIL library *:* CIL module *
 0004:0000069c       $pdata$?Refresh@ConnConfigDlg@@UEAAXXZ 000000018003469c     * CIL library *:* CIL module *
 0004:000006a8       $pdata$0$?Refresh@ConnConfigDlg@@UEAAXXZ 00000001800346a8     * CIL library *:* CIL module *
 0004:000006b4       $pdata$1$?Refresh@ConnConfigDlg@@UEAAXXZ 00000001800346b4     * CIL library *:* CIL module *
 0004:000006c0       $pdata$2$?Refresh@ConnConfigDlg@@UEAAXXZ 00000001800346c0     * CIL library *:* CIL module *
 0004:000006cc       $pdata$3$?Refresh@ConnConfigDlg@@UEAAXXZ 00000001800346cc     * CIL library *:* CIL module *
 0004:000006d8       $pdata$?SelectEditGroup@ConnConfigDlg@@AEAAXH@Z 00000001800346d8     * CIL library *:* CIL module *
 0004:000006e4       $pdata$?OnHideChars@ConnConfigDlg@@UEAAXXZ 00000001800346e4     * CIL library *:* CIL module *
 0004:000006f0       $pdata$?OnOK@ConnConfigDlg@@UEAAXXZ 00000001800346f0     * CIL library *:* CIL module *
 0004:000006fc       $pdata$?BinaryToHexRawString@@YAPEA_WQEAEK@Z 00000001800346fc     * CIL library *:* CIL module *
 0004:00000708       $pdata$?HexRawStringToBinary@@YAPEAEPEB_WPEAK@Z 0000000180034708     * CIL library *:* CIL module *
 0004:00000714       $pdata$?IsCertificateExpired@@YAHPEBU_CERT_CONTEXT@@@Z 0000000180034714     * CIL library *:* CIL module *
 0004:00000720       $pdata$?GetCertificateExpiresOn@@YAHPEBU_CERT_CONTEXT@@PEA_WHPEAH@Z 0000000180034720     * CIL library *:* CIL module *
 0004:0000072c       $pdata$?GetCertificateDisplayInfo@@YAHPEBU_CERT_CONTEXT@@PEAPEAU_CERT_DISPLAY_INFO@@@Z 000000018003472c     * CIL library *:* CIL module *
 0004:00000738       $pdata$1$?GetCertificateDisplayInfo@@YAHPEBU_CERT_CONTEXT@@PEAPEAU_CERT_DISPLAY_INFO@@@Z 0000000180034738     * CIL library *:* CIL module *
 0004:00000744       $pdata$2$?GetCertificateDisplayInfo@@YAHPEBU_CERT_CONTEXT@@PEAPEAU_CERT_DISPLAY_INFO@@@Z 0000000180034744     * CIL library *:* CIL module *
 0004:00000750       $pdata$3$?GetCertificateDisplayInfo@@YAHPEBU_CERT_CONTEXT@@PEAPEAU_CERT_DISPLAY_INFO@@@Z 0000000180034750     * CIL library *:* CIL module *
 0004:0000075c       $pdata$4$?GetCertificateDisplayInfo@@YAHPEBU_CERT_CONTEXT@@PEAPEAU_CERT_DISPLAY_INFO@@@Z 000000018003475c     * CIL library *:* CIL module *
 0004:00000768       $pdata$?FreeCertificateDisplayInfo@@YAXPEAU_CERT_DISPLAY_INFO@@@Z 0000000180034768     * CIL library *:* CIL module *
 0004:00000774       $pdata$0$?FreeCertificateDisplayInfo@@YAXPEAU_CERT_DISPLAY_INFO@@@Z 0000000180034774     * CIL library *:* CIL module *
 0004:00000780       $pdata$1$?FreeCertificateDisplayInfo@@YAXPEAU_CERT_DISPLAY_INFO@@@Z 0000000180034780     * CIL library *:* CIL module *
 0004:0000078c       $pdata$?xmlSet@DPTProfile@@QEAAXPEAUIXMLDOMDocument@@PEA_W@Z 000000018003478c     * CIL library *:* CIL module *
 0004:00000798       $pdata$?xmlSet@DPTProfile@@QEAAXPEB_W@Z 0000000180034798     * CIL library *:* CIL module *
 0004:000007a4       $pdata$?xmlGet@DPTProfile@@QEAAPEA_WPEAUIXMLDOMDocument@@@Z 00000001800347a4     * CIL library *:* CIL module *
 0004:000007b0       $pdata$?xmlGet@DPTProfile@@QEAAPEA_WXZ 00000001800347b0     * CIL library *:* CIL module *
 0004:000007bc       $pdata$?DPTKey2Hex@DPTProfile@@SAPEA_WPEA_W@Z 00000001800347bc     * CIL library *:* CIL module *
 0004:000007c8       $pdata$0$?DPTKey2Hex@DPTProfile@@SAPEA_WPEA_W@Z 00000001800347c8     * CIL library *:* CIL module *
 0004:000007d4       $pdata$2$?DPTKey2Hex@DPTProfile@@SAPEA_WPEA_W@Z 00000001800347d4     * CIL library *:* CIL module *
 0004:000007e0       $pdata$3$?DPTKey2Hex@DPTProfile@@SAPEA_WPEA_W@Z 00000001800347e0     * CIL library *:* CIL module *
 0004:000007ec       $pdata$4$?DPTKey2Hex@DPTProfile@@SAPEA_WPEA_W@Z 00000001800347ec     * CIL library *:* CIL module *
 0004:000007f8       $pdata$?HexString2Byte@DPTProfile@@SAPEAEPEB_WPEAK@Z 00000001800347f8     * CIL library *:* CIL module *
 0004:00000804       $pdata$3$?HexString2Byte@DPTProfile@@SAPEAEPEB_WPEAK@Z 0000000180034804     * CIL library *:* CIL module *
 0004:00000810       $pdata$4$?HexString2Byte@DPTProfile@@SAPEAEPEB_WPEAK@Z 0000000180034810     * CIL library *:* CIL module *
 0004:0000081c       $pdata$5$?HexString2Byte@DPTProfile@@SAPEAEPEB_WPEAK@Z 000000018003481c     * CIL library *:* CIL module *
 0004:00000828       $pdata$?Hex2DPTKey@DPTProfile@@SAPEA_WPEB_W@Z 0000000180034828     * CIL library *:* CIL module *
 0004:00000834       $pdata$1$?Hex2DPTKey@DPTProfile@@SAPEA_WPEB_W@Z 0000000180034834     * CIL library *:* CIL module *
 0004:00000840       $pdata$2$?Hex2DPTKey@DPTProfile@@SAPEA_WPEB_W@Z 0000000180034840     * CIL library *:* CIL module *
 0004:0000084c       $pdata$?GetProfileFragment@DPTProfile@@SAPEA_WPEB_W0@Z 000000018003484c     * CIL library *:* CIL module *
 0004:00000858       $pdata$0$?GetProfileFragment@DPTProfile@@SAPEA_WPEB_W0@Z 0000000180034858     * CIL library *:* CIL module *
 0004:00000864       $pdata$1$?GetProfileFragment@DPTProfile@@SAPEA_WPEB_W0@Z 0000000180034864     * CIL library *:* CIL module *
 0004:00000870       $pdata$2$?GetProfileFragment@DPTProfile@@SAPEA_WPEB_W0@Z 0000000180034870     * CIL library *:* CIL module *
 0004:0000087c       $pdata$3$?GetProfileFragment@DPTProfile@@SAPEA_WPEB_W0@Z 000000018003487c     * CIL library *:* CIL module *
 0004:00000888       $pdata$4$?GetProfileFragment@DPTProfile@@SAPEA_WPEB_W0@Z 0000000180034888     * CIL library *:* CIL module *
 0004:00000894       $pdata$5$?GetProfileFragment@DPTProfile@@SAPEA_WPEB_W0@Z 0000000180034894     * CIL library *:* CIL module *
 0004:000008a0       $pdata$?DecryptDPTKey@DPTUtils@@YAPEA_WPEAEK@Z 00000001800348a0     * CIL library *:* CIL module *
 0004:000008ac       $pdata$2$?DecryptDPTKey@DPTUtils@@YAPEA_WPEAEK@Z 00000001800348ac     * CIL library *:* CIL module *
 0004:000008b8       $pdata$3$?DecryptDPTKey@DPTUtils@@YAPEA_WPEAEK@Z 00000001800348b8     * CIL library *:* CIL module *
 0004:000008c4       $pdata$?OpenDriverRegKey@DriverReg@@YAHPEA_WKAEAPEAUHKEY__@@@Z 00000001800348c4     * CIL library *:* CIL module *
 0004:000008d0       $pdata$1$?OpenDriverRegKey@DriverReg@@YAHPEA_WKAEAPEAUHKEY__@@@Z 00000001800348d0     * CIL library *:* CIL module *
 0004:000008dc       $pdata$2$?OpenDriverRegKey@DriverReg@@YAHPEA_WKAEAPEAUHKEY__@@@Z 00000001800348dc     * CIL library *:* CIL module *
 0004:000008e8       $pdata$3$?OpenDriverRegKey@DriverReg@@YAHPEA_WKAEAPEAUHKEY__@@@Z 00000001800348e8     * CIL library *:* CIL module *
 0004:000008f4       $pdata$4$?OpenDriverRegKey@DriverReg@@YAHPEA_WKAEAPEAUHKEY__@@@Z 00000001800348f4     * CIL library *:* CIL module *
 0004:00000900       $pdata$5$?OpenDriverRegKey@DriverReg@@YAHPEA_WKAEAPEAUHKEY__@@@Z 0000000180034900     * CIL library *:* CIL module *
 0004:0000090c       $pdata$6$?OpenDriverRegKey@DriverReg@@YAHPEA_WKAEAPEAUHKEY__@@@Z 000000018003490c     * CIL library *:* CIL module *
 0004:00000918       $pdata$7$?OpenDriverRegKey@DriverReg@@YAHPEA_WKAEAPEAUHKEY__@@@Z 0000000180034918     * CIL library *:* CIL module *
 0004:00000924       $pdata$8$?OpenDriverRegKey@DriverReg@@YAHPEA_WKAEAPEAUHKEY__@@@Z 0000000180034924     * CIL library *:* CIL module *
 0004:00000930       $pdata$?IsDPTAvailable@DriverReg@@YAHPEBU_GUID@@@Z 0000000180034930     * CIL library *:* CIL module *
 0004:0000093c       $pdata$0$?IsDPTAvailable@DriverReg@@YAHPEBU_GUID@@@Z 000000018003493c     * CIL library *:* CIL module *
 0004:00000948       $pdata$1$?IsDPTAvailable@DriverReg@@YAHPEBU_GUID@@@Z 0000000180034948     * CIL library *:* CIL module *
 0004:00000954       $pdata$?EnumStrings@@YAHPEAUHINSTANCE__@@KP6AXPEA_WK@Z@Z 0000000180034954     * CIL library *:* CIL module *
 0004:00000960       $pdata$?EnumResNameProc@@YAHPEAUHINSTANCE__@@PEB_WPEA_W_J@Z 0000000180034960     * CIL library *:* CIL module *
 0004:0000096c       $pdata$?BuildStringMap@@YAXPEAUHINSTANCE__@@@Z 000000018003496c     * CIL library *:* CIL module *
 0004:00000978       $pdata$?DestroyStringMap@@YAXXZ 0000000180034978     * CIL library *:* CIL module *
 0004:00000984       $pdata$2$?DestroyStringMap@@YAXXZ 0000000180034984     * CIL library *:* CIL module *
 0004:00000990       $pdata$3$?DestroyStringMap@@YAXXZ 0000000180034990     * CIL library *:* CIL module *
 0004:0000099c       $pdata$?HasDots@@YAHPEA_W@Z 000000018003499c     * CIL library *:* CIL module *
 0004:000009a8       $pdata$0$?HasDots@@YAHPEA_W@Z 00000001800349a8     * CIL library *:* CIL module *
 0004:000009b4       $pdata$2$?HasDots@@YAHPEA_W@Z 00000001800349b4     * CIL library *:* CIL module *
 0004:000009c0       $pdata$3$?HasDots@@YAHPEA_W@Z 00000001800349c0     * CIL library *:* CIL module *
 0004:000009cc       $pdata$?TranslateString@@YA?AV?$basic_string@_WU?$char_traits@_W@std@@V?$allocator@_W@2@@std@@PEA_WH@Z 00000001800349cc     * CIL library *:* CIL module *
 0004:000009d8       $pdata$?LocalizeDialog@@YAXPEAUHWND__@@H@Z 00000001800349d8     * CIL library *:* CIL module *
 0004:000009e4       $pdata$??0?$basic_string@_WU?$char_traits@_W@std@@V?$allocator@_W@2@@std@@QEAA@PEB_W@Z 00000001800349e4     * CIL library *:* CIL module *
 0004:000009f0       $pdata$??A?$map@V?$basic_string@_WU?$char_traits@_W@std@@V?$allocator@_W@2@@std@@HU?$less@V?$basic_string@_WU?$char_traits@_W@std@@V?$allocator@_W@2@@std@@@2@V?$allocator@U?$pair@$$CBV?$basic_string@_WU?$char_traits@_W@std@@V?$allocator@_W@2@@std@@H@std@@@2@@std@@QEAAAEAHAEBV?$basic_string@_WU?$char_traits@_W@std@@V?$allocator@_W@2@@1@@Z 00000001800349f0     * CIL library *:* CIL module *
 0004:000009fc       $pdata$?_Assign_rv@?$basic_string@_WU?$char_traits@_W@std@@V?$allocator@_W@2@@std@@QEAAX$$QEAV12@@Z 00000001800349fc     * CIL library *:* CIL module *
 0004:00000a08       $pdata$?_Erase@?$_Tree@V?$_Tmap_traits@V?$basic_string@_WU?$char_traits@_W@std@@V?$allocator@_W@2@@std@@HU?$less@V?$basic_string@_WU?$char_traits@_W@std@@V?$allocator@_W@2@@std@@@2@V?$allocator@U?$pair@$$CBV?$basic_string@_WU?$char_traits@_W@std@@V?$allocator@_W@2@@std@@H@std@@@2@$0A@@std@@@std@@IEAAXPEAU?$_Tree_node@U?$pair@$$CBV?$basic_string@_WU?$char_traits@_W@std@@V?$allocator@_W@2@@std@@H@std@@PEAX@2@@Z 0000000180034a08     * CIL library *:* CIL module *
 0004:00000a14       $pdata$0$?_Erase@?$_Tree@V?$_Tmap_traits@V?$basic_string@_WU?$char_traits@_W@std@@V?$allocator@_W@2@@std@@HU?$less@V?$basic_string@_WU?$char_traits@_W@std@@V?$allocator@_W@2@@std@@@2@V?$allocator@U?$pair@$$CBV?$basic_string@_WU?$char_traits@_W@std@@V?$allocator@_W@2@@std@@H@std@@@2@$0A@@std@@@std@@IEAAXPEAU?$_Tree_node@U?$pair@$$CBV?$basic_string@_WU?$char_traits@_W@std@@V?$allocator@_W@2@@std@@H@std@@PEAX@2@@Z 0000000180034a14     * CIL library *:* CIL module *
 0004:00000a20       $pdata$1$?_Erase@?$_Tree@V?$_Tmap_traits@V?$basic_string@_WU?$char_traits@_W@std@@V?$allocator@_W@2@@std@@HU?$less@V?$basic_string@_WU?$char_traits@_W@std@@V?$allocator@_W@2@@std@@@2@V?$allocator@U?$pair@$$CBV?$basic_string@_WU?$char_traits@_W@std@@V?$allocator@_W@2@@std@@H@std@@@2@$0A@@std@@@std@@IEAAXPEAU?$_Tree_node@U?$pair@$$CBV?$basic_string@_WU?$char_traits@_W@std@@V?$allocator@_W@2@@std@@H@std@@PEAX@2@@Z 0000000180034a20     * CIL library *:* CIL module *
 0004:00000a2c       $pdata$?assign@?$basic_string@_WU?$char_traits@_W@std@@V?$allocator@_W@2@@std@@QEAAAEAV12@AEBV12@_K1@Z 0000000180034a2c     * CIL library *:* CIL module *
 0004:00000a38       $pdata$?assign@?$basic_string@_WU?$char_traits@_W@std@@V?$allocator@_W@2@@std@@QEAAAEAV12@PEB_W_K@Z 0000000180034a38     * CIL library *:* CIL module *
 0004:00000a44       $pdata$?erase@?$_Tree@V?$_Tmap_traits@V?$basic_string@_WU?$char_traits@_W@std@@V?$allocator@_W@2@@std@@HU?$less@V?$basic_string@_WU?$char_traits@_W@std@@V?$allocator@_W@2@@std@@@2@V?$allocator@U?$pair@$$CBV?$basic_string@_WU?$char_traits@_W@std@@V?$allocator@_W@2@@std@@H@std@@@2@$0A@@std@@@std@@QEAA?AV?$_Tree_iterator@V?$_Tree_val@U?$_Tree_simple_types@U?$pair@$$CBV?$basic_string@_WU?$char_traits@_W@std@@V?$allocator@_W@2@@std@@H@std@@@std@@@std@@@2@V?$_Tree_const_iterator@V?$_Tree_val@U?$_Tree_simple_types@U?$pair@$$CBV?$basic_string@_WU?$char_traits@_W@std@@V?$allocator@_W@2@@std@@H@std@@@std@@@std@@@2@0@Z 0000000180034a44     * CIL library *:* CIL module *
 0004:00000a50       $pdata$?_Lbound@?$_Tree@V?$_Tmap_traits@V?$basic_string@_WU?$char_traits@_W@std@@V?$allocator@_W@2@@std@@HU?$less@V?$basic_string@_WU?$char_traits@_W@std@@V?$allocator@_W@2@@std@@@2@V?$allocator@U?$pair@$$CBV?$basic_string@_WU?$char_traits@_W@std@@V?$allocator@_W@2@@std@@H@std@@@2@$0A@@std@@@std@@IEAAPEAU?$_Tree_node@U?$pair@$$CBV?$basic_string@_WU?$char_traits@_W@std@@V?$allocator@_W@2@@std@@H@std@@PEAX@2@AEBV?$basic_string@_WU?$char_traits@_W@std@@V?$allocator@_W@2@@2@@Z 0000000180034a50     * CIL library *:* CIL module *
 0004:00000a5c       $pdata$1$?_Lbound@?$_Tree@V?$_Tmap_traits@V?$basic_string@_WU?$char_traits@_W@std@@V?$allocator@_W@2@@std@@HU?$less@V?$basic_string@_WU?$char_traits@_W@std@@V?$allocator@_W@2@@std@@@2@V?$allocator@U?$pair@$$CBV?$basic_string@_WU?$char_traits@_W@std@@V?$allocator@_W@2@@std@@H@std@@@2@$0A@@std@@@std@@IEAAPEAU?$_Tree_node@U?$pair@$$CBV?$basic_string@_WU?$char_traits@_W@std@@V?$allocator@_W@2@@std@@H@std@@PEAX@2@AEBV?$basic_string@_WU?$char_traits@_W@std@@V?$allocator@_W@2@@2@@Z 0000000180034a5c     * CIL library *:* CIL module *
 0004:00000a68       $pdata$2$?_Lbound@?$_Tree@V?$_Tmap_traits@V?$basic_string@_WU?$char_traits@_W@std@@V?$allocator@_W@2@@std@@HU?$less@V?$basic_string@_WU?$char_traits@_W@std@@V?$allocator@_W@2@@std@@@2@V?$allocator@U?$pair@$$CBV?$basic_string@_WU?$char_traits@_W@std@@V?$allocator@_W@2@@std@@H@std@@@2@$0A@@std@@@std@@IEAAPEAU?$_Tree_node@U?$pair@$$CBV?$basic_string@_WU?$char_traits@_W@std@@V?$allocator@_W@2@@std@@H@std@@PEAX@2@AEBV?$basic_string@_WU?$char_traits@_W@std@@V?$allocator@_W@2@@2@@Z 0000000180034a68     * CIL library *:* CIL module *
 0004:00000a74       $pdata$?erase@?$basic_string@_WU?$char_traits@_W@std@@V?$allocator@_W@2@@std@@QEAAAEAV12@_K0@Z 0000000180034a74     * CIL library *:* CIL module *
 0004:00000a80       $pdata$?_Grow@?$basic_string@_WU?$char_traits@_W@std@@V?$allocator@_W@2@@std@@QEAA_N_K_N@Z 0000000180034a80     * CIL library *:* CIL module *
 0004:00000a8c       $pdata$0$?_Grow@?$basic_string@_WU?$char_traits@_W@std@@V?$allocator@_W@2@@std@@QEAA_N_K_N@Z 0000000180034a8c     * CIL library *:* CIL module *
 0004:00000a98       $pdata$1$?_Grow@?$basic_string@_WU?$char_traits@_W@std@@V?$allocator@_W@2@@std@@QEAA_N_K_N@Z 0000000180034a98     * CIL library *:* CIL module *
 0004:00000aa4       $pdata$2$?_Grow@?$basic_string@_WU?$char_traits@_W@std@@V?$allocator@_W@2@@std@@QEAA_N_K_N@Z 0000000180034aa4     * CIL library *:* CIL module *
 0004:00000ab0       $pdata$3$?_Grow@?$basic_string@_WU?$char_traits@_W@std@@V?$allocator@_W@2@@std@@QEAA_N_K_N@Z 0000000180034ab0     * CIL library *:* CIL module *
 0004:00000abc       $pdata$4$?_Grow@?$basic_string@_WU?$char_traits@_W@std@@V?$allocator@_W@2@@std@@QEAA_N_K_N@Z 0000000180034abc     * CIL library *:* CIL module *
 0004:00000ac8       $pdata$5$?_Grow@?$basic_string@_WU?$char_traits@_W@std@@V?$allocator@_W@2@@std@@QEAA_N_K_N@Z 0000000180034ac8     * CIL library *:* CIL module *
 0004:00000ad4       $pdata$?erase@?$_Tree@V?$_Tmap_traits@V?$basic_string@_WU?$char_traits@_W@std@@V?$allocator@_W@2@@std@@HU?$less@V?$basic_string@_WU?$char_traits@_W@std@@V?$allocator@_W@2@@std@@@2@V?$allocator@U?$pair@$$CBV?$basic_string@_WU?$char_traits@_W@std@@V?$allocator@_W@2@@std@@H@std@@@2@$0A@@std@@@std@@QEAA?AV?$_Tree_iterator@V?$_Tree_val@U?$_Tree_simple_types@U?$pair@$$CBV?$basic_string@_WU?$char_traits@_W@std@@V?$allocator@_W@2@@std@@H@std@@@std@@@std@@@2@V?$_Tree_const_iterator@V?$_Tree_val@U?$_Tree_simple_types@U?$pair@$$CBV?$basic_string@_WU?$char_traits@_W@std@@V?$allocator@_W@2@@std@@H@std@@@std@@@std@@@2@@Z 0000000180034ad4     * CIL library *:* CIL module *
 0004:00000ae0       $pdata$0$?erase@?$_Tree@V?$_Tmap_traits@V?$basic_string@_WU?$char_traits@_W@std@@V?$allocator@_W@2@@std@@HU?$less@V?$basic_string@_WU?$char_traits@_W@std@@V?$allocator@_W@2@@std@@@2@V?$allocator@U?$pair@$$CBV?$basic_string@_WU?$char_traits@_W@std@@V?$allocator@_W@2@@std@@H@std@@@2@$0A@@std@@@std@@QEAA?AV?$_Tree_iterator@V?$_Tree_val@U?$_Tree_simple_types@U?$pair@$$CBV?$basic_string@_WU?$char_traits@_W@std@@V?$allocator@_W@2@@std@@H@std@@@std@@@std@@@2@V?$_Tree_const_iterator@V?$_Tree_val@U?$_Tree_simple_types@U?$pair@$$CBV?$basic_string@_WU?$char_traits@_W@std@@V?$allocator@_W@2@@std@@H@std@@@std@@@std@@@2@@Z 0000000180034ae0     * CIL library *:* CIL module *
 0004:00000aec       $pdata$2$?erase@?$_Tree@V?$_Tmap_traits@V?$basic_string@_WU?$char_traits@_W@std@@V?$allocator@_W@2@@std@@HU?$less@V?$basic_string@_WU?$char_traits@_W@std@@V?$allocator@_W@2@@std@@@2@V?$allocator@U?$pair@$$CBV?$basic_string@_WU?$char_traits@_W@std@@V?$allocator@_W@2@@std@@H@std@@@2@$0A@@std@@@std@@QEAA?AV?$_Tree_iterator@V?$_Tree_val@U?$_Tree_simple_types@U?$pair@$$CBV?$basic_string@_WU?$char_traits@_W@std@@V?$allocator@_W@2@@std@@H@std@@@std@@@std@@@2@V?$_Tree_const_iterator@V?$_Tree_val@U?$_Tree_simple_types@U?$pair@$$CBV?$basic_string@_WU?$char_traits@_W@std@@V?$allocator@_W@2@@std@@H@std@@@std@@@std@@@2@@Z 0000000180034aec     * CIL library *:* CIL module *
 0004:00000af8       $pdata$3$?erase@?$_Tree@V?$_Tmap_traits@V?$basic_string@_WU?$char_traits@_W@std@@V?$allocator@_W@2@@std@@HU?$less@V?$basic_string@_WU?$char_traits@_W@std@@V?$allocator@_W@2@@std@@@2@V?$allocator@U?$pair@$$CBV?$basic_string@_WU?$char_traits@_W@std@@V?$allocator@_W@2@@std@@H@std@@@2@$0A@@std@@@std@@QEAA?AV?$_Tree_iterator@V?$_Tree_val@U?$_Tree_simple_types@U?$pair@$$CBV?$basic_string@_WU?$char_traits@_W@std@@V?$allocator@_W@2@@std@@H@std@@@std@@@std@@@2@V?$_Tree_const_iterator@V?$_Tree_val@U?$_Tree_simple_types@U?$pair@$$CBV?$basic_string@_WU?$char_traits@_W@std@@V?$allocator@_W@2@@std@@H@std@@@std@@@std@@@2@@Z 0000000180034af8     * CIL library *:* CIL module *
 0004:00000b04       $pdata$4$?erase@?$_Tree@V?$_Tmap_traits@V?$basic_string@_WU?$char_traits@_W@std@@V?$allocator@_W@2@@std@@HU?$less@V?$basic_string@_WU?$char_traits@_W@std@@V?$allocator@_W@2@@std@@@2@V?$allocator@U?$pair@$$CBV?$basic_string@_WU?$char_traits@_W@std@@V?$allocator@_W@2@@std@@H@std@@@2@$0A@@std@@@std@@QEAA?AV?$_Tree_iterator@V?$_Tree_val@U?$_Tree_simple_types@U?$pair@$$CBV?$basic_string@_WU?$char_traits@_W@std@@V?$allocator@_W@2@@std@@H@std@@@std@@@std@@@2@V?$_Tree_const_iterator@V?$_Tree_val@U?$_Tree_simple_types@U?$pair@$$CBV?$basic_string@_WU?$char_traits@_W@std@@V?$allocator@_W@2@@std@@H@std@@@std@@@std@@@2@@Z 0000000180034b04     * CIL library *:* CIL module *
 0004:00000b10       $pdata$?_Copy@?$basic_string@_WU?$char_traits@_W@std@@V?$allocator@_W@2@@std@@QEAAX_K0@Z 0000000180034b10     * CIL library *:* CIL module *
 0004:00000b1c       $pdata$?_Buyheadnode@?$_Tree_alloc@$0A@U?$_Tree_base_types@U?$pair@$$CBV?$basic_string@_WU?$char_traits@_W@std@@V?$allocator@_W@2@@std@@H@std@@V?$allocator@U?$pair@$$CBV?$basic_string@_WU?$char_traits@_W@std@@V?$allocator@_W@2@@std@@H@std@@@2@@std@@@std@@QEAAPEAU?$_Tree_node@U?$pair@$$CBV?$basic_string@_WU?$char_traits@_W@std@@V?$allocator@_W@2@@std@@H@std@@PEAX@2@XZ 0000000180034b1c     * CIL library *:* CIL module *
 0004:00000b28       $pdata$??$?H_WU?$char_traits@_W@std@@V?$allocator@_W@1@@std@@YA?AV?$basic_string@_WU?$char_traits@_W@std@@V?$allocator@_W@2@@0@AEBV10@PEB_W@Z 0000000180034b28     * CIL library *:* CIL module *
 0004:00000b34       $pdata$?compare@?$basic_string@_WU?$char_traits@_W@std@@V?$allocator@_W@2@@std@@QEBAHAEBV12@@Z 0000000180034b34     * CIL library *:* CIL module *
 0004:00000b40       $pdata$?append@?$basic_string@_WU?$char_traits@_W@std@@V?$allocator@_W@2@@std@@QEAAAEAV12@AEBV12@_K1@Z 0000000180034b40     * CIL library *:* CIL module *
 0004:00000b4c       $pdata$0$?append@?$basic_string@_WU?$char_traits@_W@std@@V?$allocator@_W@2@@std@@QEAAAEAV12@AEBV12@_K1@Z 0000000180034b4c     * CIL library *:* CIL module *
 0004:00000b58       $pdata$1$?append@?$basic_string@_WU?$char_traits@_W@std@@V?$allocator@_W@2@@std@@QEAAAEAV12@AEBV12@_K1@Z 0000000180034b58     * CIL library *:* CIL module *
 0004:00000b64       $pdata$2$?append@?$basic_string@_WU?$char_traits@_W@std@@V?$allocator@_W@2@@std@@QEAAAEAV12@AEBV12@_K1@Z 0000000180034b64     * CIL library *:* CIL module *
 0004:00000b70       $pdata$?append@?$basic_string@_WU?$char_traits@_W@std@@V?$allocator@_W@2@@std@@QEAAAEAV12@PEB_W_K@Z 0000000180034b70     * CIL library *:* CIL module *
 0004:00000b7c       $pdata$0$?append@?$basic_string@_WU?$char_traits@_W@std@@V?$allocator@_W@2@@std@@QEAAAEAV12@PEB_W_K@Z 0000000180034b7c     * CIL library *:* CIL module *
 0004:00000b88       $pdata$1$?append@?$basic_string@_WU?$char_traits@_W@std@@V?$allocator@_W@2@@std@@QEAAAEAV12@PEB_W_K@Z 0000000180034b88     * CIL library *:* CIL module *
 0004:00000b94       $pdata$2$?append@?$basic_string@_WU?$char_traits@_W@std@@V?$allocator@_W@2@@std@@QEAAAEAV12@PEB_W_K@Z 0000000180034b94     * CIL library *:* CIL module *
 0004:00000ba0       $pdata$??$_Buynode@AEBUpiecewise_construct_t@std@@V?$tuple@AEBV?$basic_string@_WU?$char_traits@_W@std@@V?$allocator@_W@2@@std@@@2@V?$tuple@$$$V@2@@?$_Tree_buy@U?$pair@$$CBV?$basic_string@_WU?$char_traits@_W@std@@V?$allocator@_W@2@@std@@H@std@@V?$allocator@U?$pair@$$CBV?$basic_string@_WU?$char_traits@_W@std@@V?$allocator@_W@2@@std@@H@std@@@2@@std@@QEAAPEAU?$_Tree_node@U?$pair@$$CBV?$basic_string@_WU?$char_traits@_W@std@@V?$allocator@_W@2@@std@@H@std@@PEAX@1@AEBUpiecewise_construct_t@1@$$QEAV?$tuple@AEBV?$basic_string@_WU?$char_traits@_W@std@@V?$allocator@_W@2@@std@@@1@$$QEAV?$tuple@$$$V@1@@Z 0000000180034ba0     * CIL library *:* CIL module *
 0004:00000bac       $pdata$??$_Insert_hint@AEAU?$pair@$$CBV?$basic_string@_WU?$char_traits@_W@std@@V?$allocator@_W@2@@std@@H@std@@PEAU?$_Tree_node@U?$pair@$$CBV?$basic_string@_WU?$char_traits@_W@std@@V?$allocator@_W@2@@std@@H@std@@PEAX@2@@?$_Tree@V?$_Tmap_traits@V?$basic_string@_WU?$char_traits@_W@std@@V?$allocator@_W@2@@std@@HU?$less@V?$basic_string@_WU?$char_traits@_W@std@@V?$allocator@_W@2@@std@@@2@V?$allocator@U?$pair@$$CBV?$basic_string@_WU?$char_traits@_W@std@@V?$allocator@_W@2@@std@@H@std@@@2@$0A@@std@@@std@@IEAA?AV?$_Tree_iterator@V?$_Tree_val@U?$_Tree_simple_types@U?$pair@$$CBV?$basic_string@_WU?$char_traits@_W@std@@V?$allocator@_W@2@@std@@H@std@@@std@@@std@@@1@V?$_Tree_const_iterator@V?$_Tree_val@U?$_Tree_simple_types@U?$pair@$$CBV?$basic_string@_WU?$char_traits@_W@std@@V?$allocator@_W@2@@std@@H@std@@@std@@@std@@@1@AEAU?$pair@$$CBV?$basic_string@_WU?$char_traits@_W@std@@V?$allocator@_W@2@@std@@H@1@PEAU?$_Tree_node@U?$pair@$$CBV?$basic_string@_WU?$char_traits@_W@std@@V?$allocator@_W@2@@std@@H@std@@PEAX@1@@Z 0000000180034bac     * CIL library *:* CIL module *
 0004:00000bb8       $pdata$?_Destroy_if_not_nil@?$_Tree@V?$_Tmap_traits@V?$basic_string@_WU?$char_traits@_W@std@@V?$allocator@_W@2@@std@@HU?$less@V?$basic_string@_WU?$char_traits@_W@std@@V?$allocator@_W@2@@std@@@2@V?$allocator@U?$pair@$$CBV?$basic_string@_WU?$char_traits@_W@std@@V?$allocator@_W@2@@std@@H@std@@@2@$0A@@std@@@std@@IEAAXPEAU?$_Tree_node@U?$pair@$$CBV?$basic_string@_WU?$char_traits@_W@std@@V?$allocator@_W@2@@std@@H@std@@PEAX@2@@Z 0000000180034bb8     * CIL library *:* CIL module *
 0004:00000bc4       $pdata$?_Buynode0@?$_Tree_buy@U?$pair@$$CBV?$basic_string@_WU?$char_traits@_W@std@@V?$allocator@_W@2@@std@@H@std@@V?$allocator@U?$pair@$$CBV?$basic_string@_WU?$char_traits@_W@std@@V?$allocator@_W@2@@std@@H@std@@@2@@std@@QEAAPEAU?$_Tree_node@U?$pair@$$CBV?$basic_string@_WU?$char_traits@_W@std@@V?$allocator@_W@2@@std@@H@std@@PEAX@2@XZ 0000000180034bc4     * CIL library *:* CIL module *
 0004:00000bd0       $pdata$??$_Insert_at@AEAU?$pair@$$CBV?$basic_string@_WU?$char_traits@_W@std@@V?$allocator@_W@2@@std@@H@std@@PEAU?$_Tree_node@U?$pair@$$CBV?$basic_string@_WU?$char_traits@_W@std@@V?$allocator@_W@2@@std@@H@std@@PEAX@2@@?$_Tree@V?$_Tmap_traits@V?$basic_string@_WU?$char_traits@_W@std@@V?$allocator@_W@2@@std@@HU?$less@V?$basic_string@_WU?$char_traits@_W@std@@V?$allocator@_W@2@@std@@@2@V?$allocator@U?$pair@$$CBV?$basic_string@_WU?$char_traits@_W@std@@V?$allocator@_W@2@@std@@H@std@@@2@$0A@@std@@@std@@IEAA?AV?$_Tree_iterator@V?$_Tree_val@U?$_Tree_simple_types@U?$pair@$$CBV?$basic_string@_WU?$char_traits@_W@std@@V?$allocator@_W@2@@std@@H@std@@@std@@@std@@@1@_NPEAU?$_Tree_node@U?$pair@$$CBV?$basic_string@_WU?$char_traits@_W@std@@V?$allocator@_W@2@@std@@H@std@@PEAX@1@AEAU?$pair@$$CBV?$basic_string@_WU?$char_traits@_W@std@@V?$allocator@_W@2@@std@@H@1@1@Z 0000000180034bd0     * CIL library *:* CIL module *
 0004:00000bdc       $pdata$0$??$_Insert_at@AEAU?$pair@$$CBV?$basic_string@_WU?$char_traits@_W@std@@V?$allocator@_W@2@@std@@H@std@@PEAU?$_Tree_node@U?$pair@$$CBV?$basic_string@_WU?$char_traits@_W@std@@V?$allocator@_W@2@@std@@H@std@@PEAX@2@@?$_Tree@V?$_Tmap_traits@V?$basic_string@_WU?$char_traits@_W@std@@V?$allocator@_W@2@@std@@HU?$less@V?$basic_string@_WU?$char_traits@_W@std@@V?$allocator@_W@2@@std@@@2@V?$allocator@U?$pair@$$CBV?$basic_string@_WU?$char_traits@_W@std@@V?$allocator@_W@2@@std@@H@std@@@2@$0A@@std@@@std@@IEAA?AV?$_Tree_iterator@V?$_Tree_val@U?$_Tree_simple_types@U?$pair@$$CBV?$basic_string@_WU?$char_traits@_W@std@@V?$allocator@_W@2@@std@@H@std@@@std@@@std@@@1@_NPEAU?$_Tree_node@U?$pair@$$CBV?$basic_string@_WU?$char_traits@_W@std@@V?$allocator@_W@2@@std@@H@std@@PEAX@1@AEAU?$pair@$$CBV?$basic_string@_WU?$char_traits@_W@std@@V?$allocator@_W@2@@std@@H@1@1@Z 0000000180034bdc     * CIL library *:* CIL module *
 0004:00000be8       $pdata$1$??$_Insert_at@AEAU?$pair@$$CBV?$basic_string@_WU?$char_traits@_W@std@@V?$allocator@_W@2@@std@@H@std@@PEAU?$_Tree_node@U?$pair@$$CBV?$basic_string@_WU?$char_traits@_W@std@@V?$allocator@_W@2@@std@@H@std@@PEAX@2@@?$_Tree@V?$_Tmap_traits@V?$basic_string@_WU?$char_traits@_W@std@@V?$allocator@_W@2@@std@@HU?$less@V?$basic_string@_WU?$char_traits@_W@std@@V?$allocator@_W@2@@std@@@2@V?$allocator@U?$pair@$$CBV?$basic_string@_WU?$char_traits@_W@std@@V?$allocator@_W@2@@std@@H@std@@@2@$0A@@std@@@std@@IEAA?AV?$_Tree_iterator@V?$_Tree_val@U?$_Tree_simple_types@U?$pair@$$CBV?$basic_string@_WU?$char_traits@_W@std@@V?$allocator@_W@2@@std@@H@std@@@std@@@std@@@1@_NPEAU?$_Tree_node@U?$pair@$$CBV?$basic_string@_WU?$char_traits@_W@std@@V?$allocator@_W@2@@std@@H@std@@PEAX@1@AEAU?$pair@$$CBV?$basic_string@_WU?$char_traits@_W@std@@V?$allocator@_W@2@@std@@H@1@1@Z 0000000180034be8     * CIL library *:* CIL module *
 0004:00000bf4       $pdata$2$??$_Insert_at@AEAU?$pair@$$CBV?$basic_string@_WU?$char_traits@_W@std@@V?$allocator@_W@2@@std@@H@std@@PEAU?$_Tree_node@U?$pair@$$CBV?$basic_string@_WU?$char_traits@_W@std@@V?$allocator@_W@2@@std@@H@std@@PEAX@2@@?$_Tree@V?$_Tmap_traits@V?$basic_string@_WU?$char_traits@_W@std@@V?$allocator@_W@2@@std@@HU?$less@V?$basic_string@_WU?$char_traits@_W@std@@V?$allocator@_W@2@@std@@@2@V?$allocator@U?$pair@$$CBV?$basic_string@_WU?$char_traits@_W@std@@V?$allocator@_W@2@@std@@H@std@@@2@$0A@@std@@@std@@IEAA?AV?$_Tree_iterator@V?$_Tree_val@U?$_Tree_simple_types@U?$pair@$$CBV?$basic_string@_WU?$char_traits@_W@std@@V?$allocator@_W@2@@std@@H@std@@@std@@@std@@@1@_NPEAU?$_Tree_node@U?$pair@$$CBV?$basic_string@_WU?$char_traits@_W@std@@V?$allocator@_W@2@@std@@H@std@@PEAX@1@AEAU?$pair@$$CBV?$basic_string@_WU?$char_traits@_W@std@@V?$allocator@_W@2@@std@@H@1@1@Z 0000000180034bf4     * CIL library *:* CIL module *
 0004:00000c00       $pdata$??$_Insert_nohint@AEAU?$pair@$$CBV?$basic_string@_WU?$char_traits@_W@std@@V?$allocator@_W@2@@std@@H@std@@PEAU?$_Tree_node@U?$pair@$$CBV?$basic_string@_WU?$char_traits@_W@std@@V?$allocator@_W@2@@std@@H@std@@PEAX@2@@?$_Tree@V?$_Tmap_traits@V?$basic_string@_WU?$char_traits@_W@std@@V?$allocator@_W@2@@std@@HU?$less@V?$basic_string@_WU?$char_traits@_W@std@@V?$allocator@_W@2@@std@@@2@V?$allocator@U?$pair@$$CBV?$basic_string@_WU?$char_traits@_W@std@@V?$allocator@_W@2@@std@@H@std@@@2@$0A@@std@@@std@@IEAA?AU?$pair@V?$_Tree_iterator@V?$_Tree_val@U?$_Tree_simple_types@U?$pair@$$CBV?$basic_string@_WU?$char_traits@_W@std@@V?$allocator@_W@2@@std@@H@std@@@std@@@std@@@std@@_N@1@_NAEAU?$pair@$$CBV?$basic_string@_WU?$char_traits@_W@std@@V?$allocator@_W@2@@std@@H@1@PEAU?$_Tree_node@U?$pair@$$CBV?$basic_string@_WU?$char_traits@_W@std@@V?$allocator@_W@2@@std@@H@std@@PEAX@1@@Z 0000000180034c00     * CIL library *:* CIL module *
 0004:00000c0c       $pdata$??1CProfileIHVSecurity@@QEAA@XZ 0000000180034c0c     * CIL library *:* CIL module *
 0004:00000c18       $pdata$0$??1CProfileIHVSecurity@@QEAA@XZ 0000000180034c18     * CIL library *:* CIL module *
 0004:00000c24       $pdata$1$??1CProfileIHVSecurity@@QEAA@XZ 0000000180034c24     * CIL library *:* CIL module *
 0004:00000c30       $pdata$?IsValid@CProfileIHVSecurity@@QEAAHXZ 0000000180034c30     * CIL library *:* CIL module *
 0004:00000c3c       $pdata$?xmlSet@CProfileIHVSecurity@@QEAAXPEB_W@Z 0000000180034c3c     * CIL library *:* CIL module *
 0004:00000c48       $pdata$?xmlGet@CProfileIHVSecurity@@QEAAPEA_WXZ 0000000180034c48     * CIL library *:* CIL module *
 0004:00000c54       $pdata$?IsValid@CProfileIHVConnectivity@@QEAAHXZ 0000000180034c54     * CIL library *:* CIL module *
 0004:00000c60       $pdata$?xmlSet@CProfileIHVConnectivity@@QEAAXPEB_W@Z 0000000180034c60     * CIL library *:* CIL module *
 0004:00000c6c       $pdata$?xmlGet@CProfileIHVConnectivity@@QEAAPEA_WXZ 0000000180034c6c     * CIL library *:* CIL module *
 0004:00000c78       $pdata$?Hex2Ssid@CProfileIHVConnectivity@@SA_NPEB_WPEAEPEAH@Z 0000000180034c78     * CIL library *:* CIL module *
 0004:00000c84       $pdata$0$?Hex2Ssid@CProfileIHVConnectivity@@SA_NPEB_WPEAEPEAH@Z 0000000180034c84     * CIL library *:* CIL module *
 0004:00000c90       $pdata$4$?Hex2Ssid@CProfileIHVConnectivity@@SA_NPEB_WPEAEPEAH@Z 0000000180034c90     * CIL library *:* CIL module *
 0004:00000c9c       $pdata$5$?Hex2Ssid@CProfileIHVConnectivity@@SA_NPEB_WPEAEPEAH@Z 0000000180034c9c     * CIL library *:* CIL module *
 0004:00000ca8       $pdata$6$?Hex2Ssid@CProfileIHVConnectivity@@SA_NPEB_WPEAEPEAH@Z 0000000180034ca8     * CIL library *:* CIL module *
 0004:00000cb4       $pdata$7$?Hex2Ssid@CProfileIHVConnectivity@@SA_NPEB_WPEAEPEAH@Z 0000000180034cb4     * CIL library *:* CIL module *
 0004:00000cc0       $pdata$8$?Hex2Ssid@CProfileIHVConnectivity@@SA_NPEB_WPEAEPEAH@Z 0000000180034cc0     * CIL library *:* CIL module *
 0004:00000ccc       $pdata$9$?Hex2Ssid@CProfileIHVConnectivity@@SA_NPEB_WPEAEPEAH@Z 0000000180034ccc     * CIL library *:* CIL module *
 0004:00000cd8       $pdata$?Name2Ssid@CProfileIHVConnectivity@@SA_NPEB_WPEAEPEAH@Z 0000000180034cd8     * CIL library *:* CIL module *
 0004:00000ce4       $pdata$?LoadStringResource@@YAKPEAUHINSTANCE__@@IAEAPEA_WPEAK@Z 0000000180034ce4     * CIL library *:* CIL module *
 0004:00000cf0       $pdata$?OnInitDialog@CertPropertyDlg@@MEAAHPEAUHWND__@@@Z 0000000180034cf0     * CIL library *:* CIL module *
 0004:00000cfc       $pdata$?OnOK@CertPropertyDlg@@UEAAXXZ 0000000180034cfc     * CIL library *:* CIL module *
 0004:00000d08       $pdata$?CertificateFilterFunction@@YAHPEBU_CERT_CONTEXT@@PEAHPEAX@Z 0000000180034d08     * CIL library *:* CIL module *
 0004:00000d14       $pdata$?OnViewCertificate@CertPropertyDlg@@UEAAHXZ 0000000180034d14     * CIL library *:* CIL module *
 0004:00000d20       $pdata$?OnSelectCertificate@CertPropertyDlg@@UEAAHXZ 0000000180034d20     * CIL library *:* CIL module *
 0004:00000d2c       $pdata$?CheckValid@CertPropertyDlg@@UEBAKPEBU_CERT_CONTEXT@@@Z 0000000180034d2c     * CIL library *:* CIL module *
 0004:00000d38       $pdata$?SetCertificate@CertPropertyDlg@@EEAAXPEBU_CERT_CONTEXT@@@Z 0000000180034d38     * CIL library *:* CIL module *
 0004:00000d44       $pdata$?Refresh@CertPropertyDlg@@EEAAXXZ 0000000180034d44     * CIL library *:* CIL module *
 0004:00000d50       $pdata$?DialogProc@CertPropertyDlg@@SA_JPEAUHWND__@@I_K_J@Z 0000000180034d50     * CIL library *:* CIL module *
 0004:00000d5c       $pdata$?InitCertificateListView@@YAXPEAUHINSTANCE__@@PEAUHWND__@@PEAXP6AHPEBU_CERT_CONTEXT@@PEAH2@Z2@Z 0000000180034d5c     * CIL library *:* CIL module *
 0004:00000d68       $pdata$0$?InitCertificateListView@@YAXPEAUHINSTANCE__@@PEAUHWND__@@PEAXP6AHPEBU_CERT_CONTEXT@@PEAH2@Z2@Z 0000000180034d68     * CIL library *:* CIL module *
 0004:00000d74       $pdata$1$?InitCertificateListView@@YAXPEAUHINSTANCE__@@PEAUHWND__@@PEAXP6AHPEBU_CERT_CONTEXT@@PEAH2@Z2@Z 0000000180034d74     * CIL library *:* CIL module *
 0004:00000d80       $pdata$?CleanupCertificateListView@@YAXPEAUHWND__@@@Z 0000000180034d80     * CIL library *:* CIL module *
 0004:00000d8c       $pdata$?Refresh@CertSelectorDlg@@EEAAXXZ 0000000180034d8c     * CIL library *:* CIL module *
 0004:00000d98       $pdata$?DialogProc@CertSelectorDlg@@SA_JPEAUHWND__@@I_K_J@Z 0000000180034d98     * CIL library *:* CIL module *
 0004:00000da4       $pdata$?DialogProc@KeyInputDlg@@SA_JPEAUHWND__@@I_K_J@Z 0000000180034da4     * CIL library *:* CIL module *
 0004:00000db0       $pdata$0$?DialogProc@KeyInputDlg@@SA_JPEAUHWND__@@I_K_J@Z 0000000180034db0     * CIL library *:* CIL module *
 0004:00000dbc       $pdata$2$?DialogProc@KeyInputDlg@@SA_JPEAUHWND__@@I_K_J@Z 0000000180034dbc     * CIL library *:* CIL module *
 0004:00000dc8       $pdata$4$?DialogProc@KeyInputDlg@@SA_JPEAUHWND__@@I_K_J@Z 0000000180034dc8     * CIL library *:* CIL module *
 0004:00000dd4       $pdata$6$?DialogProc@KeyInputDlg@@SA_JPEAUHWND__@@I_K_J@Z 0000000180034dd4     * CIL library *:* CIL module *
 0004:00000de0       $pdata$8$?DialogProc@KeyInputDlg@@SA_JPEAUHWND__@@I_K_J@Z 0000000180034de0     * CIL library *:* CIL module *
 0004:00000dec       $pdata$9$?DialogProc@KeyInputDlg@@SA_JPEAUHWND__@@I_K_J@Z 0000000180034dec     * CIL library *:* CIL module *
 0004:00000df8       $pdata$??0KeyInputDlg@@QEAA@PEAUHINSTANCE__@@PEA_WHHK@Z 0000000180034df8     * CIL library *:* CIL module *
 0004:00000e04       $pdata$?OnInitDialog@KeyInputDlg@@UEAAHPEAUHWND__@@@Z 0000000180034e04     * CIL library *:* CIL module *
 0004:00000e10       $pdata$?InitEditGroup@KeyInputDlg@@UEAAXXZ 0000000180034e10     * CIL library *:* CIL module *
 0004:00000e1c       $pdata$?Refresh@KeyInputDlg@@UEAAXXZ 0000000180034e1c     * CIL library *:* CIL module *
 0004:00000e28       $pdata$0$?Refresh@KeyInputDlg@@UEAAXXZ 0000000180034e28     * CIL library *:* CIL module *
 0004:00000e34       $pdata$1$?Refresh@KeyInputDlg@@UEAAXXZ 0000000180034e34     * CIL library *:* CIL module *
 0004:00000e40       $pdata$2$?Refresh@KeyInputDlg@@UEAAXXZ 0000000180034e40     * CIL library *:* CIL module *
 0004:00000e4c       $pdata$3$?Refresh@KeyInputDlg@@UEAAXXZ 0000000180034e4c     * CIL library *:* CIL module *
 0004:00000e58       $pdata$?SelectEditGroup@KeyInputDlg@@IEAAXPEAU_tKeyInEditGroup@1@@Z 0000000180034e58     * CIL library *:* CIL module *
 0004:00000e64       $pdata$?ReflectEnableState@KeyInputDlg@@IEAAXPEAU_tKeyInEditGroup@1@@Z 0000000180034e64     * CIL library *:* CIL module *
 0004:00000e70       $pdata$2$?ReflectEnableState@KeyInputDlg@@IEAAXPEAU_tKeyInEditGroup@1@@Z 0000000180034e70     * CIL library *:* CIL module *
 0004:00000e7c       $pdata$3$?ReflectEnableState@KeyInputDlg@@IEAAXPEAU_tKeyInEditGroup@1@@Z 0000000180034e7c     * CIL library *:* CIL module *
 0004:00000e88       $pdata$?OnChangeKey@KeyInputDlg@@IEAAXPEAU_tKeyInEditGroup@1@@Z 0000000180034e88     * CIL library *:* CIL module *
 0004:00000e94       $pdata$0$?OnChangeKey@KeyInputDlg@@IEAAXPEAU_tKeyInEditGroup@1@@Z 0000000180034e94     * CIL library *:* CIL module *
 0004:00000ea0       $pdata$1$?OnChangeKey@KeyInputDlg@@IEAAXPEAU_tKeyInEditGroup@1@@Z 0000000180034ea0     * CIL library *:* CIL module *
 0004:00000eac       $pdata$?OnChangeConfirmKey@KeyInputDlg@@IEAAXPEAU_tKeyInEditGroup@1@@Z 0000000180034eac     * CIL library *:* CIL module *
 0004:00000eb8       $pdata$0$?OnChangeConfirmKey@KeyInputDlg@@IEAAXPEAU_tKeyInEditGroup@1@@Z 0000000180034eb8     * CIL library *:* CIL module *
 0004:00000ec4       $pdata$1$?OnChangeConfirmKey@KeyInputDlg@@IEAAXPEAU_tKeyInEditGroup@1@@Z 0000000180034ec4     * CIL library *:* CIL module *
 0004:00000ed0       $pdata$2$?OnChangeConfirmKey@KeyInputDlg@@IEAAXPEAU_tKeyInEditGroup@1@@Z 0000000180034ed0     * CIL library *:* CIL module *
 0004:00000edc       $pdata$3$?OnChangeConfirmKey@KeyInputDlg@@IEAAXPEAU_tKeyInEditGroup@1@@Z 0000000180034edc     * CIL library *:* CIL module *
 0004:00000ee8       $pdata$?UpdateKeyDisplay@KeyInputDlg@@IEAAXPEAU_tKeyInEditGroup@1@HH@Z 0000000180034ee8     * CIL library *:* CIL module *
 0004:00000ef4       $pdata$?OnEditFocus@KeyInputDlg@@UEAAXH@Z 0000000180034ef4     * CIL library *:* CIL module *
 0004:00000f00       $pdata$?OnHideChars@KeyInputDlg@@UEAAXXZ 0000000180034f00     * CIL library *:* CIL module *
 0004:00000f0c       $pdata$?HideEditGroup@KeyInputDlg@@IEAAXHPEAU_tKeyInEditGroup@1@H@Z 0000000180034f0c     * CIL library *:* CIL module *
 0004:00000f18       $pdata$?ReportError@KeyInputDlg@@IEAAXH@Z 0000000180034f18     * CIL library *:* CIL module *
 0004:00000f24       $pdata$?IsValid@KeyInputDlg@@IEAAHPEAU_tKeyInEditGroup@1@@Z 0000000180034f24     * CIL library *:* CIL module *
 0004:00000f30       $pdata$0$?IsValid@KeyInputDlg@@IEAAHPEAU_tKeyInEditGroup@1@@Z 0000000180034f30     * CIL library *:* CIL module *
 0004:00000f3c       $pdata$1$?IsValid@KeyInputDlg@@IEAAHPEAU_tKeyInEditGroup@1@@Z 0000000180034f3c     * CIL library *:* CIL module *
 0004:00000f48       $pdata$?ValidateKey@KeyInputDlg@@UEAAHPEB_W@Z 0000000180034f48     * CIL library *:* CIL module *
 0004:00000f54       $pdata$2$?ValidateKey@KeyInputDlg@@UEAAHPEB_W@Z 0000000180034f54     * CIL library *:* CIL module *
 0004:00000f60       $pdata$3$?ValidateKey@KeyInputDlg@@UEAAHPEB_W@Z 0000000180034f60     * CIL library *:* CIL module *
 0004:00000f6c       $pdata$?OnOK@KeyInputDlg@@UEAAXXZ 0000000180034f6c     * CIL library *:* CIL module *
 0004:00000f78       $pdata$?OnKeyDown@KeyInputDlg@@UEAAHPEAU_tKeyInEditGroup@1@_K_J@Z 0000000180034f78     * CIL library *:* CIL module *
 0004:00000f84       $pdata$??0_com_error@@QEAA@AEBV0@@Z 0000000180034f84     comsuppw:comraise.obj
 0004:00000f90       $pdata$??1_com_error@@UEAA@XZ 0000000180034f90     comsuppw:comraise.obj
 0004:00000f9c       $pdata$??_G_com_error@@UEAAPEAXI@Z 0000000180034f9c     comsuppw:comraise.obj
 0004:00000fa8       $pdata$?_com_raise_error@@YAXJPEAUIErrorInfo@@@Z 0000000180034fa8     comsuppw:comraise.obj
 0004:00000fc0       $pdata$??8type_info@@QEBA_NAEBV0@@Z 0000000180034fc0     LIBCMT:typinfo.obj
 0004:00000fcc       $pdata$??_Gtype_info@@UEAAPEAXI@Z 0000000180034fcc     LIBCMT:typinfo.obj
 0004:00000fd8       $pdata$??0bad_alloc@std@@QEAA@AEBV01@@Z 0000000180034fd8     LIBCMT:new.obj
 0004:00000fe4       $pdata$??2@YAPEAX_K@Z      0000000180034fe4     LIBCMT:new.obj
 0004:00000ff0       $pdata$??_Gbad_alloc@std@@UEAAPEAXI@Z 0000000180034ff0     LIBCMT:new.obj
 0004:00000ffc       $pdata$swprintf_s          0000000180034ffc     LIBCMT:swprintf.obj
 0004:00001008       $pdata$wcsncpy_s           0000000180035008     LIBCMT:wcsncpy_s.obj
 0004:00001020       $pdata$__onexitinit        0000000180035020     LIBCMT:onexit.obj
 0004:0000102c       $pdata$_onexit             000000018003502c     LIBCMT:onexit.obj
 0004:00001038       $pdata$atexit              0000000180035038     LIBCMT:onexit.obj
 0004:00001044       $pdata$wcsstr              0000000180035044     LIBCMT:wcsstr.obj
 0004:00001050       $pdata$_purecall           0000000180035050     LIBCMT:purevirt.obj
 0004:0000105c       $pdata$memcpy_s            000000018003505c     LIBCMT:memcpy_s.obj
 0004:00001068       $pdata$??2@YAPEAX_KAEBUnothrow_t@std@@@Z 0000000180035068     LIBCMT:newopnt.obj
 0004:00001074       $pdata$wcschr              0000000180035074     LIBCMT:wcschr.obj
 0004:00001080       $pdata$?wcstoxl@@YAKPEB_WPEAPEB_WHH@Z 0000000180035080     LIBCMT:wcstol.obj
 0004:0000108c       $pdata$??0_LocaleUpdate@@QEAA@PEAUlocaleinfo_struct@@@Z 000000018003508c     LIBCMT:wcsnicmp.obj
 0004:00001098       $pdata$_wcsnicmp           0000000180035098     LIBCMT:wcsnicmp.obj
 0004:000010a4       $pdata$_wcsnicmp_l         00000001800350a4     LIBCMT:wcsnicmp.obj
 0004:000010b0       $pdata$__raise_securityfailure 00000001800350b0     LIBCMT:gs_report.obj
 0004:000010bc       $pdata$__report_gsfailure  00000001800350bc     LIBCMT:gs_report.obj
 0004:000010c8       $pdata$wcscpy_s            00000001800350c8     LIBCMT:wcscpy_s.obj
 0004:000010d4       $pdata$free                00000001800350d4     LIBCMT:free.obj
 0004:000010e0       $pdata$malloc              00000001800350e0     LIBCMT:malloc.obj
 0004:000010ec       $pdata$_wcsicmp            00000001800350ec     LIBCMT:wcsicmp.obj
 0004:000010f8       $pdata$_wcsicmp_l          00000001800350f8     LIBCMT:wcsicmp.obj
 0004:00001104       $pdata$_itow               0000000180035104     LIBCMT:xtow.obj
 0004:00001110       $pdata$xtow                0000000180035110     LIBCMT:xtow.obj
 0004:0000111c       $pdata$_CRT_INIT           000000018003511c     LIBCMT:dllcrt0.obj
 0004:00001128       $pdata$_DllMainCRTStartup  0000000180035128     LIBCMT:dllcrt0.obj
 0004:00001134       $pdata$__DllMainCRTStartup 0000000180035134     LIBCMT:dllcrt0.obj
 0004:00001140       $pdata$_CxxThrowException  0000000180035140     LIBCMT:throw.obj
 0004:0000114c       $pdata$__GSHandlerCheck_SEH 000000018003514c     LIBCMT:gshandlerseh.obj
 0004:0000117c       $pdata$?_Type_info_dtor@type_info@@CAXPEAV1@@Z 000000018003517c     LIBCMT:typname.obj
 0004:00001188       $pdata$??0exception@std@@QEAA@AEBQEBD@Z 0000000180035188     LIBCMT:stdexcpt.obj
 0004:00001194       $pdata$??0exception@std@@QEAA@AEBV01@@Z 0000000180035194     LIBCMT:stdexcpt.obj
 0004:000011a0       $pdata$??4exception@std@@QEAAAEAV01@AEBV01@@Z 00000001800351a0     LIBCMT:stdexcpt.obj
 0004:000011ac       $pdata$??_Gexception@std@@UEAAPEAXI@Z 00000001800351ac     LIBCMT:stdexcpt.obj
 0004:000011b8       $pdata$?_Copy_str@exception@std@@AEAAXPEBD@Z 00000001800351b8     LIBCMT:stdexcpt.obj
 0004:000011c4       $pdata$?_Tidy@exception@std@@AEAAXXZ 00000001800351c4     LIBCMT:stdexcpt.obj
 0004:000011d0       $pdata$_callnewh           00000001800351d0     LIBCMT:handler.obj
 0004:000011dc       $pdata$_call_reportfault   00000001800351dc     LIBCMT:invarg.obj
 0004:000011e8       $pdata$_invalid_parameter  00000001800351e8     LIBCMT:invarg.obj
 0004:000011f4       $pdata$_invalid_parameter_noinfo 00000001800351f4     LIBCMT:invarg.obj
 0004:00001200       $pdata$_invoke_watson      0000000180035200     LIBCMT:invarg.obj
 0004:0000120c       $pdata$_flsbuf             000000018003520c     LIBCMT:_flsbuf.obj
 0004:00001218       $pdata$_vswprintf_helper   0000000180035218     LIBCMT:vswprnc.obj
 0004:00001224       $pdata$_vswprintf_s_l      0000000180035224     LIBCMT:vswprnc.obj
 0004:00001230       $pdata$__doserrno          0000000180035230     LIBCMT:dosmap.obj
 0004:0000123c       $pdata$_dosmaperr          000000018003523c     LIBCMT:dosmap.obj
 0004:00001248       $pdata$_errno              0000000180035248     LIBCMT:dosmap.obj
 0004:00001254       $pdata$__isa_available_init 0000000180035254     LIBCMT:cpu_disp.obj
 0004:00001260       $pdata$__crtCorExitProcess 0000000180035260     LIBCMT:crt0dat.obj
 0004:0000126c       $pdata$__crtExitProcess    000000018003526c     LIBCMT:crt0dat.obj
 0004:00001278       $pdata$__freeCrtMemory     0000000180035278     LIBCMT:crt0dat.obj
 0004:00001284       $pdata$_amsg_exit          0000000180035284     LIBCMT:crt0dat.obj
 0004:00001290       $pdata$_cinit              0000000180035290     LIBCMT:crt0dat.obj
 0004:0000129c       $pdata$_init_pointers      000000018003529c     LIBCMT:crt0dat.obj
 0004:000012a8       $pdata$_initterm           00000001800352a8     LIBCMT:crt0dat.obj
 0004:000012b4       $pdata$_initterm_e         00000001800352b4     LIBCMT:crt0dat.obj
 0004:000012c0       $pdata$doexit              00000001800352c0     LIBCMT:crt0dat.obj
 0004:000012cc       $pdata$_msize              00000001800352cc     LIBCMT:msize.obj
 0004:000012d8       $pdata$_calloc_crt         00000001800352d8     LIBCMT:crtheap.obj
 0004:000012e4       $pdata$_malloc_crt         00000001800352e4     LIBCMT:crtheap.obj
 0004:000012f0       $pdata$_realloc_crt        00000001800352f0     LIBCMT:crtheap.obj
 0004:000012fc       $pdata$__C_specific_handler 00000001800352fc     LIBCMT:chandler.obj
 0004:00001308       $pdata$abort               0000000180035308     LIBCMT:abort.obj
 0004:00001314       $pdata$?_GetEstablisherFrame@@YAPEA_KPEA_KPEAU_xDISPATCHER_CONTEXT@@PEBU_s_FuncInfo@@0@Z 0000000180035314     LIBCMT:trnsctrl.obj
 0004:00001320       $pdata$?_GetRangeOfTrysToCheck@@YAPEBU_s_TryBlockMapEntry@@PEA_KPEBU_s_FuncInfo@@HHPEAI2PEAU_xDISPATCHER_CONTEXT@@@Z 0000000180035320     LIBCMT:trnsctrl.obj
 0004:0000132c       $pdata$?__FrameUnwindToEmptyState@@YAXPEA_KPEAU_xDISPATCHER_CONTEXT@@PEBU_s_FuncInfo@@@Z 000000018003532c     LIBCMT:trnsctrl.obj
 0004:00001338       $pdata$?__SehTransFilter@@YAHPEAU_EXCEPTION_POINTERS@@PEAUEHExceptionRecord@@PEA_KPEAU_CONTEXT@@PEAU_xDISPATCHER_CONTEXT@@PEBU_s_FuncInfo@@PEAH@Z 0000000180035338     LIBCMT:trnsctrl.obj
 0004:00001344       $pdata$_CallSETranslator   0000000180035344     LIBCMT:trnsctrl.obj
 0004:00001350       $pdata$_CreateFrameInfo    0000000180035350     LIBCMT:trnsctrl.obj
 0004:0000135c       $pdata$_FindAndUnlinkFrame 000000018003535c     LIBCMT:trnsctrl.obj
 0004:00001368       $pdata$_GetImageBase       0000000180035368     LIBCMT:trnsctrl.obj
 0004:00001374       $pdata$_GetThrowImageBase  0000000180035374     LIBCMT:trnsctrl.obj
 0004:00001380       $pdata$_IsExceptionObjectToBeDestroyed 0000000180035380     LIBCMT:trnsctrl.obj
 0004:0000138c       $pdata$_SetImageBase       000000018003538c     LIBCMT:trnsctrl.obj
 0004:00001398       $pdata$_SetThrowImageBase  0000000180035398     LIBCMT:trnsctrl.obj
 0004:000013a4       $pdata$_UnwindNestedFrames 00000001800353a4     LIBCMT:trnsctrl.obj
 0004:000013b0       $pdata$__CxxFrameHandler3  00000001800353b0     LIBCMT:trnsctrl.obj
 0004:000013bc       $pdata$iswctype            00000001800353bc     LIBCMT:iswctype.obj
 0004:000013c8       $pdata$__freetlocinfo      00000001800353c8     LIBCMT:localref.obj
 0004:000013d4       $pdata$__updatetlocinfo    00000001800353d4     LIBCMT:localref.obj
 0004:000013e0       $pdata$_updatetlocinfoEx_nolock 00000001800353e0     LIBCMT:localref.obj
 0004:000013ec       $pdata$__initmbctable      00000001800353ec     LIBCMT:mbctype.obj
 0004:000013f8       $pdata$?getSystemCP@@YAHH@Z 00000001800353f8     LIBCMT:mbctype.obj
 0004:00001404       $pdata$?setSBCS@@YAXPEAUthreadmbcinfostruct@@@Z 0000000180035404     LIBCMT:mbctype.obj
 0004:00001410       $pdata$?setSBUpLow@@YAXPEAUthreadmbcinfostruct@@@Z 0000000180035410     LIBCMT:mbctype.obj
 0004:0000141c       $pdata$__updatetmbcinfo    000000018003541c     LIBCMT:mbctype.obj
 0004:00001428       $pdata$_setmbcp            0000000180035428     LIBCMT:mbctype.obj
 0004:00001434       $pdata$_setmbcp_nolock     0000000180035434     LIBCMT:mbctype.obj
 0004:00001440       $pdata$_towlower_l         0000000180035440     LIBCMT:towlower.obj
 0004:0000144c       $pdata$_freefls            000000018003544c     LIBCMT:tidtable.obj
 0004:00001458       $pdata$_freeptd            0000000180035458     LIBCMT:tidtable.obj
 0004:00001464       $pdata$_getptd             0000000180035464     LIBCMT:tidtable.obj
 0004:00001470       $pdata$_getptd_noexit      0000000180035470     LIBCMT:tidtable.obj
 0004:0000147c       $pdata$_initptd            000000018003547c     LIBCMT:tidtable.obj
 0004:00001488       $pdata$_mtinit             0000000180035488     LIBCMT:tidtable.obj
 0004:00001494       $pdata$_mtterm             0000000180035494     LIBCMT:tidtable.obj
 0004:000014a0       $pdata$_locterm            00000001800354a0     LIBCMT:wsetloca.obj
 0004:000014ac       $pdata$__crtCaptureCurrentContext 00000001800354ac     LIBCMT:winapisupp.obj
 0004:000014b8       $pdata$__crtCapturePreviousContext 00000001800354b8     LIBCMT:winapisupp.obj
 0004:000014c4       $pdata$__crtInitializeCriticalSectionEx 00000001800354c4     LIBCMT:winapisupp.obj
 0004:000014d0       $pdata$__crtIsPackagedApp  00000001800354d0     LIBCMT:winapisupp.obj
 0004:000014dc       $pdata$__crtLoadWinApiPointers 00000001800354dc     LIBCMT:winapisupp.obj
 0004:000014e8       $pdata$__crtTerminateProcess 00000001800354e8     LIBCMT:winapisupp.obj
 0004:000014f4       $pdata$__crtUnhandledException 00000001800354f4     LIBCMT:winapisupp.obj
 0004:00001500       $pdata$_heap_init          0000000180035500     LIBCMT:heapinit.obj
 0004:0000150c       $pdata$_FF_MSGBANNER       000000018003550c     LIBCMT:crt0msg.obj
 0004:00001518       $pdata$_NMSG_WRITE         0000000180035518     LIBCMT:crt0msg.obj
 0004:00001524       $pdata$_XcptFilter         0000000180035524     LIBCMT:winxfltr.obj
 0004:00001530       $pdata$_ioinit             0000000180035530     LIBCMT:ioinit.obj
 0004:0000153c       $pdata$_ioterm             000000018003553c     LIBCMT:ioinit.obj
 0004:00001548       $pdata$_setargv            0000000180035548     LIBCMT:stdargv.obj
 0004:00001554       $pdata$parse_cmdline       0000000180035554     LIBCMT:stdargv.obj
 0004:00001560       $pdata$_setenvp            0000000180035560     LIBCMT:stdenvp.obj
 0004:0000156c       $pdata$__security_init_cookie 000000018003556c     LIBCMT:gs_support.obj
 0004:00001578       $pdata$__crtGetEnvironmentStringsA 0000000180035578     LIBCMT:a_env.obj
 0004:00001584       $pdata$_RTC_Initialize     0000000180035584     LIBCMT:initsect.obj
 0004:00001590       $pdata$_RTC_Terminate      0000000180035590     LIBCMT:initsect.obj
 0004:0000159c       $pdata$__GSHandlerCheck    000000018003559c     LIBCMT:gshandler.obj
 0004:000015a8       $pdata$__GSHandlerCheckCommon 00000001800355a8     LIBCMT:gshandler.obj
 0004:000015b4       $pdata$_cfltcvt            00000001800355b4     LIBCMT:cvt.obj
 0004:000015c0       $pdata$_cfltcvt_l          00000001800355c0     LIBCMT:cvt.obj
 0004:000015cc       $pdata$_cftoa_l            00000001800355cc     LIBCMT:cvt.obj
 0004:000015d8       $pdata$_cftoe2_l           00000001800355d8     LIBCMT:cvt.obj
 0004:000015e4       $pdata$_cftoe_l            00000001800355e4     LIBCMT:cvt.obj
 0004:000015f0       $pdata$_cftof2_l           00000001800355f0     LIBCMT:cvt.obj
 0004:000015fc       $pdata$_cftof_l            00000001800355fc     LIBCMT:cvt.obj
 0004:00001608       $pdata$_cftog_l            0000000180035608     LIBCMT:cvt.obj
 0004:00001614       $pdata$_cropzeros_l        0000000180035614     LIBCMT:cvt.obj
 0004:00001620       $pdata$_fassign_l          0000000180035620     LIBCMT:cvt.obj
 0004:0000162c       $pdata$_forcdecpt_l        000000018003562c     LIBCMT:cvt.obj
 0004:00001638       $pdata$_initp_misc_cfltcvt_tab 0000000180035638     LIBCMT:cmiscdat.obj
 0004:00001644       $pdata$strcpy_s            0000000180035644     LIBCMT:strcpy_s.obj
 0004:0000165c       $pdata$_lock               000000018003565c     LIBCMT:mlock.obj
 0004:00001668       $pdata$_mtdeletelocks      0000000180035668     LIBCMT:mlock.obj
 0004:00001674       $pdata$_mtinitlocknum      0000000180035674     LIBCMT:mlock.obj
 0004:00001680       $pdata$_mtinitlocks        0000000180035680     LIBCMT:mlock.obj
 0004:000016bc       $pdata$__initstdio         00000001800356bc     LIBCMT:_file.obj
 0004:000016c8       $pdata$__endstdio          00000001800356c8     LIBCMT:_file.obj
 0004:000016d4       $pdata$_lock_file          00000001800356d4     LIBCMT:_file.obj
 0004:000016e0       $pdata$_lock_file2         00000001800356e0     LIBCMT:_file.obj
 0004:000016ec       $pdata$_fileno             00000001800356ec     LIBCMT:fileno.obj
 0004:000016f8       $pdata$_isatty             00000001800356f8     LIBCMT:isatty.obj
 0004:00001704       $pdata$_write              0000000180035704     LIBCMT:write.obj
 0004:00001710       $pdata$_write_nolock       0000000180035710     LIBCMT:write.obj
 0004:0000171c       $pdata$_lseeki64           000000018003571c     LIBCMT:lseeki64.obj
 0004:00001728       $pdata$_lseeki64_nolock    0000000180035728     LIBCMT:lseeki64.obj
 0004:00001734       $pdata$_getbuf             0000000180035734     LIBCMT:_getbuf.obj
 0004:00001740       $pdata$_woutput_s_l        0000000180035740     LIBCMT:woutputs.obj
 0004:0000174c       $pdata$write_char          000000018003574c     LIBCMT:woutputs.obj
 0004:00001758       $pdata$write_multi_char    0000000180035758     LIBCMT:woutputs.obj
 0004:00001764       $pdata$write_string        0000000180035764     LIBCMT:woutputs.obj
 0004:00001770       $pdata$_isleadbyte_l       0000000180035770     LIBCMT:_wctype.obj
 0004:0000177c       $pdata$isleadbyte          000000018003577c     LIBCMT:_wctype.obj
 0004:00001788       $pdata$_fputwc_nolock      0000000180035788     LIBCMT:fputwc.obj
 0004:00001794       $pdata$_mbtowc_l           0000000180035794     LIBCMT:mbtowc.obj
 0004:000017a0       $pdata$_IsNonwritableInCurrentImage 00000001800357a0     LIBCMT:pesect.obj
 0004:000017ac       $pdata$?_inconsistency@@YAXXZ 00000001800357ac     LIBCMT:hooks.obj
 0004:000017b8       $pdata$?terminate@@YAXXZ   00000001800357b8     LIBCMT:hooks.obj
 0004:000017c4       $pdata$_initp_eh_hooks     00000001800357c4     LIBCMT:hooks.obj
 0004:000017d0       $pdata$raise               00000001800357d0     LIBCMT:winsig.obj
 0004:000017dc       $pdata$realloc             00000001800357dc     LIBCMT:realloc.obj
 0004:000017e8       $pdata$_calloc_impl        00000001800357e8     LIBCMT:calloc_impl.obj
 0004:000017f4       $pdata$GetTableIndexFromLocaleName 00000001800357f4     LIBCMT:winapinls.obj
 0004:00001800       $pdata$__crtDownlevelLocaleNameToLCID 0000000180035800     LIBCMT:winapinls.obj
 0004:0000180c       $pdata$__crtLCMapStringEx  000000018003580c     LIBCMT:winapinls.obj
 0004:00001818       $pdata$__DestructExceptionObject 0000000180035818     LIBCMT:frame.obj
 0004:00001824       $pdata$??0bad_exception@std@@QEAA@AEBV01@@Z 0000000180035824     LIBCMT:frame.obj
 0004:00001830       $pdata$??_Gbad_exception@std@@UEAAPEAXI@Z 0000000180035830     LIBCMT:frame.obj
 0004:0000183c       $pdata$?CatchIt@@YAXPEAUEHExceptionRecord@@PEA_KPEAU_CONTEXT@@PEAU_xDISPATCHER_CONTEXT@@PEBU_s_FuncInfo@@PEBU_s_HandlerType@@PEBU_s_CatchableType@@PEBU_s_TryBlockMapEntry@@H1EE@Z 000000018003583c     LIBCMT:frame.obj
 0004:00001848       $pdata$?FindHandler@@YAXPEAUEHExceptionRecord@@PEA_KPEAU_CONTEXT@@PEAU_xDISPATCHER_CONTEXT@@PEBU_s_FuncInfo@@EH1@Z 0000000180035848     LIBCMT:frame.obj
 0004:00001854       $pdata$?FindHandlerForForeignException@@YAXPEAUEHExceptionRecord@@PEA_KPEAU_CONTEXT@@PEAU_xDISPATCHER_CONTEXT@@PEBU_s_FuncInfo@@HH1@Z 0000000180035854     LIBCMT:frame.obj
 0004:00001860       $pdata$?IsInExceptionSpec@@YAEPEAUEHExceptionRecord@@PEBU_s_ESTypeList@@@Z 0000000180035860     LIBCMT:frame.obj
 0004:0000186c       $pdata$__BuildCatchObject  000000018003586c     LIBCMT:frame.obj
 0004:00001878       $pdata$__BuildCatchObjectHelper 0000000180035878     LIBCMT:frame.obj
 0004:00001884       $pdata$__CxxCallCatchBlock 0000000180035884     LIBCMT:frame.obj
 0004:00001890       $pdata$__FrameUnwindFilter 0000000180035890     LIBCMT:frame.obj
 0004:0000189c       $pdata$__FrameUnwindToState 000000018003589c     LIBCMT:frame.obj
 0004:000018a8       $pdata$__InternalCxxFrameHandler 00000001800358a8     LIBCMT:frame.obj
 0004:000018b4       $pdata$__TypeMatch         00000001800358b4     LIBCMT:frame.obj
 0004:000018c0       $pdata$?__GetCurrentState@@YAHPEA_KPEAU_xDISPATCHER_CONTEXT@@PEBU_s_FuncInfo@@@Z 00000001800358c0     LIBCMT:ehstate.obj
 0004:000018cc       $pdata$?__GetUnwindTryBlock@@YAHPEA_KPEAU_xDISPATCHER_CONTEXT@@PEBU_s_FuncInfo@@@Z 00000001800358cc     LIBCMT:ehstate.obj
 0004:000018d8       $pdata$?__SetUnwindTryBlock@@YAXPEA_KPEAU_xDISPATCHER_CONTEXT@@PEBU_s_FuncInfo@@H@Z 00000001800358d8     LIBCMT:ehstate.obj
 0004:000018e4       $pdata$?__StateFromIp@@YAHPEBU_s_FuncInfo@@PEAU_xDISPATCHER_CONTEXT@@_J@Z 00000001800358e4     LIBCMT:ehstate.obj
 0004:000018f0       $pdata$__free_lconv_mon    00000001800358f0     LIBCMT:initmon.obj
 0004:000018fc       $pdata$__free_lconv_num    00000001800358fc     LIBCMT:initnum.obj
 0004:00001908       $pdata$__free_lc_time      0000000180035908     LIBCMT:inittime.obj
 0004:00001914       $pdata$?__crtLCMapStringA_stat@@YAHPEAUlocaleinfo_struct@@PEB_WKPEBDHPEADHHH@Z 0000000180035914     LIBCMT:a_map.obj
 0004:00001920       $pdata$__crtLCMapStringA   0000000180035920     LIBCMT:a_map.obj
 0004:0000192c       $pdata$?__crtGetStringTypeA_stat@@YAHPEAUlocaleinfo_struct@@KPEBDHPEAGHH@Z 000000018003592c     LIBCMT:a_str.obj
 0004:00001938       $pdata$__crtGetStringTypeA 0000000180035938     LIBCMT:a_str.obj
 0004:00001944       $pdata$__crtLCMapStringW   0000000180035944     LIBCMT:w_map.obj
 0004:0000195c       $pdata$wcscat_s            000000018003595c     LIBCMT:wcscat_s.obj
 0004:00001968       $pdata$_atodbl_l           0000000180035968     LIBCMT:atodbl.obj
 0004:00001974       $pdata$_atoflt_l           0000000180035974     LIBCMT:atodbl.obj
 0004:00001980       $pdata$_set_error_mode     0000000180035980     LIBCMT:errmode.obj
 0004:0000198c       $pdata$__crtMessageBoxW    000000018003598c     LIBCMT:crtmboxw.obj
 0004:00001998       $pdata$?x_ismbbtype_l@@YAHPEAUlocaleinfo_struct@@IHH@Z 0000000180035998     LIBCMT:ismbbyte.obj
 0004:000019a4       $pdata$isdigit             00000001800359a4     LIBCMT:_ctype.obj
 0004:000019b0       $pdata$_tolower_l          00000001800359b0     LIBCMT:tolower.obj
 0004:000019bc       $pdata$strrchr             00000001800359bc     LIBCMT:strrchr.obj
 0004:000019c8       $pdata$_fptostr            00000001800359c8     LIBCMT:_fptostr.obj
 0004:000019d4       $pdata$__dtold             00000001800359d4     LIBCMT:cfout.obj
 0004:000019e0       $pdata$_fltout2            00000001800359e0     LIBCMT:cfout.obj
 0004:000019ec       $pdata$_fcloseall          00000001800359ec     LIBCMT:closeall.obj
 0004:000019f8       $pdata$_fflush_nolock      00000001800359f8     LIBCMT:fflush.obj
 0004:00001a04       $pdata$_flush              0000000180035a04     LIBCMT:fflush.obj
 0004:00001a10       $pdata$flsall              0000000180035a10     LIBCMT:fflush.obj
 0004:00001a1c       $pdata$__lock_fhandle      0000000180035a1c     LIBCMT:osfinfo.obj
 0004:00001a28       $pdata$_free_osfhnd        0000000180035a28     LIBCMT:osfinfo.obj
 0004:00001a34       $pdata$_get_osfhandle      0000000180035a34     LIBCMT:osfinfo.obj
 0004:00001a40       $pdata$_putwch_nolock      0000000180035a40     LIBCMT:putwch.obj
 0004:00001a4c       $pdata$_wctomb_s_l         0000000180035a4c     LIBCMT:wctomb.obj
 0004:00001a58       $pdata$wctomb_s            0000000180035a58     LIBCMT:wctomb.obj
 0004:00001a64       $pdata$_flswbuf            0000000180035a64     LIBCMT:_flswbuf.obj
 0004:00001a7c       $pdata$_ld12tod            0000000180035a7c     LIBCMT:intrncvt.obj
 0004:00001a88       $pdata$_ld12tof            0000000180035a88     LIBCMT:intrncvt.obj
 0004:00001a94       $pdata$__strgtold12_l      0000000180035a94     LIBCMT:strgtold.obj
 0004:00001aa0       $pdata$_isctype_l          0000000180035aa0     LIBCMT:isctype.obj
 0004:00001aac       $pdata$$I10_OUTPUT         0000000180035aac     LIBCMT:x10fout.obj
 0004:00001ab8       $pdata$_fclose_nolock      0000000180035ab8     LIBCMT:fclose.obj
 0004:00001ac4       $pdata$fclose              0000000180035ac4     LIBCMT:fclose.obj
 0004:00001ad0       $pdata$_commit             0000000180035ad0     LIBCMT:commit.obj
 0004:00001adc       $pdata$__termconout        0000000180035adc     LIBCMT:initcon.obj
 0004:00001ae8       $pdata$__initconout        0000000180035ae8     LIBCMT:initcon.obj
 0004:00001af4       $pdata$__mtold12           0000000180035af4     LIBCMT:mantold.obj
 0004:00001b00       $pdata$_close              0000000180035b00     LIBCMT:close.obj
 0004:00001b0c       $pdata$_close_nolock       0000000180035b0c     LIBCMT:close.obj
 0004:00001b18       $pdata$_freebuf            0000000180035b18     LIBCMT:_freebuf.obj
 0004:00001b24       $pdata$??0length_error@std@@QEAA@AEBV01@@Z 0000000180035b24     libcpmt:xthrow.obj
 0004:00001b30       $pdata$??0logic_error@std@@QEAA@AEBV01@@Z 0000000180035b30     libcpmt:xthrow.obj
 0004:00001b3c       $pdata$??0out_of_range@std@@QEAA@AEBV01@@Z 0000000180035b3c     libcpmt:xthrow.obj
 0004:00001b48       $pdata$??_Glength_error@std@@UEAAPEAXI@Z 0000000180035b48     libcpmt:xthrow.obj
 0004:00001b48       $pdata$??_Gout_of_range@std@@UEAAPEAXI@Z 0000000180035b48     libcpmt:xthrow.obj
 0004:00001b48       $pdata$??_Glogic_error@std@@UEAAPEAXI@Z 0000000180035b48     libcpmt:xthrow.obj
 0004:00001b54       $pdata$?_Xbad_alloc@std@@YAXXZ 0000000180035b54     libcpmt:xthrow.obj
 0004:00001b60       $pdata$?_Xlength_error@std@@YAXPEBD@Z 0000000180035b60     libcpmt:xthrow.obj
 0004:00001b6c       $pdata$?_Xout_of_range@std@@YAXPEBD@Z 0000000180035b6c     libcpmt:xthrow.obj
 0004:00001b78       $pdata$__GSHandlerCheck_EH 0000000180035b78     LIBCMT:gshandlereh.obj
 0004:00001b84       $pdata$IsolationAwareLoadLibraryW$fin$0 0000000180035b84     * CIL library *:* CIL module *
 0004:00001b90       $pdata$WinbaseIsolationAwarePrivatetRgzlnPgpgk$fin$0 0000000180035b90     * CIL library *:* CIL module *
 0004:00001b9c       $pdata$IsolationAwareDialogBoxParamW$fin$0 0000000180035b9c     * CIL library *:* CIL module *
 0004:00001ba8       $pdata$IsolationAwareCreatePropertySheetPageW$fin$0 0000000180035ba8     * CIL library *:* CIL module *
 0004:00001bb4       $pdata$PrshtIsolationAwarePrivatetRgCebPnQQeRff_pbZPgYQP_QYY$fin$0 0000000180035bb4     * CIL library *:* CIL module *
 0004:00001bc0       $pdata$?catch$1@?0??_Copy@?$basic_string@DU?$char_traits@D@std@@V?$allocator@D@2@@std@@QEAAX_K0@Z@4HA 0000000180035bc0     * CIL library *:* CIL module *
 0004:00001bcc       $pdata$?catch$0@?0??_Copy@?$basic_string@DU?$char_traits@D@std@@V?$allocator@D@2@@std@@QEAAX_K0@Z@4HA 0000000180035bcc     * CIL library *:* CIL module *
 0004:00001bd8       $pdata$?dtor$1@?0??xmlGet@DPTProfile@@QEAAPEA_WPEAUIXMLDOMDocument@@@Z@4HA 0000000180035bd8     * CIL library *:* CIL module *
 0004:00001be4       $pdata$?dtor$2@?0??xmlGet@DPTProfile@@QEAAPEA_WPEAUIXMLDOMDocument@@@Z@4HA 0000000180035be4     * CIL library *:* CIL module *
 0004:00001bf0       $pdata$?catch$1@?0??_Copy@?$basic_string@_WU?$char_traits@_W@std@@V?$allocator@_W@2@@std@@QEAAX_K0@Z@4HA 0000000180035bf0     * CIL library *:* CIL module *
 0004:00001bfc       $pdata$?catch$0@?0??_Copy@?$basic_string@_WU?$char_traits@_W@std@@V?$allocator@_W@2@@std@@QEAAX_K0@Z@4HA 0000000180035bfc     * CIL library *:* CIL module *
 0004:00001c08       $pdata$?dtor$0@?0???$?H_WU?$char_traits@_W@std@@V?$allocator@_W@1@@std@@YA?AV?$basic_string@_WU?$char_traits@_W@std@@V?$allocator@_W@2@@0@AEBV10@PEB_W@Z@4HA 0000000180035c08     * CIL library *:* CIL module *
 0004:00001c14       $pdata$?dtor$0@?0???$_Buynode@AEBUpiecewise_construct_t@std@@V?$tuple@AEBV?$basic_string@_WU?$char_traits@_W@std@@V?$allocator@_W@2@@std@@@2@V?$tuple@$$$V@2@@?$_Tree_buy@U?$pair@$$CBV?$basic_string@_WU?$char_traits@_W@std@@V?$allocator@_W@2@@std@@H@std@@V?$allocator@U?$pair@$$CBV?$basic_string@_WU?$char_traits@_W@std@@V?$allocator@_W@2@@std@@H@std@@@2@@std@@QEAAPEAU?$_Tree_node@U?$pair@$$CBV?$basic_string@_WU?$char_traits@_W@std@@V?$allocator@_W@2@@std@@H@std@@PEAX@1@AEBUpiecewise_construct_t@1@$$QEAV?$tuple@AEBV?$basic_string@_WU?$char_traits@_W@std@@V?$allocator@_W@2@@std@@@1@$$QEAV?$tuple@$$$V@1@@Z@4HA 0000000180035c14     * CIL library *:* CIL module *
 0004:00001c20       $pdata$?catch$0@?0???$_Buynode@AEBUpiecewise_construct_t@std@@V?$tuple@AEBV?$basic_string@_WU?$char_traits@_W@std@@V?$allocator@_W@2@@std@@@2@V?$tuple@$$$V@2@@?$_Tree_buy@U?$pair@$$CBV?$basic_string@_WU?$char_traits@_W@std@@V?$allocator@_W@2@@std@@H@std@@V?$allocator@U?$pair@$$CBV?$basic_string@_WU?$char_traits@_W@std@@V?$allocator@_W@2@@std@@H@std@@@2@@std@@QEAAPEAU?$_Tree_node@U?$pair@$$CBV?$basic_string@_WU?$char_traits@_W@std@@V?$allocator@_W@2@@std@@H@std@@PEAX@1@AEBUpiecewise_construct_t@1@$$QEAV?$tuple@AEBV?$basic_string@_WU?$char_traits@_W@std@@V?$allocator@_W@2@@std@@@1@$$QEAV?$tuple@$$$V@1@@Z@4HA 0000000180035c20     * CIL library *:* CIL module *
 0004:00001c2c       $pdata$?catch$0@?0???$_Insert_hint@AEAU?$pair@$$CBV?$basic_string@_WU?$char_traits@_W@std@@V?$allocator@_W@2@@std@@H@std@@PEAU?$_Tree_node@U?$pair@$$CBV?$basic_string@_WU?$char_traits@_W@std@@V?$allocator@_W@2@@std@@H@std@@PEAX@2@@?$_Tree@V?$_Tmap_traits@V?$basic_string@_WU?$char_traits@_W@std@@V?$allocator@_W@2@@std@@HU?$less@V?$basic_string@_WU?$char_traits@_W@std@@V?$allocator@_W@2@@std@@@2@V?$allocator@U?$pair@$$CBV?$basic_string@_WU?$char_traits@_W@std@@V?$allocator@_W@2@@std@@H@std@@@2@$0A@@std@@@std@@IEAA?AV?$_Tree_iterator@V?$_Tree_val@U?$_Tree_simple_types@U?$pair@$$CBV?$basic_string@_WU?$char_traits@_W@std@@V?$allocator@_W@2@@std@@H@std@@@std@@@std@@@1@V?$_Tree_const_iterator@V?$_Tree_val@U?$_Tree_simple_types@U?$pair@$$CBV?$basic_string@_WU?$char_traits@_W@std@@V?$allocator@_W@2@@std@@H@std@@@std@@@std@@@1@AEAU?$pair@$$CBV?$basic_string@_WU?$char_traits@_W@std@@V?$allocator@_W@2@@std@@H@1@PEAU?$_Tree_node@U?$pair@$$CBV?$basic_string@_WU?$char_traits@_W@std@@V?$allocator@_W@2@@std@@H@std@@PEAX@1@@Z@4HA 0000000180035c2c     * CIL library *:* CIL module *
 0004:00001c38       $pdata$?catch$0@?0???$_Insert_nohint@AEAU?$pair@$$CBV?$basic_string@_WU?$char_traits@_W@std@@V?$allocator@_W@2@@std@@H@std@@PEAU?$_Tree_node@U?$pair@$$CBV?$basic_string@_WU?$char_traits@_W@std@@V?$allocator@_W@2@@std@@H@std@@PEAX@2@@?$_Tree@V?$_Tmap_traits@V?$basic_string@_WU?$char_traits@_W@std@@V?$allocator@_W@2@@std@@HU?$less@V?$basic_string@_WU?$char_traits@_W@std@@V?$allocator@_W@2@@std@@@2@V?$allocator@U?$pair@$$CBV?$basic_string@_WU?$char_traits@_W@std@@V?$allocator@_W@2@@std@@H@std@@@2@$0A@@std@@@std@@IEAA?AU?$pair@V?$_Tree_iterator@V?$_Tree_val@U?$_Tree_simple_types@U?$pair@$$CBV?$basic_string@_WU?$char_traits@_W@std@@V?$allocator@_W@2@@std@@H@std@@@std@@@std@@@std@@_N@1@_NAEAU?$pair@$$CBV?$basic_string@_WU?$char_traits@_W@std@@V?$allocator@_W@2@@std@@H@1@PEAU?$_Tree_node@U?$pair@$$CBV?$basic_string@_WU?$char_traits@_W@std@@V?$allocator@_W@2@@std@@H@std@@PEAX@1@@Z@4HA 0000000180035c38     * CIL library *:* CIL module *
 0004:00001c44       $pdata$?dtor$7@?0??xmlGet@CProfileIHVSecurity@@QEAAPEA_WXZ@4HA 0000000180035c44     * CIL library *:* CIL module *
 0004:00001c50       $pdata$?dtor$8@?0??xmlGet@CProfileIHVSecurity@@QEAAPEA_WXZ@4HA 0000000180035c50     * CIL library *:* CIL module *
 0004:00001c5c       $pdata$?dtor$2@?0??xmlGet@CProfileIHVConnectivity@@QEAAPEA_WXZ@4HA 0000000180035c5c     * CIL library *:* CIL module *
 0004:00001c68       $pdata$?dtor$3@?0??xmlGet@CProfileIHVConnectivity@@QEAAPEA_WXZ@4HA 0000000180035c68     * CIL library *:* CIL module *
 0004:00001c74       $pdata$?dtor$14@?0??xmlGet@CProfileIHVConnectivity@@QEAAPEA_WXZ@4HA 0000000180035c74     * CIL library *:* CIL module *
 0004:00001c80       $pdata$?dtor$15@?0??xmlGet@CProfileIHVConnectivity@@QEAAPEA_WXZ@4HA 0000000180035c80     * CIL library *:* CIL module *
 0004:00001c8c       $pdata$?dtor$21@?0??xmlGet@CProfileIHVConnectivity@@QEAAPEA_WXZ@4HA 0000000180035c8c     * CIL library *:* CIL module *
 0004:00001c98       $pdata$?dtor$22@?0??xmlGet@CProfileIHVConnectivity@@QEAAPEA_WXZ@4HA 0000000180035c98     * CIL library *:* CIL module *
 0004:00001ca4       $pdata$_onexit$fin$0       0000000180035ca4     LIBCMT:onexit.obj
 0004:00001cb0       $pdata$?catch$0@?0???2@YAPEAX_KAEBUnothrow_t@std@@@Z@4HA 0000000180035cb0     LIBCMT:newopnt.obj
 0004:00001cbc       $pdata$_CRT_INIT$fin$0     0000000180035cbc     LIBCMT:dllcrt0.obj
 0004:00001cc8       $pdata$__DllMainCRTStartup$filt$0 0000000180035cc8     LIBCMT:dllcrt0.obj
 0004:00001cd4       $pdata$?fin$0@?0??_Type_info_dtor@type_info@@CAXPEAV1@@Z@4HA 0000000180035cd4     LIBCMT:typname.obj
 0004:00001ce0       $pdata$doexit$fin$0        0000000180035ce0     LIBCMT:crt0dat.obj
 0004:00001cec       $pdata$_CallSETranslator$filt$0 0000000180035cec     LIBCMT:trnsctrl.obj
 0004:00001cf8       $pdata$__updatetlocinfo$fin$0 0000000180035cf8     LIBCMT:localref.obj
 0004:00001cf8       $pdata$_locterm$fin$0      0000000180035cf8     LIBCMT:localref.obj
 0004:00001d04       $pdata$__updatetmbcinfo$fin$0 0000000180035d04     LIBCMT:mbctype.obj
 0004:00001d04       $pdata$_setmbcp$fin$0      0000000180035d04     LIBCMT:mbctype.obj
 0004:00001d10       $pdata$_freefls$fin$1      0000000180035d10     LIBCMT:tidtable.obj
 0004:00001d10       $pdata$_initptd$fin$1      0000000180035d10     LIBCMT:tidtable.obj
 0004:00001d1c       $pdata$_initptd$fin$0      0000000180035d1c     LIBCMT:tidtable.obj
 0004:00001d1c       $pdata$_freefls$fin$0      0000000180035d1c     LIBCMT:tidtable.obj
 0004:00001d28       $pdata$_ioinit$fin$0       0000000180035d28     LIBCMT:ioinit.obj
 0004:00001d34       $pdata$_mtinitlocknum$fin$0 0000000180035d34     LIBCMT:mlock.obj
 0004:00001d40       $pdata$_lseeki64$fin$0     0000000180035d40     LIBCMT:lseeki64.obj
 0004:00001d40       $pdata$_write$fin$0        0000000180035d40     LIBCMT:lseeki64.obj
 0004:00001d4c       $pdata$_IsNonwritableInCurrentImage$filt$0 0000000180035d4c     LIBCMT:pesect.obj
 0004:00001d58       $pdata$raise$fin$0         0000000180035d58     LIBCMT:winsig.obj
 0004:00001d64       $pdata$__CxxCallCatchBlock$filt$0 0000000180035d64     LIBCMT:frame.obj
 0004:00001d70       $pdata$__CxxCallCatchBlock$fin$1 0000000180035d70     LIBCMT:frame.obj
 0004:00001d7c       $pdata$__DestructExceptionObject$filt$0 0000000180035d7c     LIBCMT:frame.obj
 0004:00001d88       $pdata$__FrameUnwindToState$filt$0 0000000180035d88     LIBCMT:frame.obj
 0004:00001d94       $pdata$__FrameUnwindToState$fin$1 0000000180035d94     LIBCMT:frame.obj
 0004:00001da0       $pdata$_fcloseall$fin$0    0000000180035da0     LIBCMT:closeall.obj
 0004:00001dac       $pdata$flsall$fin$0        0000000180035dac     LIBCMT:fflush.obj
 0004:00001db8       $pdata$flsall$fin$1        0000000180035db8     LIBCMT:fflush.obj
 0004:00001dc4       $pdata$__lock_fhandle$fin$0 0000000180035dc4     LIBCMT:osfinfo.obj
 0004:00001dd0       $pdata$fclose$fin$0        0000000180035dd0     LIBCMT:fclose.obj
 0004:00001ddc       $pdata$_commit$fin$0       0000000180035ddc     LIBCMT:close.obj
 0004:00001ddc       $pdata$_close$fin$0        0000000180035ddc     LIBCMT:close.obj
 0004:00001de8       $pdata$??__Fg_stringResMap@@YAXXZ 0000000180035de8     * CIL library *:* CIL module *
 0005:000179a0       $R000000                   000000018004d9a0     CCXExtUI.res
 0005:00017e70       $R0004D0                   000000018004de70     CCXExtUI.res
 0005:00018240       $R0008A0                   000000018004e240     CCXExtUI.res
 0005:00018368       $R0009C8                   000000018004e368     CCXExtUI.res
 0005:00019210       $R001870                   000000018004f210     CCXExtUI.res
 0005:00019238       $R001898                   000000018004f238     CCXExtUI.res
 0005:000197a0       $R001E00                   000000018004f7a0     CCXExtUI.res
 0005:000197b8       $R001E18                   000000018004f7b8     CCXExtUI.res
 0005:00019d20       $R002380                   000000018004fd20     CCXExtUI.res
 0005:00019d38       $R002398                   000000018004fd38     CCXExtUI.res
 0005:0001a2a0       $R002900                   00000001800502a0     CCXExtUI.res
 0005:0001a2b8       $R002918                   00000001800502b8     CCXExtUI.res
 0005:0001a820       $R002E80                   0000000180050820     CCXExtUI.res
 0005:0001a838       $R002E98                   0000000180050838     CCXExtUI.res
 0005:0001ada0       $R003400                   0000000180050da0     CCXExtUI.res
 0005:0001adb8       $R003418                   0000000180050db8     CCXExtUI.res
 0005:0001b320       $R003980                   0000000180051320     CCXExtUI.res
 0005:0001b338       $R003998                   0000000180051338     CCXExtUI.res
 0005:0001b8a0       $R003F00                   00000001800518a0     CCXExtUI.res
 0005:0001b8b8       $R003F18                   00000001800518b8     CCXExtUI.res
 0005:0001be20       $R004480                   0000000180051e20     CCXExtUI.res
 0005:0001be38       $R004498                   0000000180051e38     CCXExtUI.res
 0005:0001c3a0       $R004A00                   00000001800523a0     CCXExtUI.res
 0005:0001c3b8       $R004A18                   00000001800523b8     CCXExtUI.res
 0005:0001c920       $R004F80                   0000000180052920     CCXExtUI.res
 0005:0001c938       $R004F98                   0000000180052938     CCXExtUI.res
 0005:0001cea0       $R005500                   0000000180052ea0     CCXExtUI.res
 0005:0001ceb8       $R005518                   0000000180052eb8     CCXExtUI.res
 0005:0001d420       $R005A80                   0000000180053420     CCXExtUI.res
 0005:0001d438       $R005A98                   0000000180053438     CCXExtUI.res
 0005:0001d9a0       $R006000                   00000001800539a0     CCXExtUI.res
 0005:0001d9b8       $R006018                   00000001800539b8     CCXExtUI.res
 0005:0001df20       $R006580                   0000000180053f20     CCXExtUI.res
 0005:0001df38       $R006598                   0000000180053f38     CCXExtUI.res
 0005:0001e4a0       $R006B00                   00000001800544a0     CCXExtUI.res
 0005:0001e4b8       $R006B18                   00000001800544b8     CCXExtUI.res
 0005:0001ea20       $R007080                   0000000180054a20     CCXExtUI.res
 0005:0001ea38       $R007098                   0000000180054a38     CCXExtUI.res
 0005:0001efa0       $R007600                   0000000180054fa0     CCXExtUI.res
 0005:0001efb8       $R007618                   0000000180054fb8     CCXExtUI.res
 0005:0001f520       $R007B80                   0000000180055520     CCXExtUI.res
 0005:0001f538       $R007B98                   0000000180055538     CCXExtUI.res
 0005:0001faa0       $R008100                   0000000180055aa0     CCXExtUI.res
 0005:0001fab8       $R008118                   0000000180055ab8     CCXExtUI.res
 0005:00020020       $R008680                   0000000180056020     CCXExtUI.res
 0005:00020038       $R008698                   0000000180056038     CCXExtUI.res
 0005:000205a0       $R008C00                   00000001800565a0     CCXExtUI.res
 0005:000205b8       $R008C18                   00000001800565b8     CCXExtUI.res
 0005:00020b20       $R009180                   0000000180056b20     CCXExtUI.res
 0005:00020b38       $R009198                   0000000180056b38     CCXExtUI.res
 0005:000210a0       $R009700                   00000001800570a0     CCXExtUI.res
 0005:000210b8       $R009718                   00000001800570b8     CCXExtUI.res
 0005:00021620       $R009C80                   0000000180057620     CCXExtUI.res
 0005:00021638       $R009C98                   0000000180057638     CCXExtUI.res
 0005:00021ba0       $R00A200                   0000000180057ba0     CCXExtUI.res
 0005:00021bb8       $R00A218                   0000000180057bb8     CCXExtUI.res
 0005:00022120       $R00A780                   0000000180058120     CCXExtUI.res
 0005:00022138       $R00A798                   0000000180058138     CCXExtUI.res
 0005:000226a0       $R00AD00                   00000001800586a0     CCXExtUI.res
 0005:000226b8       $R00AD18                   00000001800586b8     CCXExtUI.res
 0005:00022c20       $R00B280                   0000000180058c20     CCXExtUI.res
 0005:00022c38       $R00B298                   0000000180058c38     CCXExtUI.res
 0005:000231a0       $R00B800                   00000001800591a0     CCXExtUI.res
 0005:000231b8       $R00B818                   00000001800591b8     CCXExtUI.res
 0005:00023720       $R00BD80                   0000000180059720     CCXExtUI.res
 0005:00023738       $R00BD98                   0000000180059738     CCXExtUI.res
 0005:00023ca0       $R00C300                   0000000180059ca0     CCXExtUI.res
 0005:00023cb8       $R00C318                   0000000180059cb8     CCXExtUI.res
 0005:00024220       $R00C880                   000000018005a220     CCXExtUI.res
 0005:00024238       $R00C898                   000000018005a238     CCXExtUI.res
 0005:000247a0       $R00CE00                   000000018005a7a0     CCXExtUI.res
 0005:000247b8       $R00CE18                   000000018005a7b8     CCXExtUI.res
 0005:00024d20       $R00D380                   000000018005ad20     CCXExtUI.res
 0005:00024d38       $R00D398                   000000018005ad38     CCXExtUI.res
 0005:000252a0       $R00D900                   000000018005b2a0     CCXExtUI.res
 0005:000252b8       $R00D918                   000000018005b2b8     CCXExtUI.res
 0005:00025820       $R00DE80                   000000018005b820     CCXExtUI.res
 0005:00025838       $R00DE98                   000000018005b838     CCXExtUI.res
 0005:00025da0       $R00E400                   000000018005bda0     CCXExtUI.res
 0005:00025db8       $R00E418                   000000018005bdb8     CCXExtUI.res
 0005:00026320       $R00E980                   000000018005c320     CCXExtUI.res
 0005:00026338       $R00E998                   000000018005c338     CCXExtUI.res
 0005:000268a0       $R00EF00                   000000018005c8a0     CCXExtUI.res
 0005:000268b8       $R00EF18                   000000018005c8b8     CCXExtUI.res
 0005:00026e20       $R00F480                   000000018005ce20     CCXExtUI.res
 0005:00026e38       $R00F498                   000000018005ce38     CCXExtUI.res
 0005:000273a0       $R00FA00                   000000018005d3a0     CCXExtUI.res
 0005:000273b8       $R00FA18                   000000018005d3b8     CCXExtUI.res
 0005:00027920       $R00FF80                   000000018005d920     CCXExtUI.res
 0005:00027938       $R00FF98                   000000018005d938     CCXExtUI.res
 0005:00027ea0       $R010500                   000000018005dea0     CCXExtUI.res
 0005:00027eb8       $R010518                   000000018005deb8     CCXExtUI.res
 0005:00028420       $R010A80                   000000018005e420     CCXExtUI.res
 0005:00028438       $R010A98                   000000018005e438     CCXExtUI.res
 0005:000289a0       $R011000                   000000018005e9a0     CCXExtUI.res
 0005:000289b8       $R011018                   000000018005e9b8     CCXExtUI.res
 0005:00028f20       $R011580                   000000018005ef20     CCXExtUI.res
 0005:00028f38       $R011598                   000000018005ef38     CCXExtUI.res
 0005:000294a0       $R011B00                   000000018005f4a0     CCXExtUI.res
 0005:000294b8       $R011B18                   000000018005f4b8     CCXExtUI.res
 0005:00029a20       $R012080                   000000018005fa20     CCXExtUI.res
 0005:00029a38       $R012098                   000000018005fa38     CCXExtUI.res
 0005:00029fa0       $R012600                   000000018005ffa0     CCXExtUI.res
 0005:00029fb8       $R012618                   000000018005ffb8     CCXExtUI.res
 0005:0002a520       $R012B80                   0000000180060520     CCXExtUI.res
 0005:0002a538       $R012B98                   0000000180060538     CCXExtUI.res
 0005:0002aaa0       $R013100                   0000000180060aa0     CCXExtUI.res
 0005:0002aab8       $R013118                   0000000180060ab8     CCXExtUI.res
 0005:0002b020       $R013680                   0000000180061020     CCXExtUI.res
 0005:0002b038       $R013698                   0000000180061038     CCXExtUI.res
 0005:0002b5a0       $R013C00                   00000001800615a0     CCXExtUI.res
 0005:0002b5b8       $R013C18                   00000001800615b8     CCXExtUI.res
 0005:0002bb20       $R014180                   0000000180061b20     CCXExtUI.res
 0005:0002bb38       $R014198                   0000000180061b38     CCXExtUI.res
 0005:0002c0a0       $R014700                   00000001800620a0     CCXExtUI.res
 0005:0002c0b8       $R014718                   00000001800620b8     CCXExtUI.res
 0005:0002c620       $R014C80                   0000000180062620     CCXExtUI.res
 0005:0002c638       $R014C98                   0000000180062638     CCXExtUI.res
 0005:0002cba0       $R015200                   0000000180062ba0     CCXExtUI.res
 0005:0002cbb8       $R015218                   0000000180062bb8     CCXExtUI.res
 0005:0002d120       $R015780                   0000000180063120     CCXExtUI.res
 0005:0002d138       $R015798                   0000000180063138     CCXExtUI.res
 0005:0002d6a0       $R015D00                   00000001800636a0     CCXExtUI.res
 0005:0002d6b8       $R015D18                   00000001800636b8     CCXExtUI.res
 0005:0002dc20       $R016280                   0000000180063c20     CCXExtUI.res
 0005:0002dc38       $R016298                   0000000180063c38     CCXExtUI.res
 0005:0002e1a0       $R016800                   00000001800641a0     CCXExtUI.res
 0005:0002e1b8       $R016818                   00000001800641b8     CCXExtUI.res
 0005:0002e720       $R016D80                   0000000180064720     CCXExtUI.res
 0005:0002e738       $R016D98                   0000000180064738     CCXExtUI.res
 0005:0002eca0       $R017300                   0000000180064ca0     CCXExtUI.res
 0005:0002ecb8       $R017318                   0000000180064cb8     CCXExtUI.res
 0005:0002f220       $R017880                   0000000180065220     CCXExtUI.res
 0005:0002f238       $R017898                   0000000180065238     CCXExtUI.res
 0005:0002f7a0       $R017E00                   00000001800657a0     CCXExtUI.res
 0005:0002f7b8       $R017E18                   00000001800657b8     CCXExtUI.res
 0005:0002fd20       $R018380                   0000000180065d20     CCXExtUI.res
 0005:0002fd38       $R018398                   0000000180065d38     CCXExtUI.res
 0005:000302a0       $R018900                   00000001800662a0     CCXExtUI.res
 0005:000302b8       $R018918                   00000001800662b8     CCXExtUI.res
 0005:00030820       $R018E80                   0000000180066820     CCXExtUI.res
 0005:00030838       $R018E98                   0000000180066838     CCXExtUI.res
 0005:00030da0       $R019400                   0000000180066da0     CCXExtUI.res
 0005:00030db8       $R019418                   0000000180066db8     CCXExtUI.res
 0005:00031320       $R019980                   0000000180067320     CCXExtUI.res
 0005:00031338       $R019998                   0000000180067338     CCXExtUI.res
 0005:000318a0       $R019F00                   00000001800678a0     CCXExtUI.res
 0005:000318b8       $R019F18                   00000001800678b8     CCXExtUI.res
 0005:00031e20       $R01A480                   0000000180067e20     CCXExtUI.res
 0005:00031e38       $R01A498                   0000000180067e38     CCXExtUI.res
 0005:000323a0       $R01AA00                   00000001800683a0     CCXExtUI.res
 0005:000323b8       $R01AA18                   00000001800683b8     CCXExtUI.res
 0005:00032920       $R01AF80                   0000000180068920     CCXExtUI.res
 0005:00032938       $R01AF98                   0000000180068938     CCXExtUI.res
 0005:00032ea0       $R01B500                   0000000180068ea0     CCXExtUI.res
 0005:00032eb8       $R01B518                   0000000180068eb8     CCXExtUI.res
 0005:00033420       $R01BA80                   0000000180069420     CCXExtUI.res
 0005:00033438       $R01BA98                   0000000180069438     CCXExtUI.res
 0005:000339a0       $R01C000                   00000001800699a0     CCXExtUI.res
 0005:000339b8       $R01C018                   00000001800699b8     CCXExtUI.res
 0005:00033f20       $R01C580                   0000000180069f20     CCXExtUI.res
 0005:00033f38       $R01C598                   0000000180069f38     CCXExtUI.res
 0005:000344a0       $R01CB00                   000000018006a4a0     CCXExtUI.res
 0005:000344b8       $R01CB18                   000000018006a4b8     CCXExtUI.res
 0005:00034a20       $R01D080                   000000018006aa20     CCXExtUI.res
 0005:00034a38       $R01D098                   000000018006aa38     CCXExtUI.res
 0005:00034fa0       $R01D600                   000000018006afa0     CCXExtUI.res
 0005:00034fb8       $R01D618                   000000018006afb8     CCXExtUI.res
 0005:00035520       $R01DB80                   000000018006b520     CCXExtUI.res
 0005:00035538       $R01DB98                   000000018006b538     CCXExtUI.res
 0005:00035aa0       $R01E100                   000000018006baa0     CCXExtUI.res
 0005:00035ab8       $R01E118                   000000018006bab8     CCXExtUI.res
 0005:00036020       $R01E680                   000000018006c020     CCXExtUI.res
 0005:00036038       $R01E698                   000000018006c038     CCXExtUI.res
 0005:000365a0       $R01EC00                   000000018006c5a0     CCXExtUI.res
 0005:000365b8       $R01EC18                   000000018006c5b8     CCXExtUI.res
 0005:00036b20       $R01F180                   000000018006cb20     CCXExtUI.res
 0005:00036b38       $R01F198                   000000018006cb38     CCXExtUI.res
 0005:000370a0       $R01F700                   000000018006d0a0     CCXExtUI.res
 0005:000370b8       $R01F718                   000000018006d0b8     CCXExtUI.res
 0005:00037620       $R01FC80                   000000018006d620     CCXExtUI.res
 0005:00037638       $R01FC98                   000000018006d638     CCXExtUI.res
 0005:00037ba0       $R020200                   000000018006dba0     CCXExtUI.res
 0005:00037bb8       $R020218                   000000018006dbb8     CCXExtUI.res
 0005:00038120       $R020780                   000000018006e120     CCXExtUI.res
 0005:00038138       $R020798                   000000018006e138     CCXExtUI.res
 0005:000386a0       $R020D00                   000000018006e6a0     CCXExtUI.res
 0005:000386b8       $R020D18                   000000018006e6b8     CCXExtUI.res
 0005:00038c20       $R021280                   000000018006ec20     CCXExtUI.res
 0005:00038c38       $R021298                   000000018006ec38     CCXExtUI.res
 0005:000391a0       $R021800                   000000018006f1a0     CCXExtUI.res
 0005:000391b8       $R021818                   000000018006f1b8     CCXExtUI.res
 0005:00039720       $R021D80                   000000018006f720     CCXExtUI.res
 0005:00039738       $R021D98                   000000018006f738     CCXExtUI.res
 0005:00039ca0       $R022300                   000000018006fca0     CCXExtUI.res
 0005:00039cb8       $R022318                   000000018006fcb8     CCXExtUI.res
 0005:0003a220       $R022880                   0000000180070220     CCXExtUI.res
 0005:0003a238       $R022898                   0000000180070238     CCXExtUI.res
 0005:0003a7a0       $R022E00                   00000001800707a0     CCXExtUI.res
 0005:0003a7b8       $R022E18                   00000001800707b8     CCXExtUI.res
 0005:0003ad20       $R023380                   0000000180070d20     CCXExtUI.res
 0005:0003ad38       $R023398                   0000000180070d38     CCXExtUI.res
 0005:0003b2a0       $R023900                   00000001800712a0     CCXExtUI.res
 0005:0003b2b8       $R023918                   00000001800712b8     CCXExtUI.res
 0005:0003b820       $R023E80                   0000000180071820     CCXExtUI.res
 0005:0003b838       $R023E98                   0000000180071838     CCXExtUI.res
 0005:0003bda0       $R024400                   0000000180071da0     CCXExtUI.res
 0005:0003bdb8       $R024418                   0000000180071db8     CCXExtUI.res
 0005:0003c320       $R024980                   0000000180072320     CCXExtUI.res
 0005:0003c338       $R024998                   0000000180072338     CCXExtUI.res
 0005:0003c8a0       $R024F00                   00000001800728a0     CCXExtUI.res
 0005:0003c8b8       $R024F18                   00000001800728b8     CCXExtUI.res
 0005:0003ce20       $R025480                   0000000180072e20     CCXExtUI.res
 0005:0003ce38       $R025498                   0000000180072e38     CCXExtUI.res
 0005:0003d3a0       $R025A00                   00000001800733a0     CCXExtUI.res
 0005:0003d3b8       $R025A18                   00000001800733b8     CCXExtUI.res
 0005:0003d920       $R025F80                   0000000180073920     CCXExtUI.res
 0005:0003d938       $R025F98                   0000000180073938     CCXExtUI.res
 0005:0003dea0       $R026500                   0000000180073ea0     CCXExtUI.res
 0005:0003deb8       $R026518                   0000000180073eb8     CCXExtUI.res
 0005:0003e420       $R026A80                   0000000180074420     CCXExtUI.res
 0005:0003e438       $R026A98                   0000000180074438     CCXExtUI.res
 0005:0003e9a0       $R027000                   00000001800749a0     CCXExtUI.res
 0005:0003e9b8       $R027018                   00000001800749b8     CCXExtUI.res
 0005:0003ef20       $R027580                   0000000180074f20     CCXExtUI.res
 0005:0003ef38       $R027598                   0000000180074f38     CCXExtUI.res
 0005:0003f4a0       $R027B00                   00000001800754a0     CCXExtUI.res
 0005:0003f4b8       $R027B18                   00000001800754b8     CCXExtUI.res
 0005:0003fa20       $R028080                   0000000180075a20     CCXExtUI.res
 0005:0003fa38       $R028098                   0000000180075a38     CCXExtUI.res
 0005:0003ffa0       $R028600                   0000000180075fa0     CCXExtUI.res
 0005:0003ffb8       $R028618                   0000000180075fb8     CCXExtUI.res
 0005:00040520       $R028B80                   0000000180076520     CCXExtUI.res
 0005:00040538       $R028B98                   0000000180076538     CCXExtUI.res
 0005:00040aa0       $R029100                   0000000180076aa0     CCXExtUI.res
 0005:00040ab8       $R029118                   0000000180076ab8     CCXExtUI.res
 0005:00041020       $R029680                   0000000180077020     CCXExtUI.res
 0005:00041038       $R029698                   0000000180077038     CCXExtUI.res
 0005:000415a0       $R029C00                   00000001800775a0     CCXExtUI.res
 0005:000415b8       $R029C18                   00000001800775b8     CCXExtUI.res
 0005:00041b20       $R02A180                   0000000180077b20     CCXExtUI.res
 0005:00041b38       $R02A198                   0000000180077b38     CCXExtUI.res
 0005:000420a0       $R02A700                   00000001800780a0     CCXExtUI.res
 0005:000420b8       $R02A718                   00000001800780b8     CCXExtUI.res
 0005:00042620       $R02AC80                   0000000180078620     CCXExtUI.res
 0005:00042638       $R02AC98                   0000000180078638     CCXExtUI.res
 0005:00042ba0       $R02B200                   0000000180078ba0     CCXExtUI.res
 0005:00042bb8       $R02B218                   0000000180078bb8     CCXExtUI.res
 0005:00043120       $R02B780                   0000000180079120     CCXExtUI.res
 0005:00043138       $R02B798                   0000000180079138     CCXExtUI.res
 0005:000436a0       $R02BD00                   00000001800796a0     CCXExtUI.res
 0005:000436b8       $R02BD18                   00000001800796b8     CCXExtUI.res
 0005:00043c20       $R02C280                   0000000180079c20     CCXExtUI.res
 0005:00043c38       $R02C298                   0000000180079c38     CCXExtUI.res
 0005:000441a0       $R02C800                   000000018007a1a0     CCXExtUI.res
 0005:000441b8       $R02C818                   000000018007a1b8     CCXExtUI.res
 0005:00044720       $R02CD80                   000000018007a720     CCXExtUI.res
 0005:00044738       $R02CD98                   000000018007a738     CCXExtUI.res
 0005:00044ca0       $R02D300                   000000018007aca0     CCXExtUI.res
 0005:00044cb8       $R02D318                   000000018007acb8     CCXExtUI.res
 0005:00045220       $R02D880                   000000018007b220     CCXExtUI.res
 0005:00045238       $R02D898                   000000018007b238     CCXExtUI.res
 0005:000457a0       $R02DE00                   000000018007b7a0     CCXExtUI.res
 0005:000457b8       $R02DE18                   000000018007b7b8     CCXExtUI.res
 0005:00045d20       $R02E380                   000000018007bd20     CCXExtUI.res
 0005:00045d38       $R02E398                   000000018007bd38     CCXExtUI.res
 0005:000462a0       $R02E900                   000000018007c2a0     CCXExtUI.res
 0005:000462b8       $R02E918                   000000018007c2b8     CCXExtUI.res
 0005:00046820       $R02EE80                   000000018007c820     CCXExtUI.res
 0005:00046838       $R02EE98                   000000018007c838     CCXExtUI.res
 0005:00046da0       $R02F400                   000000018007cda0     CCXExtUI.res
 0005:00046db8       $R02F418                   000000018007cdb8     CCXExtUI.res
 0005:00047320       $R02F980                   000000018007d320     CCXExtUI.res
 0005:00047338       $R02F998                   000000018007d338     CCXExtUI.res
 0005:000478a0       $R02FF00                   000000018007d8a0     CCXExtUI.res
 0005:000478b8       $R02FF18                   000000018007d8b8     CCXExtUI.res
 0005:00047e20       $R030480                   000000018007de20     CCXExtUI.res
 0005:00047e38       $R030498                   000000018007de38     CCXExtUI.res
 0005:000483a0       $R030A00                   000000018007e3a0     CCXExtUI.res
 0005:000483b8       $R030A18                   000000018007e3b8     CCXExtUI.res
 0005:00048920       $R030F80                   000000018007e920     CCXExtUI.res
 0005:00048938       $R030F98                   000000018007e938     CCXExtUI.res
 0005:00048ea0       $R031500                   000000018007eea0     CCXExtUI.res
 0005:00048eb8       $R031518                   000000018007eeb8     CCXExtUI.res
 0005:00049420       $R031A80                   000000018007f420     CCXExtUI.res
 0005:00049438       $R031A98                   000000018007f438     CCXExtUI.res
 0005:000499a0       $R032000                   000000018007f9a0     CCXExtUI.res
 0005:000499b8       $R032018                   000000018007f9b8     CCXExtUI.res
 0005:00049f20       $R032580                   000000018007ff20     CCXExtUI.res
 0005:00049f38       $R032598                   000000018007ff38     CCXExtUI.res
 0005:0004a4a0       $R032B00                   00000001800804a0     CCXExtUI.res
 0005:0004a4b8       $R032B18                   00000001800804b8     CCXExtUI.res
 0005:0004aa20       $R033080                   0000000180080a20     CCXExtUI.res
 0005:0004aa38       $R033098                   0000000180080a38     CCXExtUI.res
 0005:0004afa0       $R033600                   0000000180080fa0     CCXExtUI.res
 0005:0004afb8       $R033618                   0000000180080fb8     CCXExtUI.res
 0005:0004b520       $R033B80                   0000000180081520     CCXExtUI.res
 0005:0004b538       $R033B98                   0000000180081538     CCXExtUI.res
 0005:0004baa0       $R034100                   0000000180081aa0     CCXExtUI.res
 0005:0004bab8       $R034118                   0000000180081ab8     CCXExtUI.res
 0005:0004c020       $R034680                   0000000180082020     CCXExtUI.res
 0005:0004c038       $R034698                   0000000180082038     CCXExtUI.res
 0005:0004c5a0       $R034C00                   00000001800825a0     CCXExtUI.res
 0005:0004c5b8       $R034C18                   00000001800825b8     CCXExtUI.res
 0005:0004cb20       $R035180                   0000000180082b20     CCXExtUI.res
 0005:0004cb38       $R035198                   0000000180082b38     CCXExtUI.res
 0005:0004d0a0       $R035700                   00000001800830a0     CCXExtUI.res
 0005:0004d0b8       $R035718                   00000001800830b8     CCXExtUI.res
 0005:0004d620       $R035C80                   0000000180083620     CCXExtUI.res
 0005:0004d638       $R035C98                   0000000180083638     CCXExtUI.res
 0005:0004dba0       $R036200                   0000000180083ba0     CCXExtUI.res
 0005:0004dbb8       $R036218                   0000000180083bb8     CCXExtUI.res
 0005:0004e120       $R036780                   0000000180084120     CCXExtUI.res
 0005:0004e138       $R036798                   0000000180084138     CCXExtUI.res
 0005:0004e6a0       $R036D00                   00000001800846a0     CCXExtUI.res
 0005:0004e6b8       $R036D18                   00000001800846b8     CCXExtUI.res
 0005:0004ec20       $R037280                   0000000180084c20     CCXExtUI.res
 0005:0004ec38       $R037298                   0000000180084c38     CCXExtUI.res
 0005:0004f1a0       $R037800                   00000001800851a0     CCXExtUI.res
 0005:0004f1b8       $R037818                   00000001800851b8     CCXExtUI.res
 0005:0004f720       $R037D80                   0000000180085720     CCXExtUI.res
 0005:0004f738       $R037D98                   0000000180085738     CCXExtUI.res
 0005:0004fca0       $R038300                   0000000180085ca0     CCXExtUI.res
 0005:0004fcb8       $R038318                   0000000180085cb8     CCXExtUI.res
 0005:00050220       $R038880                   0000000180086220     CCXExtUI.res
 0005:00050238       $R038898                   0000000180086238     CCXExtUI.res
 0005:000507a0       $R038E00                   00000001800867a0     CCXExtUI.res
 0005:000507b8       $R038E18                   00000001800867b8     CCXExtUI.res
 0005:00050d20       $R039380                   0000000180086d20     CCXExtUI.res
 0005:00050d38       $R039398                   0000000180086d38     CCXExtUI.res
 0005:000512a0       $R039900                   00000001800872a0     CCXExtUI.res
 0005:000512b8       $R039918                   00000001800872b8     CCXExtUI.res
 0005:00051820       $R039E80                   0000000180087820     CCXExtUI.res
 0005:00051838       $R039E98                   0000000180087838     CCXExtUI.res
 0005:00051da0       $R03A400                   0000000180087da0     CCXExtUI.res
 0005:00051db8       $R03A418                   0000000180087db8     CCXExtUI.res
 0005:00052320       $R03A980                   0000000180088320     CCXExtUI.res
 0005:00052338       $R03A998                   0000000180088338     CCXExtUI.res
 0005:000528a0       $R03AF00                   00000001800888a0     CCXExtUI.res
 0005:000528b8       $R03AF18                   00000001800888b8     CCXExtUI.res
 0005:00052e20       $R03B480                   0000000180088e20     CCXExtUI.res
 0005:00052e38       $R03B498                   0000000180088e38     CCXExtUI.res
 0005:000533a0       $R03BA00                   00000001800893a0     CCXExtUI.res
 0005:000533b8       $R03BA18                   00000001800893b8     CCXExtUI.res
 0005:00053820       $R03BE80                   0000000180089820     CCXExtUI.res
 0005:00053838       $R03BE98                   0000000180089838     CCXExtUI.res
 0005:00053ca0       $R03C300                   0000000180089ca0     CCXExtUI.res
 0005:00053cb8       $R03C318                   0000000180089cb8     CCXExtUI.res
 0005:00054120       $R03C780                   000000018008a120     CCXExtUI.res
 0005:00054138       $R03C798                   000000018008a138     CCXExtUI.res
 0005:000545a0       $R03CC00                   000000018008a5a0     CCXExtUI.res
 0005:000545b8       $R03CC18                   000000018008a5b8     CCXExtUI.res
 0005:00054a20       $R03D080                   000000018008aa20     CCXExtUI.res
 0005:00054a38       $R03D098                   000000018008aa38     CCXExtUI.res
 0005:00054ea0       $R03D500                   000000018008aea0     CCXExtUI.res
 0005:00054eb8       $R03D518                   000000018008aeb8     CCXExtUI.res
 0005:00055320       $R03D980                   000000018008b320     CCXExtUI.res
 0005:00055338       $R03D998                   000000018008b338     CCXExtUI.res
 0005:000557a0       $R03DE00                   000000018008b7a0     CCXExtUI.res
 0005:000557b8       $R03DE18                   000000018008b7b8     CCXExtUI.res
 0005:00055c20       $R03E280                   000000018008bc20     CCXExtUI.res
 0005:00055c38       $R03E298                   000000018008bc38     CCXExtUI.res
 0005:000560a0       $R03E700                   000000018008c0a0     CCXExtUI.res
 0005:000560b8       $R03E718                   000000018008c0b8     CCXExtUI.res
 0005:00056520       $R03EB80                   000000018008c520     CCXExtUI.res
 0005:00056538       $R03EB98                   000000018008c538     CCXExtUI.res
 0005:000569a0       $R03F000                   000000018008c9a0     CCXExtUI.res
 0005:000569b8       $R03F018                   000000018008c9b8     CCXExtUI.res
 0005:00056e20       $R03F480                   000000018008ce20     CCXExtUI.res
 0005:00056e38       $R03F498                   000000018008ce38     CCXExtUI.res
 0005:000572a0       $R03F900                   000000018008d2a0     CCXExtUI.res
 0005:000572b8       $R03F918                   000000018008d2b8     CCXExtUI.res
 0005:00057720       $R03FD80                   000000018008d720     CCXExtUI.res
 0005:00057738       $R03FD98                   000000018008d738     CCXExtUI.res
 0005:00057ba0       $R040200                   000000018008dba0     CCXExtUI.res
 0005:00057bb8       $R040218                   000000018008dbb8     CCXExtUI.res
 0005:00058020       $R040680                   000000018008e020     CCXExtUI.res
 0005:00058038       $R040698                   000000018008e038     CCXExtUI.res
 0005:000584a0       $R040B00                   000000018008e4a0     CCXExtUI.res
 0005:000584b8       $R040B18                   000000018008e4b8     CCXExtUI.res
 0005:00058920       $R040F80                   000000018008e920     CCXExtUI.res
 0005:00058938       $R040F98                   000000018008e938     CCXExtUI.res
 0005:00058da0       $R041400                   000000018008eda0     CCXExtUI.res
 0005:00058db8       $R041418                   000000018008edb8     CCXExtUI.res
 0005:00059220       $R041880                   000000018008f220     CCXExtUI.res
 0005:00059238       $R041898                   000000018008f238     CCXExtUI.res
 0005:000596a0       $R041D00                   000000018008f6a0     CCXExtUI.res
 0005:000596b8       $R041D18                   000000018008f6b8     CCXExtUI.res
 0005:00059b20       $R042180                   000000018008fb20     CCXExtUI.res
 0005:00059b38       $R042198                   000000018008fb38     CCXExtUI.res
 0005:00059c60       $R0422C0                   000000018008fc60     CCXExtUI.res
 0005:00059c78       $R0422D8                   000000018008fc78     CCXExtUI.res
 0005:00059da0       $R042400                   000000018008fda0     CCXExtUI.res
 0005:00059db8       $R042418                   000000018008fdb8     CCXExtUI.res
 0005:0005d900       $R045F60                   0000000180093900     CCXExtUI.res
 0005:0005f128       $R047788                   0000000180095128     CCXExtUI.res
 0005:00061610       $R049C70                   0000000180097610     CCXExtUI.res
 0005:00063cb8       $R04C318                   0000000180099cb8     CCXExtUI.res
 0005:00063cd0       $R04C330                   0000000180099cd0     CCXExtUI.res
 0005:00064070       $R04C6D0                   000000018009a070     CCXExtUI.res
 0005:00064230       $R04C890                   000000018009a230     CCXExtUI.res
 0005:00064ad8       $R04D138                   000000018009aad8     CCXExtUI.res
 0005:00064af0       $R04D150                   000000018009aaf0     CCXExtUI.res
 0005:00064d60       $R04D3C0                   000000018009ad60     CCXExtUI.res
 0005:00064dd8       $R04D438                   000000018009add8     CCXExtUI.res
 0005:00065680       $R04DCE0                   000000018009b680     CCXExtUI.res
 0005:00065698       $R04DCF8                   000000018009b698     CCXExtUI.res
 0005:00065ba8       $R04E208                   000000018009bba8     CCXExtUI.res
 0005:00065ee8       $R04E548                   000000018009bee8     CCXExtUI.res
 0005:00066178       $R04E7D8                   000000018009c178     CCXExtUI.res
 0005:00066448       $R04EAA8                   000000018009c448     CCXExtUI.res
 0005:00066858       $R04EEB8                   000000018009c858     CCXExtUI.res
 0005:00066d08       $R04F368                   000000018009cd08     CCXExtUI.res
 0005:00067030       $R04F690                   000000018009d030     CCXExtUI.res
 0005:000674e0       $R04FB40                   000000018009d4e0     CCXExtUI.res
 0005:00067da8       $R050408                   000000018009dda8     CCXExtUI.res
 0005:00068140       $R0507A0                   000000018009e140     CCXExtUI.res
 0005:00068658       $R050CB8                   000000018009e658     CCXExtUI.res
 0005:00068aa8       $R051108                   000000018009eaa8     CCXExtUI.res
 0005:00068e90       $R0514F0                   000000018009ee90     CCXExtUI.res
 0005:00069350       $R0519B0                   000000018009f350     CCXExtUI.res
 0005:000695a8       $R051C08                   000000018009f5a8     CCXExtUI.res
 0005:00069ae0       $R052140                   000000018009fae0     CCXExtUI.res
 0005:00069c48       $R0522A8                   000000018009fc48     CCXExtUI.res
 0005:0006a148       $R0527A8                   00000001800a0148     CCXExtUI.res
 0005:0006a330       $R052990                   00000001800a0330     CCXExtUI.res
 0005:0006a4c0       $R052B20                   00000001800a04c0     CCXExtUI.res
 0005:0006a8f0       $R052F50                   00000001800a08f0     CCXExtUI.res
 0005:0006ad80       $R0533E0                   00000001800a0d80     CCXExtUI.res
 0005:0006b1e0       $R053840                   00000001800a11e0     CCXExtUI.res
 0005:0006b4b0       $R053B10                   00000001800a14b0     CCXExtUI.res
 0005:0006bb88       $R0541E8                   00000001800a1b88     CCXExtUI.res
 0005:0006c1c8       $R054828                   00000001800a21c8     CCXExtUI.res
 0005:0006c6f8       $R054D58                   00000001800a26f8     CCXExtUI.res
 0005:0006c9c0       $R055020                   00000001800a29c0     CCXExtUI.res
 0005:0006d0f8       $R055758                   00000001800a30f8     CCXExtUI.res
 0005:0006d3a0       $R055A00                   00000001800a33a0     CCXExtUI.res
 0005:0006d678       $R055CD8                   00000001800a3678     CCXExtUI.res
 0005:0006d920       $R055F80                   00000001800a3920     CCXExtUI.res
 0005:0006dbe8       $R056248                   00000001800a3be8     CCXExtUI.res
 0005:0006e300       $R056960                   00000001800a4300     CCXExtUI.res
 0005:0006e758       $R056DB8                   00000001800a4758     CCXExtUI.res
 0005:0006e9d0       $R057030                   00000001800a49d0     CCXExtUI.res
 0005:0006eea8       $R057508                   00000001800a4ea8     CCXExtUI.res
 0005:0006f2d0       $R057930                   00000001800a52d0     CCXExtUI.res
 0005:0006f838       $R057E98                   00000001800a5838     CCXExtUI.res
 0005:0006fc00       $R058260                   00000001800a5c00     CCXExtUI.res
 0005:00070020       $R058680                   00000001800a6020     CCXExtUI.res
 0005:00070380       $R0589E0                   00000001800a6380     CCXExtUI.res
 0005:000706f8       $R058D58                   00000001800a66f8     CCXExtUI.res
 0005:00070a30       $R059090                   00000001800a6a30     CCXExtUI.res
 0005:00070ba8       $R059208                   00000001800a6ba8     CCXExtUI.res
 0005:00070dc8       $R059428                   00000001800a6dc8     CCXExtUI.res
 0005:00071160       $R0597C0                   00000001800a7160     CCXExtUI.res
 0005:00071488       $R059AE8                   00000001800a7488     CCXExtUI.res
 0005:00071668       $R059CC8                   00000001800a7668     CCXExtUI.res
 0005:000719a0       $R05A000                   00000001800a79a0     CCXExtUI.res
 0005:00072188       $R05A7E8                   00000001800a8188     CCXExtUI.res
 0005:00072cc8       $R05B328                   00000001800a8cc8     CCXExtUI.res
 0005:00073148       $R05B7A8                   00000001800a9148     CCXExtUI.res
 0005:00073a30       $R05C090                   00000001800a9a30     CCXExtUI.res
 0005:00073ee8       $R05C548                   00000001800a9ee8     CCXExtUI.res
 0005:00074378       $R05C9D8                   00000001800aa378     CCXExtUI.res
 0005:00074710       $R05CD70                   00000001800aa710     CCXExtUI.res
 0005:00074cd0       $R05D330                   00000001800aacd0     CCXExtUI.res
 0005:00075428       $R05DA88                   00000001800ab428     CCXExtUI.res
 0005:000756f0       $R05DD50                   00000001800ab6f0     CCXExtUI.res
 0005:00075ae8       $R05E148                   00000001800abae8     CCXExtUI.res
 0005:00075e98       $R05E4F8                   00000001800abe98     CCXExtUI.res
 0005:000763a0       $R05EA00                   00000001800ac3a0     CCXExtUI.res
 0005:00076990       $R05EFF0                   00000001800ac990     CCXExtUI.res
 0005:00076d98       $R05F3F8                   00000001800acd98     CCXExtUI.res
 0005:00077398       $R05F9F8                   00000001800ad398     CCXExtUI.res
 0005:00077868       $R05FEC8                   00000001800ad868     CCXExtUI.res
 0005:00077c88       $R0602E8                   00000001800adc88     CCXExtUI.res
 0005:000781f8       $R060858                   00000001800ae1f8     CCXExtUI.res
 0005:000786e8       $R060D48                   00000001800ae6e8     CCXExtUI.res
 0005:00078c40       $R0612A0                   00000001800aec40     CCXExtUI.res
 0005:00078f30       $R061590                   00000001800aef30     CCXExtUI.res
 0005:00078fc0       $R061620                   00000001800aefc0     CCXExtUI.res
 0005:000790f8       $R061758                   00000001800af0f8     CCXExtUI.res
 0005:00079230       $R061890                   00000001800af230     CCXExtUI.res
 0005:00079388       $R0619E8                   00000001800af388     CCXExtUI.res
 0005:000794c0       $R061B20                   00000001800af4c0     CCXExtUI.res
 0005:00079648       $R061CA8                   00000001800af648     CCXExtUI.res
 0005:00079768       $R061DC8                   00000001800af768     CCXExtUI.res
 0005:00079858       $R061EB8                   00000001800af858     CCXExtUI.res
 0005:00079988       $R061FE8                   00000001800af988     CCXExtUI.res
 0005:00079aa0       $R062100                   00000001800afaa0     CCXExtUI.res
 0005:00079bf8       $R062258                   00000001800afbf8     CCXExtUI.res
 0005:00079d08       $R062368                   00000001800afd08     CCXExtUI.res
 0005:00079e90       $R0624F0                   00000001800afe90     CCXExtUI.res
 0005:00079fd8       $R062638                   00000001800affd8     CCXExtUI.res
 0005:0007a180       $R0627E0                   00000001800b0180     CCXExtUI.res
 0005:0007a308       $R062968                   00000001800b0308     CCXExtUI.res
 0005:0007a350       $R0629B0                   00000001800b0350     CCXExtUI.res
 0005:0007a8f0       $R062F50                   00000001800b08f0     CCXExtUI.res
 0005:0007ac58       $R0632B8                   00000001800b0c58     CCXExtUI.res
 0005:0007af30       $R063590                   00000001800b0f30     CCXExtUI.res
 0005:0007b250       $R0638B0                   00000001800b1250     CCXExtUI.res
 0005:0007b710       $R063D70                   00000001800b1710     CCXExtUI.res
 0005:0007bbb8       $R064218                   00000001800b1bb8     CCXExtUI.res
 0005:0007bf60       $R0645C0                   00000001800b1f60     CCXExtUI.res
 0005:0007c580       $R064BE0                   00000001800b2580     CCXExtUI.res
 0005:0007cea8       $R065508                   00000001800b2ea8     CCXExtUI.res
 0005:0007d300       $R065960                   00000001800b3300     CCXExtUI.res
 0005:0007d978       $R065FD8                   00000001800b3978     CCXExtUI.res
 0005:0007ded0       $R066530                   00000001800b3ed0     CCXExtUI.res
 0005:0007e338       $R066998                   00000001800b4338     CCXExtUI.res
 0005:0007e920       $R066F80                   00000001800b4920     CCXExtUI.res
 0005:0007eb88       $R0671E8                   00000001800b4b88     CCXExtUI.res
 0005:0007f1b8       $R067818                   00000001800b51b8     CCXExtUI.res
 0005:0007f350       $R0679B0                   00000001800b5350     CCXExtUI.res
 0005:0007f9b0       $R068010                   00000001800b59b0     CCXExtUI.res
 0005:0007fbf0       $R068250                   00000001800b5bf0     CCXExtUI.res
 0005:0007fdc0       $R068420                   00000001800b5dc0     CCXExtUI.res
 0005:00080258       $R0688B8                   00000001800b6258     CCXExtUI.res
 0005:000807d8       $R068E38                   00000001800b67d8     CCXExtUI.res
 0005:00080d48       $R0693A8                   00000001800b6d48     CCXExtUI.res
 0005:00081048       $R0696A8                   00000001800b7048     CCXExtUI.res
 0005:00081818       $R069E78                   00000001800b7818     CCXExtUI.res
 0005:00081f38       $R06A598                   00000001800b7f38     CCXExtUI.res
 0005:00082558       $R06ABB8                   00000001800b8558     CCXExtUI.res
 0005:00082890       $R06AEF0                   00000001800b8890     CCXExtUI.res
 0005:00083088       $R06B6E8                   00000001800b9088     CCXExtUI.res
 0005:00083400       $R06BA60                   00000001800b9400     CCXExtUI.res
 0005:00083780       $R06BDE0                   00000001800b9780     CCXExtUI.res
 0005:00083a58       $R06C0B8                   00000001800b9a58     CCXExtUI.res
 0005:00083dd0       $R06C430                   00000001800b9dd0     CCXExtUI.res
 0005:00084620       $R06CC80                   00000001800ba620     CCXExtUI.res
 0005:00084b28       $R06D188                   00000001800bab28     CCXExtUI.res
 0005:00084e08       $R06D468                   00000001800bae08     CCXExtUI.res
 0005:00085358       $R06D9B8                   00000001800bb358     CCXExtUI.res
 0005:00085828       $R06DE88                   00000001800bb828     CCXExtUI.res
 0005:00085e58       $R06E4B8                   00000001800bbe58     CCXExtUI.res
 0005:000862b0       $R06E910                   00000001800bc2b0     CCXExtUI.res
 0005:00086770       $R06EDD0                   00000001800bc770     CCXExtUI.res
 0005:00086b80       $R06F1E0                   00000001800bcb80     CCXExtUI.res
 0005:00086fe8       $R06F648                   00000001800bcfe8     CCXExtUI.res
 0005:00087410       $R06FA70                   00000001800bd410     CCXExtUI.res
 0005:000875e8       $R06FC48                   00000001800bd5e8     CCXExtUI.res
 0005:000878a8       $R06FF08                   00000001800bd8a8     CCXExtUI.res
 0005:00087c80       $R0702E0                   00000001800bdc80     CCXExtUI.res
 0005:00088008       $R070668                   00000001800be008     CCXExtUI.res
 0005:000881b8       $R070818                   00000001800be1b8     CCXExtUI.res
 0005:00088568       $R070BC8                   00000001800be568     CCXExtUI.res
 0005:00088e08       $R071468                   00000001800bee08     CCXExtUI.res
 0005:00089a08       $R072068                   00000001800bfa08     CCXExtUI.res
 0005:00089f48       $R0725A8                   00000001800bff48     CCXExtUI.res
 0005:0008a7e8       $R072E48                   00000001800c07e8     CCXExtUI.res
 0005:0008ad88       $R0733E8                   00000001800c0d88     CCXExtUI.res
 0005:0008b2c0       $R073920                   00000001800c12c0     CCXExtUI.res
 0005:0008b768       $R073DC8                   00000001800c1768     CCXExtUI.res
 0005:0008c068       $R0746C8                   00000001800c2068     CCXExtUI.res
 0005:0008ca28       $R075088                   00000001800c2a28     CCXExtUI.res
 0005:0008cdf8       $R075458                   00000001800c2df8     CCXExtUI.res
 0005:0008d3e0       $R075A40                   00000001800c33e0     CCXExtUI.res
 0005:0008d860       $R075EC0                   00000001800c3860     CCXExtUI.res
 0005:0008df58       $R0765B8                   00000001800c3f58     CCXExtUI.res
 0005:0008e690       $R076CF0                   00000001800c4690     CCXExtUI.res
 0005:0008ec10       $R077270                   00000001800c4c10     CCXExtUI.res
 0005:0008f3a0       $R077A00                   00000001800c53a0     CCXExtUI.res
 0005:0008f880       $R077EE0                   00000001800c5880     CCXExtUI.res
 0005:0008fd90       $R0783F0                   00000001800c5d90     CCXExtUI.res
 0005:00090400       $R078A60                   00000001800c6400     CCXExtUI.res
 0005:00090a18       $R079078                   00000001800c6a18     CCXExtUI.res
 0005:00090ff8       $R079658                   00000001800c6ff8     CCXExtUI.res
 0005:000913d8       $R079A38                   00000001800c73d8     CCXExtUI.res
 0005:00091480       $R079AE0                   00000001800c7480     CCXExtUI.res
 0005:000915b8       $R079C18                   00000001800c75b8     CCXExtUI.res
 0005:00091710       $R079D70                   00000001800c7710     CCXExtUI.res
 0005:00091868       $R079EC8                   00000001800c7868     CCXExtUI.res
 0005:000919d8       $R07A038                   00000001800c79d8     CCXExtUI.res
 0005:00091b80       $R07A1E0                   00000001800c7b80     CCXExtUI.res
 0005:00091d00       $R07A360                   00000001800c7d00     CCXExtUI.res
 0005:00091e40       $R07A4A0                   00000001800c7e40     CCXExtUI.res
 0005:00091fd0       $R07A630                   00000001800c7fd0     CCXExtUI.res
 0005:00092108       $R07A768                   00000001800c8108     CCXExtUI.res
 0005:000922a8       $R07A908                   00000001800c82a8     CCXExtUI.res
 0005:000923f0       $R07AA50                   00000001800c83f0     CCXExtUI.res
 0005:000925a0       $R07AC00                   00000001800c85a0     CCXExtUI.res
 0005:00092710       $R07AD70                   00000001800c8710     CCXExtUI.res
 0005:000928b0       $R07AF10                   00000001800c88b0     CCXExtUI.res
 0005:00092a40       $R07B0A0                   00000001800c8a40     CCXExtUI.res
 0005:00092a90       $R07B0F0                   00000001800c8a90     CCXExtUI.res
 0005:00093010       $R07B670                   00000001800c9010     CCXExtUI.res
 0005:000933a8       $R07BA08                   00000001800c93a8     CCXExtUI.res
 0005:000936a0       $R07BD00                   00000001800c96a0     CCXExtUI.res
 0005:000939a0       $R07C000                   00000001800c99a0     CCXExtUI.res
 0005:00093e30       $R07C490                   00000001800c9e30     CCXExtUI.res
 0005:00094360       $R07C9C0                   00000001800ca360     CCXExtUI.res
 0005:00094740       $R07CDA0                   00000001800ca740     CCXExtUI.res
 0005:00094cb8       $R07D318                   00000001800cacb8     CCXExtUI.res
 0005:00095648       $R07DCA8                   00000001800cb648     CCXExtUI.res
 0005:00095aa0       $R07E100                   00000001800cbaa0     CCXExtUI.res
 0005:00096090       $R07E6F0                   00000001800cc090     CCXExtUI.res
 0005:000965c8       $R07EC28                   00000001800cc5c8     CCXExtUI.res
 0005:00096a90       $R07F0F0                   00000001800cca90     CCXExtUI.res
 0005:000970c8       $R07F728                   00000001800cd0c8     CCXExtUI.res
 0005:00097368       $R07F9C8                   00000001800cd368     CCXExtUI.res
 0005:000979a8       $R080008                   00000001800cd9a8     CCXExtUI.res
 0005:00097b38       $R080198                   00000001800cdb38     CCXExtUI.res
 0005:000981d0       $R080830                   00000001800ce1d0     CCXExtUI.res
 0005:00098410       $R080A70                   00000001800ce410     CCXExtUI.res
 0005:000985f0       $R080C50                   00000001800ce5f0     CCXExtUI.res
 0005:00098ad8       $R081138                   00000001800cead8     CCXExtUI.res
 0005:00099078       $R0816D8                   00000001800cf078     CCXExtUI.res
 0005:00099608       $R081C68                   00000001800cf608     CCXExtUI.res
 0005:00099980       $R081FE0                   00000001800cf980     CCXExtUI.res
 0005:0009a1c0       $R082820                   00000001800d01c0     CCXExtUI.res
 0005:0009a930       $R082F90                   00000001800d0930     CCXExtUI.res
 0005:0009afb8       $R083618                   00000001800d0fb8     CCXExtUI.res
 0005:0009b2e0       $R083940                   00000001800d12e0     CCXExtUI.res
 0005:0009bae8       $R084148                   00000001800d1ae8     CCXExtUI.res
 0005:0009be10       $R084470                   00000001800d1e10     CCXExtUI.res
 0005:0009c180       $R0847E0                   00000001800d2180     CCXExtUI.res
 0005:0009c478       $R084AD8                   00000001800d2478     CCXExtUI.res
 0005:0009c838       $R084E98                   00000001800d2838     CCXExtUI.res
 0005:0009d150       $R0857B0                   00000001800d3150     CCXExtUI.res
 0005:0009d690       $R085CF0                   00000001800d3690     CCXExtUI.res
 0005:0009d998       $R085FF8                   00000001800d3998     CCXExtUI.res
 0005:0009dee0       $R086540                   00000001800d3ee0     CCXExtUI.res
 0005:0009e358       $R0869B8                   00000001800d4358     CCXExtUI.res
 0005:0009e998       $R086FF8                   00000001800d4998     CCXExtUI.res
 0005:0009ede0       $R087440                   00000001800d4de0     CCXExtUI.res
 0005:0009f2e8       $R087948                   00000001800d52e8     CCXExtUI.res
 0005:0009f6f0       $R087D50                   00000001800d56f0     CCXExtUI.res
 0005:0009fb68       $R0881C8                   00000001800d5b68     CCXExtUI.res
 0005:0009ff90       $R0885F0                   00000001800d5f90     CCXExtUI.res
 0005:000a0178       $R0887D8                   00000001800d6178     CCXExtUI.res
 0005:000a0440       $R088AA0                   00000001800d6440     CCXExtUI.res
 0005:000a0858       $R088EB8                   00000001800d6858     CCXExtUI.res
 0005:000a0ba8       $R089208                   00000001800d6ba8     CCXExtUI.res
 0005:000a0d60       $R0893C0                   00000001800d6d60     CCXExtUI.res
 0005:000a1108       $R089768                   00000001800d7108     CCXExtUI.res
 0005:000a1aa0       $R08A100                   00000001800d7aa0     CCXExtUI.res
 0005:000a27a8       $R08AE08                   00000001800d87a8     CCXExtUI.res
 0005:000a2cd0       $R08B330                   00000001800d8cd0     CCXExtUI.res
 0005:000a3698       $R08BCF8                   00000001800d9698     CCXExtUI.res
 0005:000a3c70       $R08C2D0                   00000001800d9c70     CCXExtUI.res
 0005:000a41e0       $R08C840                   00000001800da1e0     CCXExtUI.res
 0005:000a4670       $R08CCD0                   00000001800da670     CCXExtUI.res
 0005:000a4f28       $R08D588                   00000001800daf28     CCXExtUI.res
 0005:000a5818       $R08DE78                   00000001800db818     CCXExtUI.res
 0005:000a5c08       $R08E268                   00000001800dbc08     CCXExtUI.res
 0005:000a6168       $R08E7C8                   00000001800dc168     CCXExtUI.res
 0005:000a65c8       $R08EC28                   00000001800dc5c8     CCXExtUI.res
 0005:000a6c50       $R08F2B0                   00000001800dcc50     CCXExtUI.res
 0005:000a72b8       $R08F918                   00000001800dd2b8     CCXExtUI.res
 0005:000a77d0       $R08FE30                   00000001800dd7d0     CCXExtUI.res
 0005:000a7f10       $R090570                   00000001800ddf10     CCXExtUI.res
 0005:000a8430       $R090A90                   00000001800de430     CCXExtUI.res
 0005:000a8910       $R090F70                   00000001800de910     CCXExtUI.res
 0005:000a8f68       $R0915C8                   00000001800def68     CCXExtUI.res
 0005:000a95f0       $R091C50                   00000001800df5f0     CCXExtUI.res
 0005:000a9c80       $R0922E0                   00000001800dfc80     CCXExtUI.res
 0005:000aa010       $R092670                   00000001800e0010     CCXExtUI.res
 0005:000aa0a0       $R092700                   00000001800e00a0     CCXExtUI.res
 0005:000aa1f0       $R092850                   00000001800e01f0     CCXExtUI.res
 0005:000aa348       $R0929A8                   00000001800e0348     CCXExtUI.res
 0005:000aa4d8       $R092B38                   00000001800e04d8     CCXExtUI.res
 0005:000aa620       $R092C80                   00000001800e0620     CCXExtUI.res
 0005:000aa7b8       $R092E18                   00000001800e07b8     CCXExtUI.res
 0005:000aa8e8       $R092F48                   00000001800e08e8     CCXExtUI.res
 0005:000aa9d8       $R093038                   00000001800e09d8     CCXExtUI.res
 0005:000aaad0       $R093130                   00000001800e0ad0     CCXExtUI.res
 0005:000aabf8       $R093258                   00000001800e0bf8     CCXExtUI.res
 0005:000aad58       $R0933B8                   00000001800e0d58     CCXExtUI.res
 0005:000aae90       $R0934F0                   00000001800e0e90     CCXExtUI.res
 0005:000ab058       $R0936B8                   00000001800e1058     CCXExtUI.res
 0005:000ab1b8       $R093818                   00000001800e11b8     CCXExtUI.res
 0005:000ab368       $R0939C8                   00000001800e1368     CCXExtUI.res
 0005:000ab4f0       $R093B50                   00000001800e14f0     CCXExtUI.res
 0005:000ab548       $R093BA8                   00000001800e1548     CCXExtUI.res
 0005:000ab700       $R093D60                   00000001800e1700     CCXExtUI.res
 0005:000ab870       $R093ED0                   00000001800e1870     CCXExtUI.res
 0005:000ab958       $R093FB8                   00000001800e1958     CCXExtUI.res
 0005:000aba60       $R0940C0                   00000001800e1a60     CCXExtUI.res
 0005:000abbd8       $R094238                   00000001800e1bd8     CCXExtUI.res
 0005:000abd58       $R0943B8                   00000001800e1d58     CCXExtUI.res
 0005:000abe70       $R0944D0                   00000001800e1e70     CCXExtUI.res
 0005:000ac030       $R094690                   00000001800e2030     CCXExtUI.res
 0005:000ac390       $R0949F0                   00000001800e2390     CCXExtUI.res
 0005:000ac4c8       $R094B28                   00000001800e24c8     CCXExtUI.res
 0005:000ac6d8       $R094D38                   00000001800e26d8     CCXExtUI.res
 0005:000ac8b8       $R094F18                   00000001800e28b8     CCXExtUI.res
 0005:000aca20       $R095080                   00000001800e2a20     CCXExtUI.res
 0005:000acbf0       $R095250                   00000001800e2bf0     CCXExtUI.res
 0005:000accd0       $R095330                   00000001800e2cd0     CCXExtUI.res
 0005:000acea8       $R095508                   00000001800e2ea8     CCXExtUI.res
 0005:000acf68       $R0955C8                   00000001800e2f68     CCXExtUI.res
 0005:000ad148       $R0957A8                   00000001800e3148     CCXExtUI.res
 0005:000ad210       $R095870                   00000001800e3210     CCXExtUI.res
 0005:000ad2d8       $R095938                   00000001800e32d8     CCXExtUI.res
 0005:000ad4c8       $R095B28                   00000001800e34c8     CCXExtUI.res
 0005:000ad690       $R095CF0                   00000001800e3690     CCXExtUI.res
 0005:000ad800       $R095E60                   00000001800e3800     CCXExtUI.res
 0005:000ad928       $R095F88                   00000001800e3928     CCXExtUI.res
 0005:000adb78       $R0961D8                   00000001800e3b78     CCXExtUI.res
 0005:000addb8       $R096418                   00000001800e3db8     CCXExtUI.res
 0005:000adf98       $R0965F8                   00000001800e3f98     CCXExtUI.res
 0005:000ae088       $R0966E8                   00000001800e4088     CCXExtUI.res
 0005:000ae350       $R0969B0                   00000001800e4350     CCXExtUI.res
 0005:000ae4b0       $R096B10                   00000001800e44b0     CCXExtUI.res
 0005:000ae610       $R096C70                   00000001800e4610     CCXExtUI.res
 0005:000ae710       $R096D70                   00000001800e4710     CCXExtUI.res
 0005:000ae828       $R096E88                   00000001800e4828     CCXExtUI.res
 0005:000aeac0       $R097120                   00000001800e4ac0     CCXExtUI.res
 0005:000aec90       $R0972F0                   00000001800e4c90     CCXExtUI.res
 0005:000aeda8       $R097408                   00000001800e4da8     CCXExtUI.res
 0005:000aef58       $R0975B8                   00000001800e4f58     CCXExtUI.res
 0005:000af118       $R097778                   00000001800e5118     CCXExtUI.res
 0005:000af360       $R0979C0                   00000001800e5360     CCXExtUI.res
 0005:000af4f0       $R097B50                   00000001800e54f0     CCXExtUI.res
 0005:000af690       $R097CF0                   00000001800e5690     CCXExtUI.res
 0005:000af838       $R097E98                   00000001800e5838     CCXExtUI.res
 0005:000af9f0       $R098050                   00000001800e59f0     CCXExtUI.res
 0005:000afb28       $R098188                   00000001800e5b28     CCXExtUI.res
 0005:000afbd8       $R098238                   00000001800e5bd8     CCXExtUI.res
 0005:000afcb8       $R098318                   00000001800e5cb8     CCXExtUI.res
 0005:000afdf0       $R098450                   00000001800e5df0     CCXExtUI.res
 0005:000aff08       $R098568                   00000001800e5f08     CCXExtUI.res
 0005:000affd0       $R098630                   00000001800e5fd0     CCXExtUI.res
 0005:000b0100       $R098760                   00000001800e6100     CCXExtUI.res
 0005:000b03a0       $R098A00                   00000001800e63a0     CCXExtUI.res
 0005:000b07f8       $R098E58                   00000001800e67f8     CCXExtUI.res
 0005:000b09e0       $R099040                   00000001800e69e0     CCXExtUI.res
 0005:000b0d40       $R0993A0                   00000001800e6d40     CCXExtUI.res
 0005:000b0f10       $R099570                   00000001800e6f10     CCXExtUI.res
 0005:000b10e8       $R099748                   00000001800e70e8     CCXExtUI.res
 0005:000b1248       $R0998A8                   00000001800e7248     CCXExtUI.res
 0005:000b1578       $R099BD8                   00000001800e7578     CCXExtUI.res
 0005:000b18a0       $R099F00                   00000001800e78a0     CCXExtUI.res
 0005:000b19c0       $R09A020                   00000001800e79c0     CCXExtUI.res
 0005:000b1b80       $R09A1E0                   00000001800e7b80     CCXExtUI.res
 0005:000b1ce0       $R09A340                   00000001800e7ce0     CCXExtUI.res
 0005:000b1ea8       $R09A508                   00000001800e7ea8     CCXExtUI.res
 0005:000b2100       $R09A760                   00000001800e8100     CCXExtUI.res
 0005:000b22a0       $R09A900                   00000001800e82a0     CCXExtUI.res
 0005:000b2528       $R09AB88                   00000001800e8528     CCXExtUI.res
 0005:000b26e8       $R09AD48                   00000001800e86e8     CCXExtUI.res
 0005:000b28b0       $R09AF10                   00000001800e88b0     CCXExtUI.res
 0005:000b2aa0       $R09B100                   00000001800e8aa0     CCXExtUI.res
 0005:000b2cb8       $R09B318                   00000001800e8cb8     CCXExtUI.res
 0005:000b2ed0       $R09B530                   00000001800e8ed0     CCXExtUI.res
 0005:000b3020       $R09B680                   00000001800e9020     CCXExtUI.res
 0005:000b30a8       $R09B708                   00000001800e90a8     CCXExtUI.res
 0005:000b3148       $R09B7A8                   00000001800e9148     CCXExtUI.res
 0005:000b31e0       $R09B840                   00000001800e91e0     CCXExtUI.res
 0005:000b3278       $R09B8D8                   00000001800e9278     CCXExtUI.res
 0005:000b3318       $R09B978                   00000001800e9318     CCXExtUI.res
 0005:000b33e0       $R09BA40                   00000001800e93e0     CCXExtUI.res
 0005:000b3480       $R09BAE0                   00000001800e9480     CCXExtUI.res
 0005:000b3508       $R09BB68                   00000001800e9508     CCXExtUI.res
 0005:000b35a8       $R09BC08                   00000001800e95a8     CCXExtUI.res
 0005:000b3648       $R09BCA8                   00000001800e9648     CCXExtUI.res
 0005:000b36e8       $R09BD48                   00000001800e96e8     CCXExtUI.res
 0005:000b3788       $R09BDE8                   00000001800e9788     CCXExtUI.res
 0005:000b3840       $R09BEA0                   00000001800e9840     CCXExtUI.res
 0005:000b38f0       $R09BF50                   00000001800e98f0     CCXExtUI.res
 0005:000b39a0       $R09C000                   00000001800e99a0     CCXExtUI.res
 0005:000b3a70       $R09C0D0                   00000001800e9a70     CCXExtUI.res
 0005:000b3ab0       $R09C110                   00000001800e9ab0     CCXExtUI.res
 0005:000b3c88       $R09C2E8                   00000001800e9c88     CCXExtUI.res
 0005:000b3dd8       $R09C438                   00000001800e9dd8     CCXExtUI.res
 0005:000b3ec8       $R09C528                   00000001800e9ec8     CCXExtUI.res
 0005:000b3fb8       $R09C618                   00000001800e9fb8     CCXExtUI.res
 0005:000b4138       $R09C798                   00000001800ea138     CCXExtUI.res
 0005:000b42b0       $R09C910                   00000001800ea2b0     CCXExtUI.res
 0005:000b43d0       $R09CA30                   00000001800ea3d0     CCXExtUI.res
 0005:000b4588       $R09CBE8                   00000001800ea588     CCXExtUI.res
 0005:000b48b0       $R09CF10                   00000001800ea8b0     CCXExtUI.res
 0005:000b49f0       $R09D050                   00000001800ea9f0     CCXExtUI.res
 0005:000b4be0       $R09D240                   00000001800eabe0     CCXExtUI.res
 0005:000b4db8       $R09D418                   00000001800eadb8     CCXExtUI.res
 0005:000b4f30       $R09D590                   00000001800eaf30     CCXExtUI.res
 0005:000b50f8       $R09D758                   00000001800eb0f8     CCXExtUI.res
 0005:000b51e0       $R09D840                   00000001800eb1e0     CCXExtUI.res
 0005:000b53c0       $R09DA20                   00000001800eb3c0     CCXExtUI.res
 0005:000b5480       $R09DAE0                   00000001800eb480     CCXExtUI.res
 0005:000b5660       $R09DCC0                   00000001800eb660     CCXExtUI.res
 0005:000b5728       $R09DD88                   00000001800eb728     CCXExtUI.res
 0005:000b57f8       $R09DE58                   00000001800eb7f8     CCXExtUI.res
 0005:000b5a08       $R09E068                   00000001800eba08     CCXExtUI.res
 0005:000b5bc8       $R09E228                   00000001800ebbc8     CCXExtUI.res
 0005:000b5d38       $R09E398                   00000001800ebd38     CCXExtUI.res
 0005:000b5e70       $R09E4D0                   00000001800ebe70     CCXExtUI.res
 0005:000b60f0       $R09E750                   00000001800ec0f0     CCXExtUI.res
 0005:000b6390       $R09E9F0                   00000001800ec390     CCXExtUI.res
 0005:000b65a0       $R09EC00                   00000001800ec5a0     CCXExtUI.res
 0005:000b6698       $R09ECF8                   00000001800ec698     CCXExtUI.res
 0005:000b6970       $R09EFD0                   00000001800ec970     CCXExtUI.res
 0005:000b6ab8       $R09F118                   00000001800ecab8     CCXExtUI.res
 0005:000b6c20       $R09F280                   00000001800ecc20     CCXExtUI.res
 0005:000b6d30       $R09F390                   00000001800ecd30     CCXExtUI.res
 0005:000b6e40       $R09F4A0                   00000001800ece40     CCXExtUI.res
 0005:000b70c8       $R09F728                   00000001800ed0c8     CCXExtUI.res
 0005:000b72b8       $R09F918                   00000001800ed2b8     CCXExtUI.res
 0005:000b73d8       $R09FA38                   00000001800ed3d8     CCXExtUI.res
 0005:000b7598       $R09FBF8                   00000001800ed598     CCXExtUI.res
 0005:000b7758       $R09FDB8                   00000001800ed758     CCXExtUI.res
 0005:000b7998       $R09FFF8                   00000001800ed998     CCXExtUI.res
 0005:000b7b20       $R0A0180                   00000001800edb20     CCXExtUI.res
 0005:000b7cb0       $R0A0310                   00000001800edcb0     CCXExtUI.res
 0005:000b7e60       $R0A04C0                   00000001800ede60     CCXExtUI.res
 0005:000b8028       $R0A0688                   00000001800ee028     CCXExtUI.res
 0005:000b8170       $R0A07D0                   00000001800ee170     CCXExtUI.res
 0005:000b8220       $R0A0880                   00000001800ee220     CCXExtUI.res
 0005:000b8308       $R0A0968                   00000001800ee308     CCXExtUI.res
 0005:000b8438       $R0A0A98                   00000001800ee438     CCXExtUI.res
 0005:000b8558       $R0A0BB8                   00000001800ee558     CCXExtUI.res
 0005:000b8628       $R0A0C88                   00000001800ee628     CCXExtUI.res
 0005:000b8758       $R0A0DB8                   00000001800ee758     CCXExtUI.res
 0005:000b89e8       $R0A1048                   00000001800ee9e8     CCXExtUI.res
 0005:000b8e20       $R0A1480                   00000001800eee20     CCXExtUI.res
 0005:000b9008       $R0A1668                   00000001800ef008     CCXExtUI.res
 0005:000b9338       $R0A1998                   00000001800ef338     CCXExtUI.res
 0005:000b94f8       $R0A1B58                   00000001800ef4f8     CCXExtUI.res
 0005:000b96c0       $R0A1D20                   00000001800ef6c0     CCXExtUI.res
 0005:000b9820       $R0A1E80                   00000001800ef820     CCXExtUI.res
 0005:000b9ab8       $R0A2118                   00000001800efab8     CCXExtUI.res
 0005:000b9d68       $R0A23C8                   00000001800efd68     CCXExtUI.res
 0005:000b9ea0       $R0A2500                   00000001800efea0     CCXExtUI.res
 0005:000ba060       $R0A26C0                   00000001800f0060     CCXExtUI.res
 0005:000ba1a0       $R0A2800                   00000001800f01a0     CCXExtUI.res
 0005:000ba3a0       $R0A2A00                   00000001800f03a0     CCXExtUI.res
 0005:000ba608       $R0A2C68                   00000001800f0608     CCXExtUI.res
 0005:000ba7b8       $R0A2E18                   00000001800f07b8     CCXExtUI.res
 0005:000baa10       $R0A3070                   00000001800f0a10     CCXExtUI.res
 0005:000baba0       $R0A3200                   00000001800f0ba0     CCXExtUI.res
 0005:000bad40       $R0A33A0                   00000001800f0d40     CCXExtUI.res
 0005:000baf30       $R0A3590                   00000001800f0f30     CCXExtUI.res
 0005:000bb108       $R0A3768                   00000001800f1108     CCXExtUI.res
 0005:000bb308       $R0A3968                   00000001800f1308     CCXExtUI.res
 0005:000bb440       $R0A3AA0                   00000001800f1440     CCXExtUI.res
 0005:000bb4a8       $R0A3B08                   00000001800f14a8     CCXExtUI.res
 0005:000bb548       $R0A3BA8                   00000001800f1548     CCXExtUI.res
 0005:000bb5e0       $R0A3C40                   00000001800f15e0     CCXExtUI.res
 0005:000bb670       $R0A3CD0                   00000001800f1670     CCXExtUI.res
 0005:000bb708       $R0A3D68                   00000001800f1708     CCXExtUI.res
 0005:000bb7a8       $R0A3E08                   00000001800f17a8     CCXExtUI.res
 0005:000bb840       $R0A3EA0                   00000001800f1840     CCXExtUI.res
 0005:000bb8b8       $R0A3F18                   00000001800f18b8     CCXExtUI.res
 0005:000bb950       $R0A3FB0                   00000001800f1950     CCXExtUI.res
 0005:000bb9f0       $R0A4050                   00000001800f19f0     CCXExtUI.res
 0005:000bba88       $R0A40E8                   00000001800f1a88     CCXExtUI.res
 0005:000bbb20       $R0A4180                   00000001800f1b20     CCXExtUI.res
 0005:000bbbd8       $R0A4238                   00000001800f1bd8     CCXExtUI.res
 0005:000bbc70       $R0A42D0                   00000001800f1c70     CCXExtUI.res
 0005:000bbd38       $R0A4398                   00000001800f1d38     CCXExtUI.res
 0005:000bbe00       $R0A4460                   00000001800f1e00     CCXExtUI.res
 0005:000bbe40       $R0A44A0                   00000001800f1e40     CCXExtUI.res
 0005:000bc370       $R0A49D0                   00000001800f2370     CCXExtUI.res
 0005:000bc6b8       $R0A4D18                   00000001800f26b8     CCXExtUI.res
 0005:000bc940       $R0A4FA0                   00000001800f2940     CCXExtUI.res
 0005:000bcbd0       $R0A5230                   00000001800f2bd0     CCXExtUI.res
 0005:000bd078       $R0A56D8                   00000001800f3078     CCXExtUI.res
 0005:000bd508       $R0A5B68                   00000001800f3508     CCXExtUI.res
 0005:000bd888       $R0A5EE8                   00000001800f3888     CCXExtUI.res
 0005:000bddc8       $R0A6428                   00000001800f3dc8     CCXExtUI.res
 0005:000be680       $R0A6CE0                   00000001800f4680     CCXExtUI.res
 0005:000bea50       $R0A70B0                   00000001800f4a50     CCXExtUI.res
 0005:000bf038       $R0A7698                   00000001800f5038     CCXExtUI.res
 0005:000bf518       $R0A7B78                   00000001800f5518     CCXExtUI.res
 0005:000bf9a0       $R0A8000                   00000001800f59a0     CCXExtUI.res
 0005:000bfee8       $R0A8548                   00000001800f5ee8     CCXExtUI.res
 0005:000c0170       $R0A87D0                   00000001800f6170     CCXExtUI.res
 0005:000c0778       $R0A8DD8                   00000001800f6778     CCXExtUI.res
 0005:000c0938       $R0A8F98                   00000001800f6938     CCXExtUI.res
 0005:000c0f88       $R0A95E8                   00000001800f6f88     CCXExtUI.res
 0005:000c11c8       $R0A9828                   00000001800f71c8     CCXExtUI.res
 0005:000c1390       $R0A99F0                   00000001800f7390     CCXExtUI.res
 0005:000c18a8       $R0A9F08                   00000001800f78a8     CCXExtUI.res
 0005:000c1de8       $R0AA448                   00000001800f7de8     CCXExtUI.res
 0005:000c22b0       $R0AA910                   00000001800f82b0     CCXExtUI.res
 0005:000c25d0       $R0AAC30                   00000001800f85d0     CCXExtUI.res
 0005:000c2e10       $R0AB470                   00000001800f8e10     CCXExtUI.res
 0005:000c34b0       $R0ABB10                   00000001800f94b0     CCXExtUI.res
 0005:000c3a88       $R0AC0E8                   00000001800f9a88     CCXExtUI.res
 0005:000c3d88       $R0AC3E8                   00000001800f9d88     CCXExtUI.res
 0005:000c4570       $R0ACBD0                   00000001800fa570     CCXExtUI.res
 0005:000c4898       $R0ACEF8                   00000001800fa898     CCXExtUI.res
 0005:000c4bb0       $R0AD210                   00000001800fabb0     CCXExtUI.res
 0005:000c4e90       $R0AD4F0                   00000001800fae90     CCXExtUI.res
 0005:000c51f0       $R0AD850                   00000001800fb1f0     CCXExtUI.res
 0005:000c5a60       $R0AE0C0                   00000001800fba60     CCXExtUI.res
 0005:000c5f40       $R0AE5A0                   00000001800fbf40     CCXExtUI.res
 0005:000c6208       $R0AE868                   00000001800fc208     CCXExtUI.res
 0005:000c6748       $R0AEDA8                   00000001800fc748     CCXExtUI.res
 0005:000c6c28       $R0AF288                   00000001800fcc28     CCXExtUI.res
 0005:000c7290       $R0AF8F0                   00000001800fd290     CCXExtUI.res
 0005:000c7768       $R0AFDC8                   00000001800fd768     CCXExtUI.res
 0005:000c7c28       $R0B0288                   00000001800fdc28     CCXExtUI.res
 0005:000c8028       $R0B0688                   00000001800fe028     CCXExtUI.res
 0005:000c8478       $R0B0AD8                   00000001800fe478     CCXExtUI.res
 0005:000c8800       $R0B0E60                   00000001800fe800     CCXExtUI.res
 0005:000c8998       $R0B0FF8                   00000001800fe998     CCXExtUI.res
 0005:000c8be0       $R0B1240                   00000001800febe0     CCXExtUI.res
 0005:000c8fa0       $R0B1600                   00000001800fefa0     CCXExtUI.res
 0005:000c92c0       $R0B1920                   00000001800ff2c0     CCXExtUI.res
 0005:000c9468       $R0B1AC8                   00000001800ff468     CCXExtUI.res
 0005:000c9800       $R0B1E60                   00000001800ff800     CCXExtUI.res
 0005:000c9fd0       $R0B2630                   00000001800fffd0     CCXExtUI.res
 0005:000caaf0       $R0B3150                   0000000180100af0     CCXExtUI.res
 0005:000cb010       $R0B3670                   0000000180101010     CCXExtUI.res
 0005:000cb7e8       $R0B3E48                   00000001801017e8     CCXExtUI.res
 0005:000cbd18       $R0B4378                   0000000180101d18     CCXExtUI.res
 0005:000cc240       $R0B48A0                   0000000180102240     CCXExtUI.res
 0005:000cc6b8       $R0B4D18                   00000001801026b8     CCXExtUI.res
 0005:000ccee8       $R0B5548                   0000000180102ee8     CCXExtUI.res
 0005:000cd7a8       $R0B5E08                   00000001801037a8     CCXExtUI.res
 0005:000cdaf0       $R0B6150                   0000000180103af0     CCXExtUI.res
 0005:000ce018       $R0B6678                   0000000180104018     CCXExtUI.res
 0005:000ce470       $R0B6AD0                   0000000180104470     CCXExtUI.res
 0005:000ceae0       $R0B7140                   0000000180104ae0     CCXExtUI.res
 0005:000cf1b0       $R0B7810                   00000001801051b0     CCXExtUI.res
 0005:000cf660       $R0B7CC0                   0000000180105660     CCXExtUI.res
 0005:000cfd48       $R0B83A8                   0000000180105d48     CCXExtUI.res
 0005:000d0210       $R0B8870                   0000000180106210     CCXExtUI.res
 0005:000d0670       $R0B8CD0                   0000000180106670     CCXExtUI.res
 0005:000d0c38       $R0B9298                   0000000180106c38     CCXExtUI.res
 0005:000d11b8       $R0B9818                   00000001801071b8     CCXExtUI.res
 0005:000d1798       $R0B9DF8                   0000000180107798     CCXExtUI.res
 0005:000d1b60       $R0BA1C0                   0000000180107b60     CCXExtUI.res
 0005:000d1bf8       $R0BA258                   0000000180107bf8     CCXExtUI.res
 0005:000d1d38       $R0BA398                   0000000180107d38     CCXExtUI.res
 0005:000d1e90       $R0BA4F0                   0000000180107e90     CCXExtUI.res
 0005:000d2008       $R0BA668                   0000000180108008     CCXExtUI.res
 0005:000d2148       $R0BA7A8                   0000000180108148     CCXExtUI.res
 0005:000d22f8       $R0BA958                   00000001801082f8     CCXExtUI.res
 0005:000d2440       $R0BAAA0                   0000000180108440     CCXExtUI.res
 0005:000d2538       $R0BAB98                   0000000180108538     CCXExtUI.res
 0005:000d2640       $R0BACA0                   0000000180108640     CCXExtUI.res
 0005:000d2778       $R0BADD8                   0000000180108778     CCXExtUI.res
 0005:000d28d0       $R0BAF30                   00000001801088d0     CCXExtUI.res
 0005:000d2a08       $R0BB068                   0000000180108a08     CCXExtUI.res
 0005:000d2bc8       $R0BB228                   0000000180108bc8     CCXExtUI.res
 0005:000d2d48       $R0BB3A8                   0000000180108d48     CCXExtUI.res
 0005:000d2ef0       $R0BB550                   0000000180108ef0     CCXExtUI.res
 0005:000d30a0       $R0BB700                   00000001801090a0     CCXExtUI.res
 0005:000d30f8       $R0BB758                   00000001801090f8     CCXExtUI.res
 0005:000d3640       $R0BBCA0                   0000000180109640     CCXExtUI.res
 0005:000d3968       $R0BBFC8                   0000000180109968     CCXExtUI.res
 0005:000d3bf8       $R0BC258                   0000000180109bf8     CCXExtUI.res
 0005:000d3ea0       $R0BC500                   0000000180109ea0     CCXExtUI.res
 0005:000d4350       $R0BC9B0                   000000018010a350     CCXExtUI.res
 0005:000d47a0       $R0BCE00                   000000018010a7a0     CCXExtUI.res
 0005:000d4ad8       $R0BD138                   000000018010aad8     CCXExtUI.res
 0005:000d5040       $R0BD6A0                   000000018010b040     CCXExtUI.res
 0005:000d58e8       $R0BDF48                   000000018010b8e8     CCXExtUI.res
 0005:000d5cd0       $R0BE330                   000000018010bcd0     CCXExtUI.res
 0005:000d62b0       $R0BE910                   000000018010c2b0     CCXExtUI.res
 0005:000d6780       $R0BEDE0                   000000018010c780     CCXExtUI.res
 0005:000d6b78       $R0BF1D8                   000000018010cb78     CCXExtUI.res
 0005:000d7128       $R0BF788                   000000018010d128     CCXExtUI.res
 0005:000d7360       $R0BF9C0                   000000018010d360     CCXExtUI.res
 0005:000d7950       $R0BFFB0                   000000018010d950     CCXExtUI.res
 0005:000d7ad8       $R0C0138                   000000018010dad8     CCXExtUI.res
 0005:000d80a8       $R0C0708                   000000018010e0a8     CCXExtUI.res
 0005:000d82c8       $R0C0928                   000000018010e2c8     CCXExtUI.res
 0005:000d8488       $R0C0AE8                   000000018010e488     CCXExtUI.res
 0005:000d8948       $R0C0FA8                   000000018010e948     CCXExtUI.res
 0005:000d8de0       $R0C1440                   000000018010ede0     CCXExtUI.res
 0005:000d9328       $R0C1988                   000000018010f328     CCXExtUI.res
 0005:000d9640       $R0C1CA0                   000000018010f640     CCXExtUI.res
 0005:000d9e08       $R0C2468                   000000018010fe08     CCXExtUI.res
 0005:000da468       $R0C2AC8                   0000000180110468     CCXExtUI.res
 0005:000daa80       $R0C30E0                   0000000180110a80     CCXExtUI.res
 0005:000dad78       $R0C33D8                   0000000180110d78     CCXExtUI.res
 0005:000db550       $R0C3BB0                   0000000180111550     CCXExtUI.res
 0005:000db870       $R0C3ED0                   0000000180111870     CCXExtUI.res
 0005:000dbbc0       $R0C4220                   0000000180111bc0     CCXExtUI.res
 0005:000dbea8       $R0C4508                   0000000180111ea8     CCXExtUI.res
 0005:000dc1e0       $R0C4840                   00000001801121e0     CCXExtUI.res
 0005:000dca50       $R0C50B0                   0000000180112a50     CCXExtUI.res
 0005:000dcf40       $R0C55A0                   0000000180112f40     CCXExtUI.res
 0005:000dd1d0       $R0C5830                   00000001801131d0     CCXExtUI.res
 0005:000dd6e8       $R0C5D48                   00000001801136e8     CCXExtUI.res
 0005:000ddbe0       $R0C6240                   0000000180113be0     CCXExtUI.res
 0005:000de1d8       $R0C6838                   00000001801141d8     CCXExtUI.res
 0005:000de608       $R0C6C68                   0000000180114608     CCXExtUI.res
 0005:000dea28       $R0C7088                   0000000180114a28     CCXExtUI.res
 0005:000dede8       $R0C7448                   0000000180114de8     CCXExtUI.res
 0005:000df240       $R0C78A0                   0000000180115240     CCXExtUI.res
 0005:000df5d0       $R0C7C30                   00000001801155d0     CCXExtUI.res
 0005:000df770       $R0C7DD0                   0000000180115770     CCXExtUI.res
 0005:000df9d0       $R0C8030                   00000001801159d0     CCXExtUI.res
 0005:000dfd80       $R0C83E0                   0000000180115d80     CCXExtUI.res
 0005:000e0098       $R0C86F8                   0000000180116098     CCXExtUI.res
 0005:000e0238       $R0C8898                   0000000180116238     CCXExtUI.res
 0005:000e05b8       $R0C8C18                   00000001801165b8     CCXExtUI.res
 0005:000e0de8       $R0C9448                   0000000180116de8     CCXExtUI.res
 0005:000e18b8       $R0C9F18                   00000001801178b8     CCXExtUI.res
 0005:000e1d78       $R0CA3D8                   0000000180117d78     CCXExtUI.res
 0005:000e2568       $R0CABC8                   0000000180118568     CCXExtUI.res
 0005:000e2a78       $R0CB0D8                   0000000180118a78     CCXExtUI.res
 0005:000e2f60       $R0CB5C0                   0000000180118f60     CCXExtUI.res
 0005:000e3358       $R0CB9B8                   0000000180119358     CCXExtUI.res
 0005:000e3a80       $R0CC0E0                   0000000180119a80     CCXExtUI.res
 0005:000e4320       $R0CC980                   000000018011a320     CCXExtUI.res
 0005:000e4658       $R0CCCB8                   000000018011a658     CCXExtUI.res
 0005:000e4b40       $R0CD1A0                   000000018011ab40     CCXExtUI.res
 0005:000e4f58       $R0CD5B8                   000000018011af58     CCXExtUI.res
 0005:000e54f8       $R0CDB58                   000000018011b4f8     CCXExtUI.res
 0005:000e5aa8       $R0CE108                   000000018011baa8     CCXExtUI.res
 0005:000e5f58       $R0CE5B8                   000000018011bf58     CCXExtUI.res
 0005:000e65f0       $R0CEC50                   000000018011c5f0     CCXExtUI.res
 0005:000e6a90       $R0CF0F0                   000000018011ca90     CCXExtUI.res
 0005:000e6ee8       $R0CF548                   000000018011cee8     CCXExtUI.res
 0005:000e7460       $R0CFAC0                   000000018011d460     CCXExtUI.res
 0005:000e79f0       $R0D0050                   000000018011d9f0     CCXExtUI.res
 0005:000e7fb8       $R0D0618                   000000018011dfb8     CCXExtUI.res
 0005:000e8370       $R0D09D0                   000000018011e370     CCXExtUI.res
 0005:000e8418       $R0D0A78                   000000018011e418     CCXExtUI.res
 0005:000e8558       $R0D0BB8                   000000018011e558     CCXExtUI.res
 0005:000e86a0       $R0D0D00                   000000018011e6a0     CCXExtUI.res
 0005:000e8808       $R0D0E68                   000000018011e808     CCXExtUI.res
 0005:000e89c8       $R0D1028                   000000018011e9c8     CCXExtUI.res
 0005:000e8b70       $R0D11D0                   000000018011eb70     CCXExtUI.res
 0005:000e8cf8       $R0D1358                   000000018011ecf8     CCXExtUI.res
 0005:000e8e00       $R0D1460                   000000018011ee00     CCXExtUI.res
 0005:000e8f88       $R0D15E8                   000000018011ef88     CCXExtUI.res
 0005:000e90c8       $R0D1728                   000000018011f0c8     CCXExtUI.res
 0005:000e9200       $R0D1860                   000000018011f200     CCXExtUI.res
 0005:000e9348       $R0D19A8                   000000018011f348     CCXExtUI.res
 0005:000e9528       $R0D1B88                   000000018011f528     CCXExtUI.res
 0005:000e96b0       $R0D1D10                   000000018011f6b0     CCXExtUI.res
 0005:000e9858       $R0D1EB8                   000000018011f858     CCXExtUI.res
 0005:000e99e0       $R0D2040                   000000018011f9e0     CCXExtUI.res
 0005:000e9a38       $R0D2098                   000000018011fa38     CCXExtUI.res
 0005:000e9fb8       $R0D2618                   000000018011ffb8     CCXExtUI.res
 0005:000ea2f8       $R0D2958                   00000001801202f8     CCXExtUI.res
 0005:000ea5a8       $R0D2C08                   00000001801205a8     CCXExtUI.res
 0005:000ea888       $R0D2EE8                   0000000180120888     CCXExtUI.res
 0005:000ead10       $R0D3370                   0000000180120d10     CCXExtUI.res
 0005:000eb1b8       $R0D3818                   00000001801211b8     CCXExtUI.res
 0005:000eb538       $R0D3B98                   0000000180121538     CCXExtUI.res
 0005:000eba88       $R0D40E8                   0000000180121a88     CCXExtUI.res
 0005:000ec458       $R0D4AB8                   0000000180122458     CCXExtUI.res
 0005:000ec828       $R0D4E88                   0000000180122828     CCXExtUI.res
 0005:000ecdf8       $R0D5458                   0000000180122df8     CCXExtUI.res
 0005:000ed2d8       $R0D5938                   00000001801232d8     CCXExtUI.res
 0005:000ed758       $R0D5DB8                   0000000180123758     CCXExtUI.res
 0005:000edca8       $R0D6308                   0000000180123ca8     CCXExtUI.res
 0005:000edef0       $R0D6550                   0000000180123ef0     CCXExtUI.res
 0005:000ee528       $R0D6B88                   0000000180124528     CCXExtUI.res
 0005:000ee690       $R0D6CF0                   0000000180124690     CCXExtUI.res
 0005:000eec10       $R0D7270                   0000000180124c10     CCXExtUI.res
 0005:000eee30       $R0D7490                   0000000180124e30     CCXExtUI.res
 0005:000eefe0       $R0D7640                   0000000180124fe0     CCXExtUI.res
 0005:000ef460       $R0D7AC0                   0000000180125460     CCXExtUI.res
 0005:000ef960       $R0D7FC0                   0000000180125960     CCXExtUI.res
 0005:000efe70       $R0D84D0                   0000000180125e70     CCXExtUI.res
 0005:000f0190       $R0D87F0                   0000000180126190     CCXExtUI.res
 0005:000f0a58       $R0D90B8                   0000000180126a58     CCXExtUI.res
 0005:000f1170       $R0D97D0                   0000000180127170     CCXExtUI.res
 0005:000f1818       $R0D9E78                   0000000180127818     CCXExtUI.res
 0005:000f1ba8       $R0DA208                   0000000180127ba8     CCXExtUI.res
 0005:000f2418       $R0DAA78                   0000000180128418     CCXExtUI.res
 0005:000f26f8       $R0DAD58                   00000001801286f8     CCXExtUI.res
 0005:000f2a38       $R0DB098                   0000000180128a38     CCXExtUI.res
 0005:000f2cc8       $R0DB328                   0000000180128cc8     CCXExtUI.res
 0005:000f2fd8       $R0DB638                   0000000180128fd8     CCXExtUI.res
 0005:000f3880       $R0DBEE0                   0000000180129880     CCXExtUI.res
 0005:000f3d48       $R0DC3A8                   0000000180129d48     CCXExtUI.res
 0005:000f4050       $R0DC6B0                   000000018012a050     CCXExtUI.res
 0005:000f4588       $R0DCBE8                   000000018012a588     CCXExtUI.res
 0005:000f4a50       $R0DD0B0                   000000018012aa50     CCXExtUI.res
 0005:000f50d8       $R0DD738                   000000018012b0d8     CCXExtUI.res
 0005:000f5540       $R0DDBA0                   000000018012b540     CCXExtUI.res
 0005:000f59a8       $R0DE008                   000000018012b9a8     CCXExtUI.res
 0005:000f5d90       $R0DE3F0                   000000018012bd90     CCXExtUI.res
 0005:000f6168       $R0DE7C8                   000000018012c168     CCXExtUI.res
 0005:000f6588       $R0DEBE8                   000000018012c588     CCXExtUI.res
 0005:000f6730       $R0DED90                   000000018012c730     CCXExtUI.res
 0005:000f69b0       $R0DF010                   000000018012c9b0     CCXExtUI.res
 0005:000f6cf8       $R0DF358                   000000018012ccf8     CCXExtUI.res
 0005:000f7018       $R0DF678                   000000018012d018     CCXExtUI.res
 0005:000f71c0       $R0DF820                   000000018012d1c0     CCXExtUI.res
 0005:000f7550       $R0DFBB0                   000000018012d550     CCXExtUI.res
 0005:000f7e60       $R0E04C0                   000000018012de60     CCXExtUI.res
 0005:000f8ac8       $R0E1128                   000000018012eac8     CCXExtUI.res
 0005:000f8fc0       $R0E1620                   000000018012efc0     CCXExtUI.res
 0005:000f9848       $R0E1EA8                   000000018012f848     CCXExtUI.res
 0005:000f9da8       $R0E2408                   000000018012fda8     CCXExtUI.res
 0005:000fa2b8       $R0E2918                   00000001801302b8     CCXExtUI.res
 0005:000fa758       $R0E2DB8                   0000000180130758     CCXExtUI.res
 0005:000faff0       $R0E3650                   0000000180130ff0     CCXExtUI.res
 0005:000fb880       $R0E3EE0                   0000000180131880     CCXExtUI.res
 0005:000fbba0       $R0E4200                   0000000180131ba0     CCXExtUI.res
 0005:000fc080       $R0E46E0                   0000000180132080     CCXExtUI.res
 0005:000fc4f8       $R0E4B58                   00000001801324f8     CCXExtUI.res
 0005:000fcaf8       $R0E5158                   0000000180132af8     CCXExtUI.res
 0005:000fd130       $R0E5790                   0000000180133130     CCXExtUI.res
 0005:000fd658       $R0E5CB8                   0000000180133658     CCXExtUI.res
 0005:000fdd68       $R0E63C8                   0000000180133d68     CCXExtUI.res
 0005:000fe1f0       $R0E6850                   00000001801341f0     CCXExtUI.res
 0005:000fe6c8       $R0E6D28                   00000001801346c8     CCXExtUI.res
 0005:000fecb0       $R0E7310                   0000000180134cb0     CCXExtUI.res
 0005:000ff218       $R0E7878                   0000000180135218     CCXExtUI.res
 0005:000ff7d0       $R0E7E30                   00000001801357d0     CCXExtUI.res
 0005:000ffb40       $R0E81A0                   0000000180135b40     CCXExtUI.res
 0005:000ffbd0       $R0E8230                   0000000180135bd0     CCXExtUI.res
 0005:000ffd18       $R0E8378                   0000000180135d18     CCXExtUI.res
 0005:000ffe98       $R0E84F8                   0000000180135e98     CCXExtUI.res
 0005:00100000       $R0E8660                   0000000180136000     CCXExtUI.res
 0005:00100170       $R0E87D0                   0000000180136170     CCXExtUI.res
 0005:00100328       $R0E8988                   0000000180136328     CCXExtUI.res
 0005:00100468       $R0E8AC8                   0000000180136468     CCXExtUI.res
 0005:00100560       $R0E8BC0                   0000000180136560     CCXExtUI.res
 0005:001006c0       $R0E8D20                   00000001801366c0     CCXExtUI.res
 0005:001007f0       $R0E8E50                   00000001801367f0     CCXExtUI.res
 0005:00100940       $R0E8FA0                   0000000180136940     CCXExtUI.res
 0005:00100a90       $R0E90F0                   0000000180136a90     CCXExtUI.res
 0005:00100c38       $R0E9298                   0000000180136c38     CCXExtUI.res
 0005:00100dc0       $R0E9420                   0000000180136dc0     CCXExtUI.res
 0005:00100f68       $R0E95C8                   0000000180136f68     CCXExtUI.res
 0005:00101110       $R0E9770                   0000000180137110     CCXExtUI.res
 0005:00101168       $R0E97C8                   0000000180137168     CCXExtUI.res
 0005:00101750       $R0E9DB0                   0000000180137750     CCXExtUI.res
 0005:00101ac8       $R0EA128                   0000000180137ac8     CCXExtUI.res
 0005:00101dd0       $R0EA430                   0000000180137dd0     CCXExtUI.res
 0005:00102098       $R0EA6F8                   0000000180138098     CCXExtUI.res
 0005:00102580       $R0EABE0                   0000000180138580     CCXExtUI.res
 0005:00102aa0       $R0EB100                   0000000180138aa0     CCXExtUI.res
 0005:00102e78       $R0EB4D8                   0000000180138e78     CCXExtUI.res
 0005:00103440       $R0EBAA0                   0000000180139440     CCXExtUI.res
 0005:00103e28       $R0EC488                   0000000180139e28     CCXExtUI.res
 0005:00104280       $R0EC8E0                   000000018013a280     CCXExtUI.res
 0005:00104938       $R0ECF98                   000000018013a938     CCXExtUI.res
 0005:00104e88       $R0ED4E8                   000000018013ae88     CCXExtUI.res
 0005:00105330       $R0ED990                   000000018013b330     CCXExtUI.res
 0005:00105958       $R0EDFB8                   000000018013b958     CCXExtUI.res
 0005:00105bd0       $R0EE230                   000000018013bbd0     CCXExtUI.res
 0005:00106220       $R0EE880                   000000018013c220     CCXExtUI.res
 0005:001063d0       $R0EEA30                   000000018013c3d0     CCXExtUI.res
 0005:00106ae8       $R0EF148                   000000018013cae8     CCXExtUI.res
 0005:00106d40       $R0EF3A0                   000000018013cd40     CCXExtUI.res
 0005:00106f10       $R0EF570                   000000018013cf10     CCXExtUI.res
 0005:001073a8       $R0EFA08                   000000018013d3a8     CCXExtUI.res
 0005:00107920       $R0EFF80                   000000018013d920     CCXExtUI.res
 0005:00107ec8       $R0F0528                   000000018013dec8     CCXExtUI.res
 0005:001081f0       $R0F0850                   000000018013e1f0     CCXExtUI.res
 0005:00108a00       $R0F1060                   000000018013ea00     CCXExtUI.res
 0005:00109168       $R0F17C8                   000000018013f168     CCXExtUI.res
 0005:001097b8       $R0F1E18                   000000018013f7b8     CCXExtUI.res
 0005:00109b28       $R0F2188                   000000018013fb28     CCXExtUI.res
 0005:0010a3d0       $R0F2A30                   00000001801403d0     CCXExtUI.res
 0005:0010a6e8       $R0F2D48                   00000001801406e8     CCXExtUI.res
 0005:0010a9e8       $R0F3048                   00000001801409e8     CCXExtUI.res
 0005:0010ace8       $R0F3348                   0000000180140ce8     CCXExtUI.res
 0005:0010afc8       $R0F3628                   0000000180140fc8     CCXExtUI.res
 0005:0010b8f8       $R0F3F58                   00000001801418f8     CCXExtUI.res
 0005:0010be68       $R0F44C8                   0000000180141e68     CCXExtUI.res
 0005:0010c178       $R0F47D8                   0000000180142178     CCXExtUI.res
 0005:0010c728       $R0F4D88                   0000000180142728     CCXExtUI.res
 0005:0010cc38       $R0F5298                   0000000180142c38     CCXExtUI.res
 0005:0010d330       $R0F5990                   0000000180143330     CCXExtUI.res
 0005:0010d7f0       $R0F5E50                   00000001801437f0     CCXExtUI.res
 0005:0010dc58       $R0F62B8                   0000000180143c58     CCXExtUI.res
 0005:0010e110       $R0F6770                   0000000180144110     CCXExtUI.res
 0005:0010e5b0       $R0F6C10                   00000001801445b0     CCXExtUI.res
 0005:0010e9a0       $R0F7000                   00000001801449a0     CCXExtUI.res
 0005:0010ebb0       $R0F7210                   0000000180144bb0     CCXExtUI.res
 0005:0010ee28       $R0F7488                   0000000180144e28     CCXExtUI.res
 0005:0010f278       $R0F78D8                   0000000180145278     CCXExtUI.res
 0005:0010f598       $R0F7BF8                   0000000180145598     CCXExtUI.res
 0005:0010f780       $R0F7DE0                   0000000180145780     CCXExtUI.res
 0005:0010fb20       $R0F8180                   0000000180145b20     CCXExtUI.res
 0005:00110518       $R0F8B78                   0000000180146518     CCXExtUI.res
 0005:001111d8       $R0F9838                   00000001801471d8     CCXExtUI.res
 0005:00111780       $R0F9DE0                   0000000180147780     CCXExtUI.res
 0005:00112190       $R0FA7F0                   0000000180148190     CCXExtUI.res
 0005:00112770       $R0FADD0                   0000000180148770     CCXExtUI.res
 0005:00112d68       $R0FB3C8                   0000000180148d68     CCXExtUI.res
 0005:00113288       $R0FB8E8                   0000000180149288     CCXExtUI.res
 0005:00113b78       $R0FC1D8                   0000000180149b78     CCXExtUI.res
 0005:00114518       $R0FCB78                   000000018014a518     CCXExtUI.res
 0005:00114910       $R0FCF70                   000000018014a910     CCXExtUI.res
 0005:00114e38       $R0FD498                   000000018014ae38     CCXExtUI.res
 0005:001152d8       $R0FD938                   000000018014b2d8     CCXExtUI.res
 0005:001159c8       $R0FE028                   000000018014b9c8     CCXExtUI.res
 0005:00116058       $R0FE6B8                   000000018014c058     CCXExtUI.res
 0005:001165f0       $R0FEC50                   000000018014c5f0     CCXExtUI.res
 0005:00116de0       $R0FF440                   000000018014cde0     CCXExtUI.res
 0005:00117330       $R0FF990                   000000018014d330     CCXExtUI.res
 0005:00117800       $R0FFE60                   000000018014d800     CCXExtUI.res
 0005:00117e00       $R100460                   000000018014de00     CCXExtUI.res
 0005:00118478       $R100AD8                   000000018014e478     CCXExtUI.res
 0005:00118ae0       $R101140                   000000018014eae0     CCXExtUI.res
 0005:00118ed8       $R101538                   000000018014eed8     CCXExtUI.res
 0005:00118f88       $R1015E8                   000000018014ef88     CCXExtUI.res
 0005:001190d8       $R101738                   000000018014f0d8     CCXExtUI.res
 0005:00119238       $R101898                   000000018014f238     CCXExtUI.res
 0005:001193b0       $R101A10                   000000018014f3b0     CCXExtUI.res
 0005:001194f0       $R101B50                   000000018014f4f0     CCXExtUI.res
 0005:00119698       $R101CF8                   000000018014f698     CCXExtUI.res
 0005:001197e8       $R101E48                   000000018014f7e8     CCXExtUI.res
 0005:001198e0       $R101F40                   000000018014f8e0     CCXExtUI.res
 0005:00119a00       $R102060                   000000018014fa00     CCXExtUI.res
 0005:00119b30       $R102190                   000000018014fb30     CCXExtUI.res
 0005:00119c80       $R1022E0                   000000018014fc80     CCXExtUI.res
 0005:00119dc8       $R102428                   000000018014fdc8     CCXExtUI.res
 0005:00119f68       $R1025C8                   000000018014ff68     CCXExtUI.res
 0005:0011a118       $R102778                   0000000180150118     CCXExtUI.res
 0005:0011a2f0       $R102950                   00000001801502f0     CCXExtUI.res
 0005:0011a470       $R102AD0                   0000000180150470     CCXExtUI.res
 0005:0011a4c0       $R102B20                   00000001801504c0     CCXExtUI.res
 0005:0011a9e8       $R103048                   00000001801509e8     CCXExtUI.res
 0005:0011ad18       $R103378                   0000000180150d18     CCXExtUI.res
 0005:0011af80       $R1035E0                   0000000180150f80     CCXExtUI.res
 0005:0011b238       $R103898                   0000000180151238     CCXExtUI.res
 0005:0011b660       $R103CC0                   0000000180151660     CCXExtUI.res
 0005:0011bb10       $R104170                   0000000180151b10     CCXExtUI.res
 0005:0011be78       $R1044D8                   0000000180151e78     CCXExtUI.res
 0005:0011c3a0       $R104A00                   00000001801523a0     CCXExtUI.res
 0005:0011ccc8       $R105328                   0000000180152cc8     CCXExtUI.res
 0005:0011d098       $R1056F8                   0000000180153098     CCXExtUI.res
 0005:0011d658       $R105CB8                   0000000180153658     CCXExtUI.res
 0005:0011daf8       $R106158                   0000000180153af8     CCXExtUI.res
 0005:0011df00       $R106560                   0000000180153f00     CCXExtUI.res
 0005:0011e420       $R106A80                   0000000180154420     CCXExtUI.res
 0005:0011e640       $R106CA0                   0000000180154640     CCXExtUI.res
 0005:0011ebc8       $R107228                   0000000180154bc8     CCXExtUI.res
 0005:0011ed18       $R107378                   0000000180154d18     CCXExtUI.res
 0005:0011f2a0       $R107900                   00000001801552a0     CCXExtUI.res
 0005:0011f4c0       $R107B20                   00000001801554c0     CCXExtUI.res
 0005:0011f668       $R107CC8                   0000000180155668     CCXExtUI.res
 0005:0011fa98       $R1080F8                   0000000180155a98     CCXExtUI.res
 0005:0011ff90       $R1085F0                   0000000180155f90     CCXExtUI.res
 0005:00120480       $R108AE0                   0000000180156480     CCXExtUI.res
 0005:00120780       $R108DE0                   0000000180156780     CCXExtUI.res
 0005:00120ef8       $R109558                   0000000180156ef8     CCXExtUI.res
 0005:001215e0       $R109C40                   00000001801575e0     CCXExtUI.res
 0005:00121b70       $R10A1D0                   0000000180157b70     CCXExtUI.res
 0005:00121e48       $R10A4A8                   0000000180157e48     CCXExtUI.res
 0005:001225f0       $R10AC50                   00000001801585f0     CCXExtUI.res
 0005:001228e0       $R10AF40                   00000001801588e0     CCXExtUI.res
 0005:00122c20       $R10B280                   0000000180158c20     CCXExtUI.res
 0005:00122ec0       $R10B520                   0000000180158ec0     CCXExtUI.res
 0005:001231a8       $R10B808                   00000001801591a8     CCXExtUI.res
 0005:00123998       $R10BFF8                   0000000180159998     CCXExtUI.res
 0005:00123df0       $R10C450                   0000000180159df0     CCXExtUI.res
 0005:001240b0       $R10C710                   000000018015a0b0     CCXExtUI.res
 0005:00124550       $R10CBB0                   000000018015a550     CCXExtUI.res
 0005:001249a0       $R10D000                   000000018015a9a0     CCXExtUI.res
 0005:00124fb8       $R10D618                   000000018015afb8     CCXExtUI.res
 0005:001253c0       $R10DA20                   000000018015b3c0     CCXExtUI.res
 0005:001257e8       $R10DE48                   000000018015b7e8     CCXExtUI.res
 0005:00125b88       $R10E1E8                   000000018015bb88     CCXExtUI.res
 0005:00125f50       $R10E5B0                   000000018015bf50     CCXExtUI.res
 0005:001262f0       $R10E950                   000000018015c2f0     CCXExtUI.res
 0005:00126478       $R10EAD8                   000000018015c478     CCXExtUI.res
 0005:00126680       $R10ECE0                   000000018015c680     CCXExtUI.res
 0005:001269d8       $R10F038                   000000018015c9d8     CCXExtUI.res
 0005:00126cf0       $R10F350                   000000018015ccf0     CCXExtUI.res
 0005:00126ea0       $R10F500                   000000018015cea0     CCXExtUI.res
 0005:00127200       $R10F860                   000000018015d200     CCXExtUI.res
 0005:00127a30       $R110090                   000000018015da30     CCXExtUI.res
 0005:001285a0       $R110C00                   000000018015e5a0     CCXExtUI.res
 0005:00128ab8       $R111118                   000000018015eab8     CCXExtUI.res
 0005:00129340       $R1119A0                   000000018015f340     CCXExtUI.res
 0005:001298a8       $R111F08                   000000018015f8a8     CCXExtUI.res
 0005:00129de8       $R112448                   000000018015fde8     CCXExtUI.res
 0005:0012a200       $R112860                   0000000180160200     CCXExtUI.res
 0005:0012aa10       $R113070                   0000000180160a10     CCXExtUI.res
 0005:0012b2a0       $R113900                   00000001801612a0     CCXExtUI.res
 0005:0012b610       $R113C70                   0000000180161610     CCXExtUI.res
 0005:0012ba98       $R1140F8                   0000000180161a98     CCXExtUI.res
 0005:0012be68       $R1144C8                   0000000180161e68     CCXExtUI.res
 0005:0012c418       $R114A78                   0000000180162418     CCXExtUI.res
 0005:0012ca48       $R1150A8                   0000000180162a48     CCXExtUI.res
 0005:0012cf28       $R115588                   0000000180162f28     CCXExtUI.res
 0005:0012d600       $R115C60                   0000000180163600     CCXExtUI.res
 0005:0012dae0       $R116140                   0000000180163ae0     CCXExtUI.res
 0005:0012df68       $R1165C8                   0000000180163f68     CCXExtUI.res
 0005:0012e508       $R116B68                   0000000180164508     CCXExtUI.res
 0005:0012eae0       $R117140                   0000000180164ae0     CCXExtUI.res
 0005:0012f0d8       $R117738                   00000001801650d8     CCXExtUI.res
 0005:0012f498       $R117AF8                   0000000180165498     CCXExtUI.res
 0005:0012f530       $R117B90                   0000000180165530     CCXExtUI.res
 0005:0012f678       $R117CD8                   0000000180165678     CCXExtUI.res
 0005:0012f7d0       $R117E30                   00000001801657d0     CCXExtUI.res
 0005:0012f940       $R117FA0                   0000000180165940     CCXExtUI.res
 0005:0012fa88       $R1180E8                   0000000180165a88     CCXExtUI.res
 0005:0012fc40       $R1182A0                   0000000180165c40     CCXExtUI.res
 0005:0012fd98       $R1183F8                   0000000180165d98     CCXExtUI.res
 0005:0012fe88       $R1184E8                   0000000180165e88     CCXExtUI.res
 0005:0012ffe0       $R118640                   0000000180165fe0     CCXExtUI.res
 0005:00130110       $R118770                   0000000180166110     CCXExtUI.res
 0005:00130278       $R1188D8                   0000000180166278     CCXExtUI.res
 0005:001303a8       $R118A08                   00000001801663a8     CCXExtUI.res
 0005:00130558       $R118BB8                   0000000180166558     CCXExtUI.res
 0005:001306e8       $R118D48                   00000001801666e8     CCXExtUI.res
 0005:00130880       $R118EE0                   0000000180166880     CCXExtUI.res
 0005:00130a08       $R119068                   0000000180166a08     CCXExtUI.res
 0005:00130a58       $R1190B8                   0000000180166a58     CCXExtUI.res
 0005:00130f48       $R1195A8                   0000000180166f48     CCXExtUI.res
 0005:001312c8       $R119928                   00000001801672c8     CCXExtUI.res
 0005:00131558       $R119BB8                   0000000180167558     CCXExtUI.res
 0005:001317f0       $R119E50                   00000001801677f0     CCXExtUI.res
 0005:00131c48       $R11A2A8                   0000000180167c48     CCXExtUI.res
 0005:001320c8       $R11A728                   00000001801680c8     CCXExtUI.res
 0005:001323e8       $R11AA48                   00000001801683e8     CCXExtUI.res
 0005:001328f8       $R11AF58                   00000001801688f8     CCXExtUI.res
 0005:00133258       $R11B8B8                   0000000180169258     CCXExtUI.res
 0005:00133620       $R11BC80                   0000000180169620     CCXExtUI.res
 0005:00133b18       $R11C178                   0000000180169b18     CCXExtUI.res
 0005:00133f78       $R11C5D8                   0000000180169f78     CCXExtUI.res
 0005:001343c0       $R11CA20                   000000018016a3c0     CCXExtUI.res
 0005:00134918       $R11CF78                   000000018016a918     CCXExtUI.res
 0005:00134b50       $R11D1B0                   000000018016ab50     CCXExtUI.res
 0005:00135188       $R11D7E8                   000000018016b188     CCXExtUI.res
 0005:001352e8       $R11D948                   000000018016b2e8     CCXExtUI.res
 0005:00135848       $R11DEA8                   000000018016b848     CCXExtUI.res
 0005:00135a68       $R11E0C8                   000000018016ba68     CCXExtUI.res
 0005:00135be0       $R11E240                   000000018016bbe0     CCXExtUI.res
 0005:00136038       $R11E698                   000000018016c038     CCXExtUI.res
 0005:001364a8       $R11EB08                   000000018016c4a8     CCXExtUI.res
 0005:001368c8       $R11EF28                   000000018016c8c8     CCXExtUI.res
 0005:00136bc0       $R11F220                   000000018016cbc0     CCXExtUI.res
 0005:00137388       $R11F9E8                   000000018016d388     CCXExtUI.res
 0005:001379c8       $R120028                   000000018016d9c8     CCXExtUI.res
 0005:00137f28       $R120588                   000000018016df28     CCXExtUI.res
 0005:001381f8       $R120858                   000000018016e1f8     CCXExtUI.res
 0005:001389d8       $R121038                   000000018016e9d8     CCXExtUI.res
 0005:00138cc0       $R121320                   000000018016ecc0     CCXExtUI.res
 0005:00138ff0       $R121650                   000000018016eff0     CCXExtUI.res
 0005:00139270       $R1218D0                   000000018016f270     CCXExtUI.res
 0005:00139540       $R121BA0                   000000018016f540     CCXExtUI.res
 0005:00139cf8       $R122358                   000000018016fcf8     CCXExtUI.res
 0005:0013a1d0       $R122830                   00000001801701d0     CCXExtUI.res
 0005:0013a490       $R122AF0                   0000000180170490     CCXExtUI.res
 0005:0013a960       $R122FC0                   0000000180170960     CCXExtUI.res
 0005:0013adf0       $R123450                   0000000180170df0     CCXExtUI.res
 0005:0013b420       $R123A80                   0000000180171420     CCXExtUI.res
 0005:0013b810       $R123E70                   0000000180171810     CCXExtUI.res
 0005:0013bbd8       $R124238                   0000000180171bd8     CCXExtUI.res
 0005:0013bf80       $R1245E0                   0000000180171f80     CCXExtUI.res
 0005:0013c378       $R1249D8                   0000000180172378     CCXExtUI.res
 0005:0013c720       $R124D80                   0000000180172720     CCXExtUI.res
 0005:0013c8f0       $R124F50                   00000001801728f0     CCXExtUI.res
 0005:0013cb78       $R1251D8                   0000000180172b78     CCXExtUI.res
 0005:0013cf48       $R1255A8                   0000000180172f48     CCXExtUI.res
 0005:0013d290       $R1258F0                   0000000180173290     CCXExtUI.res
 0005:0013d498       $R125AF8                   0000000180173498     CCXExtUI.res
 0005:0013d820       $R125E80                   0000000180173820     CCXExtUI.res
 0005:0013e068       $R1266C8                   0000000180174068     CCXExtUI.res
 0005:0013ecc8       $R127328                   0000000180174cc8     CCXExtUI.res
 0005:0013f1d0       $R127830                   00000001801751d0     CCXExtUI.res
 0005:0013fb30       $R128190                   0000000180175b30     CCXExtUI.res
 0005:00140098       $R1286F8                   0000000180176098     CCXExtUI.res
 0005:00140630       $R128C90                   0000000180176630     CCXExtUI.res
 0005:00140a98       $R1290F8                   0000000180176a98     CCXExtUI.res
 0005:00141220       $R129880                   0000000180177220     CCXExtUI.res
 0005:00141ac0       $R12A120                   0000000180177ac0     CCXExtUI.res
 0005:00141dd8       $R12A438                   0000000180177dd8     CCXExtUI.res
 0005:00142268       $R12A8C8                   0000000180178268     CCXExtUI.res
 0005:00142628       $R12AC88                   0000000180178628     CCXExtUI.res
 0005:00142b98       $R12B1F8                   0000000180178b98     CCXExtUI.res
 0005:001431a0       $R12B800                   00000001801791a0     CCXExtUI.res
 0005:00143620       $R12BC80                   0000000180179620     CCXExtUI.res
 0005:00143ca8       $R12C308                   0000000180179ca8     CCXExtUI.res
 0005:00144190       $R12C7F0                   000000018017a190     CCXExtUI.res
 0005:00144638       $R12CC98                   000000018017a638     CCXExtUI.res
 0005:00144c50       $R12D2B0                   000000018017ac50     CCXExtUI.res
 0005:00145178       $R12D7D8                   000000018017b178     CCXExtUI.res
 0005:00145728       $R12DD88                   000000018017b728     CCXExtUI.res
 0005:00145a88       $R12E0E8                   000000018017ba88     CCXExtUI.res
 0005:00145b10       $R12E170                   000000018017bb10     CCXExtUI.res
 0005:00145c58       $R12E2B8                   000000018017bc58     CCXExtUI.res
 0005:00145db0       $R12E410                   000000018017bdb0     CCXExtUI.res
 0005:00145f30       $R12E590                   000000018017bf30     CCXExtUI.res
 0005:00146080       $R12E6E0                   000000018017c080     CCXExtUI.res
 0005:00146230       $R12E890                   000000018017c230     CCXExtUI.res
 0005:00146398       $R12E9F8                   000000018017c398     CCXExtUI.res
 0005:00146490       $R12EAF0                   000000018017c490     CCXExtUI.res
 0005:001465c0       $R12EC20                   000000018017c5c0     CCXExtUI.res
 0005:001466f8       $R12ED58                   000000018017c6f8     CCXExtUI.res
 0005:00146840       $R12EEA0                   000000018017c840     CCXExtUI.res
 0005:00146978       $R12EFD8                   000000018017c978     CCXExtUI.res
 0005:00146b30       $R12F190                   000000018017cb30     CCXExtUI.res
 0005:00146cc0       $R12F320                   000000018017ccc0     CCXExtUI.res
 0005:00146e90       $R12F4F0                   000000018017ce90     CCXExtUI.res
 0005:00147010       $R12F670                   000000018017d010     CCXExtUI.res
 0005:00147068       $R12F6C8                   000000018017d068     CCXExtUI.res
 0005:00147540       $R12FBA0                   000000018017d540     CCXExtUI.res
 0005:001478b0       $R12FF10                   000000018017d8b0     CCXExtUI.res
 0005:00147b30       $R130190                   000000018017db30     CCXExtUI.res
 0005:00147e18       $R130478                   000000018017de18     CCXExtUI.res
 0005:001482c8       $R130928                   000000018017e2c8     CCXExtUI.res
 0005:00148780       $R130DE0                   000000018017e780     CCXExtUI.res
 0005:00148ad8       $R131138                   000000018017ead8     CCXExtUI.res
 0005:00149080       $R1316E0                   000000018017f080     CCXExtUI.res
 0005:001498e8       $R131F48                   000000018017f8e8     CCXExtUI.res
 0005:00149ca8       $R132308                   000000018017fca8     CCXExtUI.res
 0005:0014a238       $R132898                   0000000180180238     CCXExtUI.res
 0005:0014a6e0       $R132D40                   00000001801806e0     CCXExtUI.res
 0005:0014ab80       $R1331E0                   0000000180180b80     CCXExtUI.res
 0005:0014b0a0       $R133700                   00000001801810a0     CCXExtUI.res
 0005:0014b318       $R133978                   0000000180181318     CCXExtUI.res
 0005:0014b870       $R133ED0                   0000000180181870     CCXExtUI.res
 0005:0014b9f0       $R134050                   00000001801819f0     CCXExtUI.res
 0005:0014bf70       $R1345D0                   0000000180181f70     CCXExtUI.res
 0005:0014c188       $R1347E8                   0000000180182188     CCXExtUI.res
 0005:0014c338       $R134998                   0000000180182338     CCXExtUI.res
 0005:0014c7c8       $R134E28                   00000001801827c8     CCXExtUI.res
 0005:0014cce8       $R135348                   0000000180182ce8     CCXExtUI.res
 0005:0014d1a8       $R135808                   00000001801831a8     CCXExtUI.res
 0005:0014d4c8       $R135B28                   00000001801834c8     CCXExtUI.res
 0005:0014dcc8       $R136328                   0000000180183cc8     CCXExtUI.res
 0005:0014e268       $R1368C8                   0000000180184268     CCXExtUI.res
 0005:0014e868       $R136EC8                   0000000180184868     CCXExtUI.res
 0005:0014ebd0       $R137230                   0000000180184bd0     CCXExtUI.res
 0005:0014f3a8       $R137A08                   00000001801853a8     CCXExtUI.res
 0005:0014f6a8       $R137D08                   00000001801856a8     CCXExtUI.res
 0005:0014f9f0       $R138050                   00000001801859f0     CCXExtUI.res
 0005:0014fca8       $R138308                   0000000180185ca8     CCXExtUI.res
 0005:0014ff90       $R1385F0                   0000000180185f90     CCXExtUI.res
 0005:001507f0       $R138E50                   00000001801867f0     CCXExtUI.res
 0005:00150cd8       $R139338                   0000000180186cd8     CCXExtUI.res
 0005:00150f90       $R1395F0                   0000000180186f90     CCXExtUI.res
 0005:00151488       $R139AE8                   0000000180187488     CCXExtUI.res
 0005:00151948       $R139FA8                   0000000180187948     CCXExtUI.res
 0005:00151f48       $R13A5A8                   0000000180187f48     CCXExtUI.res
 0005:001523f8       $R13AA58                   00000001801883f8     CCXExtUI.res
 0005:001528c0       $R13AF20                   00000001801888c0     CCXExtUI.res
 0005:00152c68       $R13B2C8                   0000000180188c68     CCXExtUI.res
 0005:001530b8       $R13B718                   00000001801890b8     CCXExtUI.res
 0005:00153480       $R13BAE0                   0000000180189480     CCXExtUI.res
 0005:00153658       $R13BCB8                   0000000180189658     CCXExtUI.res
 0005:001538e0       $R13BF40                   00000001801898e0     CCXExtUI.res
 0005:00153cd0       $R13C330                   0000000180189cd0     CCXExtUI.res
 0005:00153ff0       $R13C650                   0000000180189ff0     CCXExtUI.res
 0005:001541c8       $R13C828                   000000018018a1c8     CCXExtUI.res
 0005:00154568       $R13CBC8                   000000018018a568     CCXExtUI.res
 0005:00154e10       $R13D470                   000000018018ae10     CCXExtUI.res
 0005:00155a48       $R13E0A8                   000000018018ba48     CCXExtUI.res
 0005:00155f08       $R13E568                   000000018018bf08     CCXExtUI.res
 0005:00156788       $R13EDE8                   000000018018c788     CCXExtUI.res
 0005:00156cc0       $R13F320                   000000018018ccc0     CCXExtUI.res
 0005:00157200       $R13F860                   000000018018d200     CCXExtUI.res
 0005:00157628       $R13FC88                   000000018018d628     CCXExtUI.res
 0005:00157d80       $R1403E0                   000000018018dd80     CCXExtUI.res
 0005:00158698       $R140CF8                   000000018018e698     CCXExtUI.res
 0005:001589d8       $R141038                   000000018018e9d8     CCXExtUI.res
 0005:00158eb0       $R141510                   000000018018eeb0     CCXExtUI.res
 0005:001592f8       $R141958                   000000018018f2f8     CCXExtUI.res
 0005:00159938       $R141F98                   000000018018f938     CCXExtUI.res
 0005:0015a030       $R142690                   0000000180190030     CCXExtUI.res
 0005:0015a538       $R142B98                   0000000180190538     CCXExtUI.res
 0005:0015acb0       $R143310                   0000000180190cb0     CCXExtUI.res
 0005:0015b200       $R143860                   0000000180191200     CCXExtUI.res
 0005:0015b688       $R143CE8                   0000000180191688     CCXExtUI.res
 0005:0015bc98       $R1442F8                   0000000180191c98     CCXExtUI.res
 0005:0015c2a0       $R144900                   00000001801922a0     CCXExtUI.res
 0005:0015c858       $R144EB8                   0000000180192858     CCXExtUI.res
 0005:0015cc20       $R145280                   0000000180192c20     CCXExtUI.res
 0005:0015ccb8       $R145318                   0000000180192cb8     CCXExtUI.res
 0005:0015ce00       $R145460                   0000000180192e00     CCXExtUI.res
 0005:0015cf70       $R1455D0                   0000000180192f70     CCXExtUI.res
 0005:0015d0a0       $R145700                   00000001801930a0     CCXExtUI.res
 0005:0015d200       $R145860                   0000000180193200     CCXExtUI.res
 0005:0015d390       $R1459F0                   0000000180193390     CCXExtUI.res
 0005:0015d4c8       $R145B28                   00000001801934c8     CCXExtUI.res
 0005:0015d5b0       $R145C10                   00000001801935b0     CCXExtUI.res
 0005:0015d6f8       $R145D58                   00000001801936f8     CCXExtUI.res
 0005:0015d828       $R145E88                   0000000180193828     CCXExtUI.res
 0005:0015d9b8       $R146018                   00000001801939b8     CCXExtUI.res
 0005:0015daf0       $R146150                   0000000180193af0     CCXExtUI.res
 0005:0015dc88       $R1462E8                   0000000180193c88     CCXExtUI.res
 0005:0015de10       $R146470                   0000000180193e10     CCXExtUI.res
 0005:0015dfa0       $R146600                   0000000180193fa0     CCXExtUI.res
 0005:0015e140       $R1467A0                   0000000180194140     CCXExtUI.res
 0005:0015e1a0       $R146800                   00000001801941a0     CCXExtUI.res
 0005:0015e7b0       $R146E10                   00000001801947b0     CCXExtUI.res
 0005:0015ebd8       $R147238                   0000000180194bd8     CCXExtUI.res
 0005:0015eea8       $R147508                   0000000180194ea8     CCXExtUI.res
 0005:0015f1e8       $R147848                   00000001801951e8     CCXExtUI.res
 0005:0015f738       $R147D98                   0000000180195738     CCXExtUI.res
 0005:0015fc88       $R1482E8                   0000000180195c88     CCXExtUI.res
 0005:00160088       $R1486E8                   0000000180196088     CCXExtUI.res
 0005:00160700       $R148D60                   0000000180196700     CCXExtUI.res
 0005:00161150       $R1497B0                   0000000180197150     CCXExtUI.res
 0005:00161590       $R149BF0                   0000000180197590     CCXExtUI.res
 0005:00161c00       $R14A260                   0000000180197c00     CCXExtUI.res
 0005:00162198       $R14A7F8                   0000000180198198     CCXExtUI.res
 0005:001626b8       $R14AD18                   00000001801986b8     CCXExtUI.res
 0005:00162d08       $R14B368                   0000000180198d08     CCXExtUI.res
 0005:00162fc0       $R14B620                   0000000180198fc0     CCXExtUI.res
 0005:00163630       $R14BC90                   0000000180199630     CCXExtUI.res
 0005:001637b8       $R14BE18                   00000001801997b8     CCXExtUI.res
 0005:00163e18       $R14C478                   0000000180199e18     CCXExtUI.res
 0005:00164090       $R14C6F0                   000000018019a090     CCXExtUI.res
 0005:00164258       $R14C8B8                   000000018019a258     CCXExtUI.res
 0005:00164788       $R14CDE8                   000000018019a788     CCXExtUI.res
 0005:00164de8       $R14D448                   000000018019ade8     CCXExtUI.res
 0005:00165460       $R14DAC0                   000000018019b460     CCXExtUI.res
 0005:001657e0       $R14DE40                   000000018019b7e0     CCXExtUI.res
 0005:00166078       $R14E6D8                   000000018019c078     CCXExtUI.res
 0005:001667b0       $R14EE10                   000000018019c7b0     CCXExtUI.res
 0005:00166e70       $R14F4D0                   000000018019ce70     CCXExtUI.res
 0005:001671c0       $R14F820                   000000018019d1c0     CCXExtUI.res
 0005:00167ab8       $R150118                   000000018019dab8     CCXExtUI.res
 0005:00167e20       $R150480                   000000018019de20     CCXExtUI.res
 0005:00168208       $R150868                   000000018019e208     CCXExtUI.res
 0005:00168540       $R150BA0                   000000018019e540     CCXExtUI.res
 0005:00168928       $R150F88                   000000018019e928     CCXExtUI.res
 0005:00169300       $R151960                   000000018019f300     CCXExtUI.res
 0005:00169848       $R151EA8                   000000018019f848     CCXExtUI.res
 0005:00169b98       $R1521F8                   000000018019fb98     CCXExtUI.res
 0005:0016a1f8       $R152858                   00000001801a01f8     CCXExtUI.res
 0005:0016a758       $R152DB8                   00000001801a0758     CCXExtUI.res
 0005:0016aeb0       $R153510                   00000001801a0eb0     CCXExtUI.res
 0005:0016b398       $R1539F8                   00000001801a1398     CCXExtUI.res
 0005:0016b8f0       $R153F50                   00000001801a18f0     CCXExtUI.res
 0005:0016bd30       $R154390                   00000001801a1d30     CCXExtUI.res
 0005:0016c198       $R1547F8                   00000001801a2198     CCXExtUI.res
 0005:0016c600       $R154C60                   00000001801a2600     CCXExtUI.res
 0005:0016c838       $R154E98                   00000001801a2838     CCXExtUI.res
 0005:0016caf8       $R155158                   00000001801a2af8     CCXExtUI.res
 0005:0016cf60       $R1555C0                   00000001801a2f60     CCXExtUI.res
 0005:0016d340       $R1559A0                   00000001801a3340     CCXExtUI.res
 0005:0016d508       $R155B68                   00000001801a3508     CCXExtUI.res
 0005:0016d908       $R155F68                   00000001801a3908     CCXExtUI.res
 0005:0016e268       $R1568C8                   00000001801a4268     CCXExtUI.res
 0005:0016ef68       $R1575C8                   00000001801a4f68     CCXExtUI.res
 0005:0016f4b0       $R157B10                   00000001801a54b0     CCXExtUI.res
 0005:0016fdd0       $R158430                   00000001801a5dd0     CCXExtUI.res
 0005:00170408       $R158A68                   00000001801a6408     CCXExtUI.res
 0005:00170a30       $R159090                   00000001801a6a30     CCXExtUI.res
 0005:00170f10       $R159570                   00000001801a6f10     CCXExtUI.res
 0005:00171880       $R159EE0                   00000001801a7880     CCXExtUI.res
 0005:00172208       $R15A868                   00000001801a8208     CCXExtUI.res
 0005:001725f0       $R15AC50                   00000001801a85f0     CCXExtUI.res
 0005:00172b28       $R15B188                   00000001801a8b28     CCXExtUI.res
 0005:00172fc8       $R15B628                   00000001801a8fc8     CCXExtUI.res
 0005:001736f8       $R15BD58                   00000001801a96f8     CCXExtUI.res
 0005:00173e88       $R15C4E8                   00000001801a9e88     CCXExtUI.res
 0005:00174450       $R15CAB0                   00000001801aa450     CCXExtUI.res
 0005:00174c18       $R15D278                   00000001801aac18     CCXExtUI.res
 0005:00175138       $R15D798                   00000001801ab138     CCXExtUI.res
 0005:001756a8       $R15DD08                   00000001801ab6a8     CCXExtUI.res
 0005:00175cf0       $R15E350                   00000001801abcf0     CCXExtUI.res
 0005:00176340       $R15E9A0                   00000001801ac340     CCXExtUI.res
 0005:00176a38       $R15F098                   00000001801aca38     CCXExtUI.res
 0005:00176e90       $R15F4F0                   00000001801ace90     CCXExtUI.res
 0005:00176f30       $R15F590                   00000001801acf30     CCXExtUI.res
 0005:00177078       $R15F6D8                   00000001801ad078     CCXExtUI.res
 0005:001771e8       $R15F848                   00000001801ad1e8     CCXExtUI.res
 0005:00177350       $R15F9B0                   00000001801ad350     CCXExtUI.res
 0005:001774c8       $R15FB28                   00000001801ad4c8     CCXExtUI.res
 0005:00177678       $R15FCD8                   00000001801ad678     CCXExtUI.res
 0005:001777c0       $R15FE20                   00000001801ad7c0     CCXExtUI.res
 0005:001778b8       $R15FF18                   00000001801ad8b8     CCXExtUI.res
 0005:00177a20       $R160080                   00000001801ada20     CCXExtUI.res
 0005:00177b98       $R1601F8                   00000001801adb98     CCXExtUI.res
 0005:00177d30       $R160390                   00000001801add30     CCXExtUI.res
 0005:00177ea0       $R160500                   00000001801adea0     CCXExtUI.res
 0005:00178058       $R1606B8                   00000001801ae058     CCXExtUI.res
 0005:00178208       $R160868                   00000001801ae208     CCXExtUI.res
 0005:001783e8       $R160A48                   00000001801ae3e8     CCXExtUI.res
 0005:00178598       $R160BF8                   00000001801ae598     CCXExtUI.res
 0005:001785f0       $R160C50                   00000001801ae5f0     CCXExtUI.res
 0005:00178ca0       $R161300                   00000001801aeca0     CCXExtUI.res
 0005:00179070       $R1616D0                   00000001801af070     CCXExtUI.res
 0005:001793a8       $R161A08                   00000001801af3a8     CCXExtUI.res
 0005:00179728       $R161D88                   00000001801af728     CCXExtUI.res
 0005:00179cf0       $R162350                   00000001801afcf0     CCXExtUI.res
 0005:0017a2c0       $R162920                   00000001801b02c0     CCXExtUI.res
 0005:0017a6b8       $R162D18                   00000001801b06b8     CCXExtUI.res
 0005:0017ad68       $R1633C8                   00000001801b0d68     CCXExtUI.res
 0005:0017b9b0       $R164010                   00000001801b19b0     CCXExtUI.res
 0005:0017be40       $R1644A0                   00000001801b1e40     CCXExtUI.res
 0005:0017c4b0       $R164B10                   00000001801b24b0     CCXExtUI.res
 0005:0017c9f8       $R165058                   00000001801b29f8     CCXExtUI.res
 0005:0017cf10       $R165570                   00000001801b2f10     CCXExtUI.res
 0005:0017d558       $R165BB8                   00000001801b3558     CCXExtUI.res
 0005:0017d7e8       $R165E48                   00000001801b37e8     CCXExtUI.res
 0005:0017df68       $R1665C8                   00000001801b3f68     CCXExtUI.res
 0005:0017e138       $R166798                   00000001801b4138     CCXExtUI.res
 0005:0017e7a0       $R166E00                   00000001801b47a0     CCXExtUI.res
 0005:0017ea68       $R1670C8                   00000001801b4a68     CCXExtUI.res
 0005:0017ec40       $R1672A0                   00000001801b4c40     CCXExtUI.res
 0005:0017f130       $R167790                   00000001801b5130     CCXExtUI.res
 0005:0017f720       $R167D80                   00000001801b5720     CCXExtUI.res
 0005:0017fcf0       $R168350                   00000001801b5cf0     CCXExtUI.res
 0005:00180048       $R1686A8                   00000001801b6048     CCXExtUI.res
 0005:00180988       $R168FE8                   00000001801b6988     CCXExtUI.res
 0005:001811f8       $R169858                   00000001801b71f8     CCXExtUI.res
 0005:00181980       $R169FE0                   00000001801b7980     CCXExtUI.res
 0005:00181d78       $R16A3D8                   00000001801b7d78     CCXExtUI.res
 0005:001826d8       $R16AD38                   00000001801b86d8     CCXExtUI.res
 0005:00182a30       $R16B090                   00000001801b8a30     CCXExtUI.res
 0005:00182dc8       $R16B428                   00000001801b8dc8     CCXExtUI.res
 0005:001830e8       $R16B748                   00000001801b90e8     CCXExtUI.res
 0005:001834c0       $R16BB20                   00000001801b94c0     CCXExtUI.res
 0005:00183e50       $R16C4B0                   00000001801b9e50     CCXExtUI.res
 0005:001843c0       $R16CA20                   00000001801ba3c0     CCXExtUI.res
 0005:001846d8       $R16CD38                   00000001801ba6d8     CCXExtUI.res
 0005:00184d38       $R16D398                   00000001801bad38     CCXExtUI.res
 0005:001852d0       $R16D930                   00000001801bb2d0     CCXExtUI.res
 0005:00185a08       $R16E068                   00000001801bba08     CCXExtUI.res
 0005:00185f80       $R16E5E0                   00000001801bbf80     CCXExtUI.res
 0005:00186438       $R16EA98                   00000001801bc438     CCXExtUI.res
 0005:001868b0       $R16EF10                   00000001801bc8b0     CCXExtUI.res
 0005:00186e58       $R16F4B8                   00000001801bce58     CCXExtUI.res
 0005:001872e0       $R16F940                   00000001801bd2e0     CCXExtUI.res
 0005:001874d8       $R16FB38                   00000001801bd4d8     CCXExtUI.res
 0005:00187780       $R16FDE0                   00000001801bd780     CCXExtUI.res
 0005:00187be8       $R170248                   00000001801bdbe8     CCXExtUI.res
 0005:00187f88       $R1705E8                   00000001801bdf88     CCXExtUI.res
 0005:00188158       $R1707B8                   00000001801be158     CCXExtUI.res
 0005:00188500       $R170B60                   00000001801be500     CCXExtUI.res
 0005:00188f98       $R1715F8                   00000001801bef98     CCXExtUI.res
 0005:00189e08       $R172468                   00000001801bfe08     CCXExtUI.res
 0005:0018a3f8       $R172A58                   00000001801c03f8     CCXExtUI.res
 0005:0018ad90       $R1733F0                   00000001801c0d90     CCXExtUI.res
 0005:0018b440       $R173AA0                   00000001801c1440     CCXExtUI.res
 0005:0018ba90       $R1740F0                   00000001801c1a90     CCXExtUI.res
 0005:0018bf28       $R174588                   00000001801c1f28     CCXExtUI.res
 0005:0018c860       $R174EC0                   00000001801c2860     CCXExtUI.res
 0005:0018d308       $R175968                   00000001801c3308     CCXExtUI.res
 0005:0018d798       $R175DF8                   00000001801c3798     CCXExtUI.res
 0005:0018ddb8       $R176418                   00000001801c3db8     CCXExtUI.res
 0005:0018e2f0       $R176950                   00000001801c42f0     CCXExtUI.res
 0005:0018ea50       $R1770B0                   00000001801c4a50     CCXExtUI.res
 0005:0018f1d8       $R177838                   00000001801c51d8     CCXExtUI.res
 0005:0018f788       $R177DE8                   00000001801c5788     CCXExtUI.res
 0005:0018ffb0       $R178610                   00000001801c5fb0     CCXExtUI.res
 0005:00190540       $R178BA0                   00000001801c6540     CCXExtUI.res
 0005:00190a10       $R179070                   00000001801c6a10     CCXExtUI.res
 0005:00191000       $R179660                   00000001801c7000     CCXExtUI.res
 0005:00191610       $R179C70                   00000001801c7610     CCXExtUI.res
 0005:00191cd8       $R17A338                   00000001801c7cd8     CCXExtUI.res
 0005:001920c8       $R17A728                   00000001801c80c8     CCXExtUI.res
 0005:00192168       $R17A7C8                   00000001801c8168     CCXExtUI.res
 0005:001922d0       $R17A930                   00000001801c82d0     CCXExtUI.res
 0005:00192448       $R17AAA8                   00000001801c8448     CCXExtUI.res
 0005:001925a8       $R17AC08                   00000001801c85a8     CCXExtUI.res
 0005:00192708       $R17AD68                   00000001801c8708     CCXExtUI.res
 0005:001928e0       $R17AF40                   00000001801c88e0     CCXExtUI.res
 0005:00192a60       $R17B0C0                   00000001801c8a60     CCXExtUI.res
 0005:00192b58       $R17B1B8                   00000001801c8b58     CCXExtUI.res
 0005:00192cd0       $R17B330                   00000001801c8cd0     CCXExtUI.res
 0005:00192e10       $R17B470                   00000001801c8e10     CCXExtUI.res
 0005:00192f70       $R17B5D0                   00000001801c8f70     CCXExtUI.res
 0005:001930d8       $R17B738                   00000001801c90d8     CCXExtUI.res
 0005:00193268       $R17B8C8                   00000001801c9268     CCXExtUI.res
 0005:00193408       $R17BA68                   00000001801c9408     CCXExtUI.res
 0005:00193578       $R17BBD8                   00000001801c9578     CCXExtUI.res
 0005:00193708       $R17BD68                   00000001801c9708     CCXExtUI.res
 0005:00193758       $R17BDB8                   00000001801c9758     CCXExtUI.res
 0005:00193dc8       $R17C428                   00000001801c9dc8     CCXExtUI.res
 0005:00194280       $R17C8E0                   00000001801ca280     CCXExtUI.res
 0005:00194580       $R17CBE0                   00000001801ca580     CCXExtUI.res
 0005:001948c0       $R17CF20                   00000001801ca8c0     CCXExtUI.res
 0005:00194df0       $R17D450                   00000001801cadf0     CCXExtUI.res
 0005:00195460       $R17DAC0                   00000001801cb460     CCXExtUI.res
 0005:001958e8       $R17DF48                   00000001801cb8e8     CCXExtUI.res
 0005:00195f98       $R17E5F8                   00000001801cbf98     CCXExtUI.res
 0005:00196a90       $R17F0F0                   00000001801cca90     CCXExtUI.res
 0005:00196f08       $R17F568                   00000001801ccf08     CCXExtUI.res
 0005:001976b0       $R17FD10                   00000001801cd6b0     CCXExtUI.res
 0005:00197d90       $R1803F0                   00000001801cdd90     CCXExtUI.res
 0005:00198370       $R1809D0                   00000001801ce370     CCXExtUI.res
 0005:00198ad0       $R181130                   00000001801cead0     CCXExtUI.res
 0005:00198d80       $R1813E0                   00000001801ced80     CCXExtUI.res
 0005:00199470       $R181AD0                   00000001801cf470     CCXExtUI.res
 0005:00199600       $R181C60                   00000001801cf600     CCXExtUI.res
 0005:00199da8       $R182408                   00000001801cfda8     CCXExtUI.res
 0005:0019a070       $R1826D0                   00000001801d0070     CCXExtUI.res
 0005:0019a2a8       $R182908                   00000001801d02a8     CCXExtUI.res
 0005:0019a808       $R182E68                   00000001801d0808     CCXExtUI.res
 0005:0019ae88       $R1834E8                   00000001801d0e88     CCXExtUI.res
 0005:0019b508       $R183B68                   00000001801d1508     CCXExtUI.res
 0005:0019b868       $R183EC8                   00000001801d1868     CCXExtUI.res
 0005:0019c2c0       $R184920                   00000001801d22c0     CCXExtUI.res
 0005:0019cb58       $R1851B8                   00000001801d2b58     CCXExtUI.res
 0005:0019d268       $R1858C8                   00000001801d3268     CCXExtUI.res
 0005:0019d5b0       $R185C10                   00000001801d35b0     CCXExtUI.res
 0005:0019deb8       $R186518                   00000001801d3eb8     CCXExtUI.res
 0005:0019e220       $R186880                   00000001801d4220     CCXExtUI.res
 0005:0019e628       $R186C88                   00000001801d4628     CCXExtUI.res
 0005:0019e9b8       $R187018                   00000001801d49b8     CCXExtUI.res
 0005:0019edb8       $R187418                   00000001801d4db8     CCXExtUI.res
 0005:0019f808       $R187E68                   00000001801d5808     CCXExtUI.res
 0005:0019fe50       $R1884B0                   00000001801d5e50     CCXExtUI.res
 0005:001a01c8       $R188828                   00000001801d61c8     CCXExtUI.res
 0005:001a08b8       $R188F18                   00000001801d68b8     CCXExtUI.res
 0005:001a0e08       $R189468                   00000001801d6e08     CCXExtUI.res
 0005:001a1588       $R189BE8                   00000001801d7588     CCXExtUI.res
 0005:001a1b78       $R18A1D8                   00000001801d7b78     CCXExtUI.res
 0005:001a2180       $R18A7E0                   00000001801d8180     CCXExtUI.res
 0005:001a2608       $R18AC68                   00000001801d8608     CCXExtUI.res
 0005:001a2ac8       $R18B128                   00000001801d8ac8     CCXExtUI.res
 0005:001a2f48       $R18B5A8                   00000001801d8f48     CCXExtUI.res
 0005:001a3110       $R18B770                   00000001801d9110     CCXExtUI.res
 0005:001a33b8       $R18BA18                   00000001801d93b8     CCXExtUI.res
 0005:001a37c8       $R18BE28                   00000001801d97c8     CCXExtUI.res
 0005:001a3b98       $R18C1F8                   00000001801d9b98     CCXExtUI.res
 0005:001a3d70       $R18C3D0                   00000001801d9d70     CCXExtUI.res
 0005:001a4248       $R18C8A8                   00000001801da248     CCXExtUI.res
 0005:001a4c40       $R18D2A0                   00000001801dac40     CCXExtUI.res
 0005:001a59c0       $R18E020                   00000001801db9c0     CCXExtUI.res
 0005:001a5fe0       $R18E640                   00000001801dbfe0     CCXExtUI.res
 0005:001a6a78       $R18F0D8                   00000001801dca78     CCXExtUI.res
 0005:001a70a0       $R18F700                   00000001801dd0a0     CCXExtUI.res
 0005:001a76a8       $R18FD08                   00000001801dd6a8     CCXExtUI.res
 0005:001a7bf8       $R190258                   00000001801ddbf8     CCXExtUI.res
 0005:001a8618       $R190C78                   00000001801de618     CCXExtUI.res
 0005:001a90c0       $R191720                   00000001801df0c0     CCXExtUI.res
 0005:001a94a0       $R191B00                   00000001801df4a0     CCXExtUI.res
 0005:001a9ab0       $R192110                   00000001801dfab0     CCXExtUI.res
 0005:001aa020       $R192680                   00000001801e0020     CCXExtUI.res
 0005:001aa790       $R192DF0                   00000001801e0790     CCXExtUI.res
 0005:001aafc0       $R193620                   00000001801e0fc0     CCXExtUI.res
 0005:001ab5a0       $R193C00                   00000001801e15a0     CCXExtUI.res
 0005:001abdf8       $R194458                   00000001801e1df8     CCXExtUI.res
 0005:001ac398       $R1949F8                   00000001801e2398     CCXExtUI.res
 0005:001ac918       $R194F78                   00000001801e2918     CCXExtUI.res
 0005:001acfe0       $R195640                   00000001801e2fe0     CCXExtUI.res
 0005:001ad6d8       $R195D38                   00000001801e36d8     CCXExtUI.res
 0005:001add98       $R1963F8                   00000001801e3d98     CCXExtUI.res
 0005:001ae160       $R1967C0                   00000001801e4160     CCXExtUI.res
 0005:001ae200       $R196860                   00000001801e4200     CCXExtUI.res
 0005:001ae368       $R1969C8                   00000001801e4368     CCXExtUI.res
 0005:001ae4d8       $R196B38                   00000001801e44d8     CCXExtUI.res
 0005:001ae660       $R196CC0                   00000001801e4660     CCXExtUI.res
 0005:001ae7f0       $R196E50                   00000001801e47f0     CCXExtUI.res
 0005:001ae9b0       $R197010                   00000001801e49b0     CCXExtUI.res
 0005:001aeaf8       $R197158                   00000001801e4af8     CCXExtUI.res
 0005:001aebf0       $R197250                   00000001801e4bf0     CCXExtUI.res
 0005:001aed58       $R1973B8                   00000001801e4d58     CCXExtUI.res
 0005:001aee80       $R1974E0                   00000001801e4e80     CCXExtUI.res
 0005:001aefe0       $R197640                   00000001801e4fe0     CCXExtUI.res
 0005:001af140       $R1977A0                   00000001801e5140     CCXExtUI.res
 0005:001af318       $R197978                   00000001801e5318     CCXExtUI.res
 0005:001af4e8       $R197B48                   00000001801e54e8     CCXExtUI.res
 0005:001af6d0       $R197D30                   00000001801e56d0     CCXExtUI.res
 0005:001af868       $R197EC8                   00000001801e5868     CCXExtUI.res
 0005:001af8b8       $R197F18                   00000001801e58b8     CCXExtUI.res
 0005:001afcb0       $R198310                   00000001801e5cb0     CCXExtUI.res
 0005:001aff38       $R198598                   00000001801e5f38     CCXExtUI.res
 0005:001b0118       $R198778                   00000001801e6118     CCXExtUI.res
 0005:001b0328       $R198988                   00000001801e6328     CCXExtUI.res
 0005:001b0648       $R198CA8                   00000001801e6648     CCXExtUI.res
 0005:001b0988       $R198FE8                   00000001801e6988     CCXExtUI.res
 0005:001b0be0       $R199240                   00000001801e6be0     CCXExtUI.res
 0005:001b0fb0       $R199610                   00000001801e6fb0     CCXExtUI.res
 0005:001b16b0       $R199D10                   00000001801e76b0     CCXExtUI.res
 0005:001b1980       $R199FE0                   00000001801e7980     CCXExtUI.res
 0005:001b1dd0       $R19A430                   00000001801e7dd0     CCXExtUI.res
 0005:001b2188       $R19A7E8                   00000001801e8188     CCXExtUI.res
 0005:001b2490       $R19AAF0                   00000001801e8490     CCXExtUI.res
 0005:001b2940       $R19AFA0                   00000001801e8940     CCXExtUI.res
 0005:001b2b10       $R19B170                   00000001801e8b10     CCXExtUI.res
 0005:001b2f90       $R19B5F0                   00000001801e8f90     CCXExtUI.res
 0005:001b30a0       $R19B700                   00000001801e90a0     CCXExtUI.res
 0005:001b34e8       $R19BB48                   00000001801e94e8     CCXExtUI.res
 0005:001b3660       $R19BCC0                   00000001801e9660     CCXExtUI.res
 0005:001b37b0       $R19BE10                   00000001801e97b0     CCXExtUI.res
 0005:001b3b18       $R19C178                   00000001801e9b18     CCXExtUI.res
 0005:001b3ec8       $R19C528                   00000001801e9ec8     CCXExtUI.res
 0005:001b42c8       $R19C928                   00000001801ea2c8     CCXExtUI.res
 0005:001b4508       $R19CB68                   00000001801ea508     CCXExtUI.res
 0005:001b4ab8       $R19D118                   00000001801eaab8     CCXExtUI.res
 0005:001b4f98       $R19D5F8                   00000001801eaf98     CCXExtUI.res
 0005:001b53e8       $R19DA48                   00000001801eb3e8     CCXExtUI.res
 0005:001b5618       $R19DC78                   00000001801eb618     CCXExtUI.res
 0005:001b5c00       $R19E260                   00000001801ebc00     CCXExtUI.res
 0005:001b5e48       $R19E4A8                   00000001801ebe48     CCXExtUI.res
 0005:001b60e0       $R19E740                   00000001801ec0e0     CCXExtUI.res
 0005:001b62b0       $R19E910                   00000001801ec2b0     CCXExtUI.res
 0005:001b64f0       $R19EB50                   00000001801ec4f0     CCXExtUI.res
 0005:001b6ae0       $R19F140                   00000001801ecae0     CCXExtUI.res
 0005:001b6e78       $R19F4D8                   00000001801ece78     CCXExtUI.res
 0005:001b7090       $R19F6F0                   00000001801ed090     CCXExtUI.res
 0005:001b7440       $R19FAA0                   00000001801ed440     CCXExtUI.res
 0005:001b77c0       $R19FE20                   00000001801ed7c0     CCXExtUI.res
 0005:001b7be8       $R1A0248                   00000001801edbe8     CCXExtUI.res
 0005:001b7ee0       $R1A0540                   00000001801edee0     CCXExtUI.res
 0005:001b8238       $R1A0898                   00000001801ee238     CCXExtUI.res
 0005:001b8528       $R1A0B88                   00000001801ee528     CCXExtUI.res
 0005:001b8870       $R1A0ED0                   00000001801ee870     CCXExtUI.res
 0005:001b8b18       $R1A1178                   00000001801eeb18     CCXExtUI.res
 0005:001b8c48       $R1A12A8                   00000001801eec48     CCXExtUI.res
 0005:001b8e28       $R1A1488                   00000001801eee28     CCXExtUI.res
 0005:001b90c8       $R1A1728                   00000001801ef0c8     CCXExtUI.res
 0005:001b9338       $R1A1998                   00000001801ef338     CCXExtUI.res
 0005:001b94d8       $R1A1B38                   00000001801ef4d8     CCXExtUI.res
 0005:001b9788       $R1A1DE8                   00000001801ef788     CCXExtUI.res
 0005:001b9d30       $R1A2390                   00000001801efd30     CCXExtUI.res
 0005:001ba5e8       $R1A2C48                   00000001801f05e8     CCXExtUI.res
 0005:001ba9e8       $R1A3048                   00000001801f09e8     CCXExtUI.res
 0005:001bb078       $R1A36D8                   00000001801f1078     CCXExtUI.res
 0005:001bb470       $R1A3AD0                   00000001801f1470     CCXExtUI.res
 0005:001bb8b0       $R1A3F10                   00000001801f18b0     CCXExtUI.res
 0005:001bbbb8       $R1A4218                   00000001801f1bb8     CCXExtUI.res
 0005:001bc178       $R1A47D8                   00000001801f2178     CCXExtUI.res
 0005:001bc7e0       $R1A4E40                   00000001801f27e0     CCXExtUI.res
 0005:001bca58       $R1A50B8                   00000001801f2a58     CCXExtUI.res
 0005:001bce08       $R1A5468                   00000001801f2e08     CCXExtUI.res
 0005:001bd118       $R1A5778                   00000001801f3118     CCXExtUI.res
 0005:001bd540       $R1A5BA0                   00000001801f3540     CCXExtUI.res
 0005:001bda10       $R1A6070                   00000001801f3a10     CCXExtUI.res
 0005:001bdda0       $R1A6400                   00000001801f3da0     CCXExtUI.res
 0005:001be2c8       $R1A6928                   00000001801f42c8     CCXExtUI.res
 0005:001be630       $R1A6C90                   00000001801f4630     CCXExtUI.res
 0005:001be9a0       $R1A7000                   00000001801f49a0     CCXExtUI.res
 0005:001bee00       $R1A7460                   00000001801f4e00     CCXExtUI.res
 0005:001bf210       $R1A7870                   00000001801f5210     CCXExtUI.res
 0005:001bf5f8       $R1A7C58                   00000001801f55f8     CCXExtUI.res
 0005:001bf888       $R1A7EE8                   00000001801f5888     CCXExtUI.res
 0005:001bf910       $R1A7F70                   00000001801f5910     CCXExtUI.res
 0005:001bfa38       $R1A8098                   00000001801f5a38     CCXExtUI.res
 0005:001bfb60       $R1A81C0                   00000001801f5b60     CCXExtUI.res
 0005:001bfc90       $R1A82F0                   00000001801f5c90     CCXExtUI.res
 0005:001bfdc8       $R1A8428                   00000001801f5dc8     CCXExtUI.res
 0005:001bff50       $R1A85B0                   00000001801f5f50     CCXExtUI.res
 0005:001c0068       $R1A86C8                   00000001801f6068     CCXExtUI.res
 0005:001c0150       $R1A87B0                   00000001801f6150     CCXExtUI.res
 0005:001c0288       $R1A88E8                   00000001801f6288     CCXExtUI.res
 0005:001c0388       $R1A89E8                   00000001801f6388     CCXExtUI.res
 0005:001c04c0       $R1A8B20                   00000001801f64c0     CCXExtUI.res
 0005:001c05d0       $R1A8C30                   00000001801f65d0     CCXExtUI.res
 0005:001c0748       $R1A8DA8                   00000001801f6748     CCXExtUI.res
 0005:001c0898       $R1A8EF8                   00000001801f6898     CCXExtUI.res
 0005:001c0a18       $R1A9078                   00000001801f6a18     CCXExtUI.res
 0005:001c0b70       $R1A91D0                   00000001801f6b70     CCXExtUI.res
 0005:001c0bc8       $R1A9228                   00000001801f6bc8     CCXExtUI.res
 0005:001c11f8       $R1A9858                   00000001801f71f8     CCXExtUI.res
 0005:001c15c0       $R1A9C20                   00000001801f75c0     CCXExtUI.res
 0005:001c1890       $R1A9EF0                   00000001801f7890     CCXExtUI.res
 0005:001c1c00       $R1AA260                   00000001801f7c00     CCXExtUI.res
 0005:001c20d0       $R1AA730                   00000001801f80d0     CCXExtUI.res
 0005:001c2578       $R1AABD8                   00000001801f8578     CCXExtUI.res
 0005:001c2928       $R1AAF88                   00000001801f8928     CCXExtUI.res
 0005:001c2f10       $R1AB570                   00000001801f8f10     CCXExtUI.res
 0005:001c3950       $R1ABFB0                   00000001801f9950     CCXExtUI.res
 0005:001c3d68       $R1AC3C8                   00000001801f9d68     CCXExtUI.res
 0005:001c43b8       $R1ACA18                   00000001801fa3b8     CCXExtUI.res
 0005:001c48e0       $R1ACF40                   00000001801fa8e0     CCXExtUI.res
 0005:001c4d68       $R1AD3C8                   00000001801fad68     CCXExtUI.res
 0005:001c5390       $R1AD9F0                   00000001801fb390     CCXExtUI.res
 0005:001c5690       $R1ADCF0                   00000001801fb690     CCXExtUI.res
 0005:001c5d68       $R1AE3C8                   00000001801fbd68     CCXExtUI.res
 0005:001c5f20       $R1AE580                   00000001801fbf20     CCXExtUI.res
 0005:001c6488       $R1AEAE8                   00000001801fc488     CCXExtUI.res
 0005:001c66b8       $R1AED18                   00000001801fc6b8     CCXExtUI.res
 0005:001c6890       $R1AEEF0                   00000001801fc890     CCXExtUI.res
 0005:001c6dc0       $R1AF420                   00000001801fcdc0     CCXExtUI.res
 0005:001c72f8       $R1AF958                   00000001801fd2f8     CCXExtUI.res
 0005:001c78e0       $R1AFF40                   00000001801fd8e0     CCXExtUI.res
 0005:001c7c20       $R1B0280                   00000001801fdc20     CCXExtUI.res
 0005:001c8468       $R1B0AC8                   00000001801fe468     CCXExtUI.res
 0005:001c8ca0       $R1B1300                   00000001801feca0     CCXExtUI.res
 0005:001c9348       $R1B19A8                   00000001801ff348     CCXExtUI.res
 0005:001c96e0       $R1B1D40                   00000001801ff6e0     CCXExtUI.res
 0005:001c9f60       $R1B25C0                   00000001801fff60     CCXExtUI.res
 0005:001ca280       $R1B28E0                   0000000180200280     CCXExtUI.res
 0005:001ca5d8       $R1B2C38                   00000001802005d8     CCXExtUI.res
 0005:001ca908       $R1B2F68                   0000000180200908     CCXExtUI.res
 0005:001cac70       $R1B32D0                   0000000180200c70     CCXExtUI.res
 0005:001cb5c8       $R1B3C28                   00000001802015c8     CCXExtUI.res
 0005:001cbb58       $R1B41B8                   0000000180201b58     CCXExtUI.res
 0005:001cbea8       $R1B4508                   0000000180201ea8     CCXExtUI.res
 0005:001cc438       $R1B4A98                   0000000180202438     CCXExtUI.res
 0005:001cc908       $R1B4F68                   0000000180202908     CCXExtUI.res
 0005:001ccf20       $R1B5580                   0000000180202f20     CCXExtUI.res
 0005:001cd3b0       $R1B5A10                   00000001802033b0     CCXExtUI.res
 0005:001cd828       $R1B5E88                   0000000180203828     CCXExtUI.res
 0005:001cdc68       $R1B62C8                   0000000180203c68     CCXExtUI.res
 0005:001ce080       $R1B66E0                   0000000180204080     CCXExtUI.res
 0005:001ce4b8       $R1B6B18                   00000001802044b8     CCXExtUI.res
 0005:001ce688       $R1B6CE8                   0000000180204688     CCXExtUI.res
 0005:001ce950       $R1B6FB0                   0000000180204950     CCXExtUI.res
 0005:001ced90       $R1B73F0                   0000000180204d90     CCXExtUI.res
 0005:001cf0d8       $R1B7738                   00000001802050d8     CCXExtUI.res
 0005:001cf2c8       $R1B7928                   00000001802052c8     CCXExtUI.res
 0005:001cf690       $R1B7CF0                   0000000180205690     CCXExtUI.res
 0005:001d0030       $R1B8690                   0000000180206030     CCXExtUI.res
 0005:001d0c88       $R1B92E8                   0000000180206c88     CCXExtUI.res
 0005:001d11c8       $R1B9828                   00000001802071c8     CCXExtUI.res
 0005:001d1b78       $R1BA1D8                   0000000180207b78     CCXExtUI.res
 0005:001d2120       $R1BA780                   0000000180208120     CCXExtUI.res
 0005:001d2608       $R1BAC68                   0000000180208608     CCXExtUI.res
 0005:001d2a90       $R1BB0F0                   0000000180208a90     CCXExtUI.res
 0005:001d32f8       $R1BB958                   00000001802092f8     CCXExtUI.res
 0005:001d3cd8       $R1BC338                   0000000180209cd8     CCXExtUI.res
 0005:001d4080       $R1BC6E0                   000000018020a080     CCXExtUI.res
 0005:001d4568       $R1BCBC8                   000000018020a568     CCXExtUI.res
 0005:001d4a20       $R1BD080                   000000018020aa20     CCXExtUI.res
 0005:001d50c8       $R1BD728                   000000018020b0c8     CCXExtUI.res
 0005:001d57b8       $R1BDE18                   000000018020b7b8     CCXExtUI.res
 0005:001d5d40       $R1BE3A0                   000000018020bd40     CCXExtUI.res
 0005:001d6478       $R1BEAD8                   000000018020c478     CCXExtUI.res
 0005:001d69e8       $R1BF048                   000000018020c9e8     CCXExtUI.res
 0005:001d6f58       $R1BF5B8                   000000018020cf58     CCXExtUI.res
 0005:001d75e0       $R1BFC40                   000000018020d5e0     CCXExtUI.res
 0005:001d7c68       $R1C02C8                   000000018020dc68     CCXExtUI.res
 0005:001d8350       $R1C09B0                   000000018020e350     CCXExtUI.res
 0005:001d8740       $R1C0DA0                   000000018020e740     CCXExtUI.res
 0005:001d87f0       $R1C0E50                   000000018020e7f0     CCXExtUI.res
 0005:001d8950       $R1C0FB0                   000000018020e950     CCXExtUI.res
 0005:001d8aa8       $R1C1108                   000000018020eaa8     CCXExtUI.res
 0005:001d8c50       $R1C12B0                   000000018020ec50     CCXExtUI.res
 0005:001d8e00       $R1C1460                   000000018020ee00     CCXExtUI.res
 0005:001d8fe8       $R1C1648                   000000018020efe8     CCXExtUI.res
 0005:001d9148       $R1C17A8                   000000018020f148     CCXExtUI.res
 0005:001d9258       $R1C18B8                   000000018020f258     CCXExtUI.res
 0005:001d93c8       $R1C1A28                   000000018020f3c8     CCXExtUI.res
 0005:001d94f8       $R1C1B58                   000000018020f4f8     CCXExtUI.res
 0005:001d9648       $R1C1CA8                   000000018020f648     CCXExtUI.res
 0005:001d9798       $R1C1DF8                   000000018020f798     CCXExtUI.res
 0005:001d9960       $R1C1FC0                   000000018020f960     CCXExtUI.res
 0005:001d9b10       $R1C2170                   000000018020fb10     CCXExtUI.res
 0005:001d9cd0       $R1C2330                   000000018020fcd0     CCXExtUI.res
 0005:001d9e58       $R1C24B8                   000000018020fe58     CCXExtUI.res
 0005:001d9ea8       $R1C2508                   000000018020fea8     CCXExtUI.res
 0005:001da478       $R1C2AD8                   0000000180210478     CCXExtUI.res
 0005:001da7f0       $R1C2E50                   00000001802107f0     CCXExtUI.res
 0005:001daac8       $R1C3128                   0000000180210ac8     CCXExtUI.res
 0005:001dadd8       $R1C3438                   0000000180210dd8     CCXExtUI.res
 0005:001db2e0       $R1C3940                   00000001802112e0     CCXExtUI.res
 0005:001db780       $R1C3DE0                   0000000180211780     CCXExtUI.res
 0005:001dbaf8       $R1C4158                   0000000180211af8     CCXExtUI.res
 0005:001dc140       $R1C47A0                   0000000180212140     CCXExtUI.res
 0005:001dcb50       $R1C51B0                   0000000180212b50     CCXExtUI.res
 0005:001dcf50       $R1C55B0                   0000000180212f50     CCXExtUI.res
 0005:001dd590       $R1C5BF0                   0000000180213590     CCXExtUI.res
 0005:001ddb40       $R1C61A0                   0000000180213b40     CCXExtUI.res
 0005:001ddff0       $R1C6650                   0000000180213ff0     CCXExtUI.res
 0005:001de5d0       $R1C6C30                   00000001802145d0     CCXExtUI.res
 0005:001de820       $R1C6E80                   0000000180214820     CCXExtUI.res
 0005:001dee98       $R1C74F8                   0000000180214e98     CCXExtUI.res
 0005:001df020       $R1C7680                   0000000180215020     CCXExtUI.res
 0005:001df698       $R1C7CF8                   0000000180215698     CCXExtUI.res
 0005:001df8c0       $R1C7F20                   00000001802158c0     CCXExtUI.res
 0005:001dfa90       $R1C80F0                   0000000180215a90     CCXExtUI.res
 0005:001e0008       $R1C8668                   0000000180216008     CCXExtUI.res
 0005:001e0570       $R1C8BD0                   0000000180216570     CCXExtUI.res
 0005:001e0b00       $R1C9160                   0000000180216b00     CCXExtUI.res
 0005:001e0e18       $R1C9478                   0000000180216e18     CCXExtUI.res
 0005:001e1720       $R1C9D80                   0000000180217720     CCXExtUI.res
 0005:001e1ec8       $R1CA528                   0000000180217ec8     CCXExtUI.res
 0005:001e25b0       $R1CAC10                   00000001802185b0     CCXExtUI.res
 0005:001e2940       $R1CAFA0                   0000000180218940     CCXExtUI.res
 0005:001e31b0       $R1CB810                   00000001802191b0     CCXExtUI.res
 0005:001e34d8       $R1CBB38                   00000001802194d8     CCXExtUI.res
 0005:001e3880       $R1CBEE0                   0000000180219880     CCXExtUI.res
 0005:001e3b48       $R1CC1A8                   0000000180219b48     CCXExtUI.res
 0005:001e3e78       $R1CC4D8                   0000000180219e78     CCXExtUI.res
 0005:001e4818       $R1CCE78                   000000018021a818     CCXExtUI.res
 0005:001e4d18       $R1CD378                   000000018021ad18     CCXExtUI.res
 0005:001e5028       $R1CD688                   000000018021b028     CCXExtUI.res
 0005:001e5588       $R1CDBE8                   000000018021b588     CCXExtUI.res
 0005:001e5ae8       $R1CE148                   000000018021bae8     CCXExtUI.res
 0005:001e61d0       $R1CE830                   000000018021c1d0     CCXExtUI.res
 0005:001e6638       $R1CEC98                   000000018021c638     CCXExtUI.res
 0005:001e6ae0       $R1CF140                   000000018021cae0     CCXExtUI.res
 0005:001e6ef0       $R1CF550                   000000018021cef0     CCXExtUI.res
 0005:001e7318       $R1CF978                   000000018021d318     CCXExtUI.res
 0005:001e7740       $R1CFDA0                   000000018021d740     CCXExtUI.res
 0005:001e7928       $R1CFF88                   000000018021d928     CCXExtUI.res
 0005:001e7bc0       $R1D0220                   000000018021dbc0     CCXExtUI.res
 0005:001e7fb8       $R1D0618                   000000018021dfb8     CCXExtUI.res
 0005:001e8358       $R1D09B8                   000000018021e358     CCXExtUI.res
 0005:001e84f0       $R1D0B50                   000000018021e4f0     CCXExtUI.res
 0005:001e88a0       $R1D0F00                   000000018021e8a0     CCXExtUI.res
 0005:001e9180       $R1D17E0                   000000018021f180     CCXExtUI.res
 0005:001e9e08       $R1D2468                   000000018021fe08     CCXExtUI.res
 0005:001ea338       $R1D2998                   0000000180220338     CCXExtUI.res
 0005:001eaca8       $R1D3308                   0000000180220ca8     CCXExtUI.res
 0005:001eb270       $R1D38D0                   0000000180221270     CCXExtUI.res
 0005:001eb7b8       $R1D3E18                   00000001802217b8     CCXExtUI.res
 0005:001ebc88       $R1D42E8                   0000000180221c88     CCXExtUI.res
 0005:001ec4f8       $R1D4B58                   00000001802224f8     CCXExtUI.res
 0005:001eceb0       $R1D5510                   0000000180222eb0     CCXExtUI.res
 0005:001ed280       $R1D58E0                   0000000180223280     CCXExtUI.res
 0005:001ed7b0       $R1D5E10                   00000001802237b0     CCXExtUI.res
 0005:001edc68       $R1D62C8                   0000000180223c68     CCXExtUI.res
 0005:001ee390       $R1D69F0                   0000000180224390     CCXExtUI.res
 0005:001eeb20       $R1D7180                   0000000180224b20     CCXExtUI.res
 0005:001ef0c0       $R1D7720                   00000001802250c0     CCXExtUI.res
 0005:001ef8d8       $R1D7F38                   00000001802258d8     CCXExtUI.res
 0005:001efe18       $R1D8478                   0000000180225e18     CCXExtUI.res
 0005:001f0378       $R1D89D8                   0000000180226378     CCXExtUI.res
 0005:001f0980       $R1D8FE0                   0000000180226980     CCXExtUI.res
 0005:001f1080       $R1D96E0                   0000000180227080     CCXExtUI.res
 0005:001f1710       $R1D9D70                   0000000180227710     CCXExtUI.res
 0005:001f1ac8       $R1DA128                   0000000180227ac8     CCXExtUI.res
 0005:001f1b68       $R1DA1C8                   0000000180227b68     CCXExtUI.res
 0005:001f1ca8       $R1DA308                   0000000180227ca8     CCXExtUI.res
 0005:001f1e10       $R1DA470                   0000000180227e10     CCXExtUI.res
 0005:001f1f70       $R1DA5D0                   0000000180227f70     CCXExtUI.res
 0005:001f20e0       $R1DA740                   00000001802280e0     CCXExtUI.res
 0005:001f2298       $R1DA8F8                   0000000180228298     CCXExtUI.res
 0005:001f23e0       $R1DAA40                   00000001802283e0     CCXExtUI.res
 0005:001f24d8       $R1DAB38                   00000001802284d8     CCXExtUI.res
 0005:001f2630       $R1DAC90                   0000000180228630     CCXExtUI.res
 0005:001f2758       $R1DADB8                   0000000180228758     CCXExtUI.res
 0005:001f28b0       $R1DAF10                   00000001802288b0     CCXExtUI.res
 0005:001f29f0       $R1DB050                   00000001802289f0     CCXExtUI.res
 0005:001f2bd8       $R1DB238                   0000000180228bd8     CCXExtUI.res
 0005:001f2d58       $R1DB3B8                   0000000180228d58     CCXExtUI.res
 0005:001f2ef0       $R1DB550                   0000000180228ef0     CCXExtUI.res
 0005:001f3098       $R1DB6F8                   0000000180229098     CCXExtUI.res
 0005:001f30e8       $R1DB748                   00000001802290e8     CCXExtUI.res
 0005:001f33e8       $R1DBA48                   00000001802293e8     CCXExtUI.res
 0005:001f3600       $R1DBC60                   0000000180229600     CCXExtUI.res
 0005:001f3758       $R1DBDB8                   0000000180229758     CCXExtUI.res
 0005:001f38d0       $R1DBF30                   00000001802298d0     CCXExtUI.res
 0005:001f3b60       $R1DC1C0                   0000000180229b60     CCXExtUI.res
 0005:001f3de8       $R1DC448                   0000000180229de8     CCXExtUI.res
 0005:001f3fe0       $R1DC640                   0000000180229fe0     CCXExtUI.res
 0005:001f42b8       $R1DC918                   000000018022a2b8     CCXExtUI.res
 0005:001f4860       $R1DCEC0                   000000018022a860     CCXExtUI.res
 0005:001f4a90       $R1DD0F0                   000000018022aa90     CCXExtUI.res
 0005:001f4de8       $R1DD448                   000000018022ade8     CCXExtUI.res
 0005:001f50d8       $R1DD738                   000000018022b0d8     CCXExtUI.res
 0005:001f5338       $R1DD998                   000000018022b338     CCXExtUI.res
 0005:001f55f0       $R1DDC50                   000000018022b5f0     CCXExtUI.res
 0005:001f5730       $R1DDD90                   000000018022b730     CCXExtUI.res
 0005:001f5a98       $R1DE0F8                   000000018022ba98     CCXExtUI.res
 0005:001f5b88       $R1DE1E8                   000000018022bb88     CCXExtUI.res
 0005:001f5e80       $R1DE4E0                   000000018022be80     CCXExtUI.res
 0005:001f5fb8       $R1DE618                   000000018022bfb8     CCXExtUI.res
 0005:001f60b8       $R1DE718                   000000018022c0b8     CCXExtUI.res
 0005:001f6380       $R1DE9E0                   000000018022c380     CCXExtUI.res
 0005:001f6648       $R1DECA8                   000000018022c648     CCXExtUI.res
 0005:001f6910       $R1DEF70                   000000018022c910     CCXExtUI.res
 0005:001f6af0       $R1DF150                   000000018022caf0     CCXExtUI.res
 0005:001f6f18       $R1DF578                   000000018022cf18     CCXExtUI.res
 0005:001f7300       $R1DF960                   000000018022d300     CCXExtUI.res
 0005:001f7670       $R1DFCD0                   000000018022d670     CCXExtUI.res
 0005:001f7820       $R1DFE80                   000000018022d820     CCXExtUI.res
 0005:001f7cb8       $R1E0318                   000000018022dcb8     CCXExtUI.res
 0005:001f7eb0       $R1E0510                   000000018022deb0     CCXExtUI.res
 0005:001f8090       $R1E06F0                   000000018022e090     CCXExtUI.res
 0005:001f8218       $R1E0878                   000000018022e218     CCXExtUI.res
 0005:001f8420       $R1E0A80                   000000018022e420     CCXExtUI.res
 0005:001f8870       $R1E0ED0                   000000018022e870     CCXExtUI.res
 0005:001f8b58       $R1E11B8                   000000018022eb58     CCXExtUI.res
 0005:001f8d00       $R1E1360                   000000018022ed00     CCXExtUI.res
 0005:001f8ff8       $R1E1658                   000000018022eff8     CCXExtUI.res
 0005:001f92c8       $R1E1928                   000000018022f2c8     CCXExtUI.res
 0005:001f9600       $R1E1C60                   000000018022f600     CCXExtUI.res
 0005:001f9868       $R1E1EC8                   000000018022f868     CCXExtUI.res
 0005:001f9af0       $R1E2150                   000000018022faf0     CCXExtUI.res
 0005:001f9d48       $R1E23A8                   000000018022fd48     CCXExtUI.res
 0005:001fa008       $R1E2668                   0000000180230008     CCXExtUI.res
 0005:001fa220       $R1E2880                   0000000180230220     CCXExtUI.res
 0005:001fa320       $R1E2980                   0000000180230320     CCXExtUI.res
 0005:001fa488       $R1E2AE8                   0000000180230488     CCXExtUI.res
 0005:001fa650       $R1E2CB0                   0000000180230650     CCXExtUI.res
 0005:001fa850       $R1E2EB0                   0000000180230850     CCXExtUI.res
 0005:001fa970       $R1E2FD0                   0000000180230970     CCXExtUI.res
 0005:001fab40       $R1E31A0                   0000000180230b40     CCXExtUI.res
 0005:001faf90       $R1E35F0                   0000000180230f90     CCXExtUI.res
 0005:001fb5a0       $R1E3C00                   00000001802315a0     CCXExtUI.res
 0005:001fb848       $R1E3EA8                   0000000180231848     CCXExtUI.res
 0005:001fbd70       $R1E43D0                   0000000180231d70     CCXExtUI.res
 0005:001fc058       $R1E46B8                   0000000180232058     CCXExtUI.res
 0005:001fc330       $R1E4990                   0000000180232330     CCXExtUI.res
 0005:001fc548       $R1E4BA8                   0000000180232548     CCXExtUI.res
 0005:001fc9b0       $R1E5010                   00000001802329b0     CCXExtUI.res
 0005:001fceb0       $R1E5510                   0000000180232eb0     CCXExtUI.res
 0005:001fd0f0       $R1E5750                   00000001802330f0     CCXExtUI.res
 0005:001fd410       $R1E5A70                   0000000180233410     CCXExtUI.res
 0005:001fd650       $R1E5CB0                   0000000180233650     CCXExtUI.res
 0005:001fd920       $R1E5F80                   0000000180233920     CCXExtUI.res
 0005:001fdca8       $R1E6308                   0000000180233ca8     CCXExtUI.res
 0005:001fdf08       $R1E6568                   0000000180233f08     CCXExtUI.res
 0005:001fe2f0       $R1E6950                   00000001802342f0     CCXExtUI.res
 0005:001fe580       $R1E6BE0                   0000000180234580     CCXExtUI.res
 0005:001fe828       $R1E6E88                   0000000180234828     CCXExtUI.res
 0005:001feb60       $R1E71C0                   0000000180234b60     CCXExtUI.res
 0005:001fee68       $R1E74C8                   0000000180234e68     CCXExtUI.res
 0005:001ff1a0       $R1E7800                   00000001802351a0     CCXExtUI.res
 0005:001ff350       $R1E79B0                   0000000180235350     CCXExtUI.res
 0005:001ff3b8       $R1E7A18                   00000001802353b8     CCXExtUI.res
 0005:001ff488       $R1E7AE8                   0000000180235488     CCXExtUI.res
 0005:001ff550       $R1E7BB0                   0000000180235550     CCXExtUI.res
 0005:001ff608       $R1E7C68                   0000000180235608     CCXExtUI.res
 0005:001ff6d0       $R1E7D30                   00000001802356d0     CCXExtUI.res
 0005:001ff7c0       $R1E7E20                   00000001802357c0     CCXExtUI.res
 0005:001ff898       $R1E7EF8                   0000000180235898     CCXExtUI.res
 0005:001ff948       $R1E7FA8                   0000000180235948     CCXExtUI.res
 0005:001ffa28       $R1E8088                   0000000180235a28     CCXExtUI.res
 0005:001ffaf0       $R1E8150                   0000000180235af0     CCXExtUI.res
 0005:001ffbc0       $R1E8220                   0000000180235bc0     CCXExtUI.res
 0005:001ffc80       $R1E82E0                   0000000180235c80     CCXExtUI.res
 0005:001ffd70       $R1E83D0                   0000000180235d70     CCXExtUI.res
 0005:001ffe80       $R1E84E0                   0000000180235e80     CCXExtUI.res
 0005:001fff90       $R1E85F0                   0000000180235f90     CCXExtUI.res
 0005:00200098       $R1E86F8                   0000000180236098     CCXExtUI.res
 0005:002000e8       $R1E8748                   00000001802360e8     CCXExtUI.res
 0005:00200388       $R1E89E8                   0000000180236388     CCXExtUI.res
 0005:00200570       $R1E8BD0                   0000000180236570     CCXExtUI.res
 0005:00200698       $R1E8CF8                   0000000180236698     CCXExtUI.res
 0005:00200800       $R1E8E60                   0000000180236800     CCXExtUI.res
 0005:00200a58       $R1E90B8                   0000000180236a58     CCXExtUI.res
 0005:00200cb0       $R1E9310                   0000000180236cb0     CCXExtUI.res
 0005:00200e78       $R1E94D8                   0000000180236e78     CCXExtUI.res
 0005:00201138       $R1E9798                   0000000180237138     CCXExtUI.res
 0005:00201678       $R1E9CD8                   0000000180237678     CCXExtUI.res
 0005:00201880       $R1E9EE0                   0000000180237880     CCXExtUI.res
 0005:00201bb8       $R1EA218                   0000000180237bb8     CCXExtUI.res
 0005:00201e60       $R1EA4C0                   0000000180237e60     CCXExtUI.res
 0005:002020c0       $R1EA720                   00000001802380c0     CCXExtUI.res
 0005:00202330       $R1EA990                   0000000180238330     CCXExtUI.res
 0005:00202478       $R1EAAD8                   0000000180238478     CCXExtUI.res
 0005:002027b0       $R1EAE10                   00000001802387b0     CCXExtUI.res
 0005:00202890       $R1EAEF0                   0000000180238890     CCXExtUI.res
 0005:00202b58       $R1EB1B8                   0000000180238b58     CCXExtUI.res
 0005:00202c80       $R1EB2E0                   0000000180238c80     CCXExtUI.res
 0005:00202d70       $R1EB3D0                   0000000180238d70     CCXExtUI.res
 0005:00202ff8       $R1EB658                   0000000180238ff8     CCXExtUI.res
 0005:002032a0       $R1EB900                   00000001802392a0     CCXExtUI.res
 0005:00203500       $R1EBB60                   0000000180239500     CCXExtUI.res
 0005:00203688       $R1EBCE8                   0000000180239688     CCXExtUI.res
 0005:00203a48       $R1EC0A8                   0000000180239a48     CCXExtUI.res
 0005:00203e00       $R1EC460                   0000000180239e00     CCXExtUI.res
 0005:002040d8       $R1EC738                   000000018023a0d8     CCXExtUI.res
 0005:00204250       $R1EC8B0                   000000018023a250     CCXExtUI.res
 0005:00204680       $R1ECCE0                   000000018023a680     CCXExtUI.res
 0005:00204830       $R1ECE90                   000000018023a830     CCXExtUI.res
 0005:002049e0       $R1ED040                   000000018023a9e0     CCXExtUI.res
 0005:00204b40       $R1ED1A0                   000000018023ab40     CCXExtUI.res
 0005:00204ca0       $R1ED300                   000000018023aca0     CCXExtUI.res
 0005:002050b8       $R1ED718                   000000018023b0b8     CCXExtUI.res
 0005:00205348       $R1ED9A8                   000000018023b348     CCXExtUI.res
 0005:002054c8       $R1EDB28                   000000018023b4c8     CCXExtUI.res
 0005:00205760       $R1EDDC0                   000000018023b760     CCXExtUI.res
 0005:002059d0       $R1EE030                   000000018023b9d0     CCXExtUI.res
 0005:00205cb8       $R1EE318                   000000018023bcb8     CCXExtUI.res
 0005:00205ee8       $R1EE548                   000000018023bee8     CCXExtUI.res
 0005:00206150       $R1EE7B0                   000000018023c150     CCXExtUI.res
 0005:00206360       $R1EE9C0                   000000018023c360     CCXExtUI.res
 0005:002065c8       $R1EEC28                   000000018023c5c8     CCXExtUI.res
 0005:002067b0       $R1EEE10                   000000018023c7b0     CCXExtUI.res
 0005:00206888       $R1EEEE8                   000000018023c888     CCXExtUI.res
 0005:002069a8       $R1EF008                   000000018023c9a8     CCXExtUI.res
 0005:00206b78       $R1EF1D8                   000000018023cb78     CCXExtUI.res
 0005:00206d48       $R1EF3A8                   000000018023cd48     CCXExtUI.res
 0005:00206e30       $R1EF490                   000000018023ce30     CCXExtUI.res
 0005:00206fe0       $R1EF640                   000000018023cfe0     CCXExtUI.res
 0005:002073c0       $R1EFA20                   000000018023d3c0     CCXExtUI.res
 0005:00207920       $R1EFF80                   000000018023d920     CCXExtUI.res
 0005:00207be0       $R1F0240                   000000018023dbe0     CCXExtUI.res
 0005:00208038       $R1F0698                   000000018023e038     CCXExtUI.res
 0005:002082f0       $R1F0950                   000000018023e2f0     CCXExtUI.res
 0005:002085a8       $R1F0C08                   000000018023e5a8     CCXExtUI.res
 0005:002087b0       $R1F0E10                   000000018023e7b0     CCXExtUI.res
 0005:00208c40       $R1F12A0                   000000018023ec40     CCXExtUI.res
 0005:002090b8       $R1F1718                   000000018023f0b8     CCXExtUI.res
 0005:002092e8       $R1F1948                   000000018023f2e8     CCXExtUI.res
 0005:002095c8       $R1F1C28                   000000018023f5c8     CCXExtUI.res
 0005:002097d8       $R1F1E38                   000000018023f7d8     CCXExtUI.res
 0005:00209a90       $R1F20F0                   000000018023fa90     CCXExtUI.res
 0005:00209de8       $R1F2448                   000000018023fde8     CCXExtUI.res
 0005:0020a040       $R1F26A0                   0000000180240040     CCXExtUI.res
 0005:0020a3d8       $R1F2A38                   00000001802403d8     CCXExtUI.res
 0005:0020a5e0       $R1F2C40                   00000001802405e0     CCXExtUI.res
 0005:0020a850       $R1F2EB0                   0000000180240850     CCXExtUI.res
 0005:0020ab48       $R1F31A8                   0000000180240b48     CCXExtUI.res
 0005:0020add0       $R1F3430                   0000000180240dd0     CCXExtUI.res
 0005:0020b0b0       $R1F3710                   00000001802410b0     CCXExtUI.res
 0005:0020b290       $R1F38F0                   0000000180241290     CCXExtUI.res
 0005:0020b2f8       $R1F3958                   00000001802412f8     CCXExtUI.res
 0005:0020b3a8       $R1F3A08                   00000001802413a8     CCXExtUI.res
 0005:0020b450       $R1F3AB0                   0000000180241450     CCXExtUI.res
 0005:0020b4f8       $R1F3B58                   00000001802414f8     CCXExtUI.res
 0005:0020b5a8       $R1F3C08                   00000001802415a8     CCXExtUI.res
 0005:0020b698       $R1F3CF8                   0000000180241698     CCXExtUI.res
 0005:0020b740       $R1F3DA0                   0000000180241740     CCXExtUI.res
 0005:0020b7d8       $R1F3E38                   00000001802417d8     CCXExtUI.res
 0005:0020b888       $R1F3EE8                   0000000180241888     CCXExtUI.res
 0005:0020b920       $R1F3F80                   0000000180241920     CCXExtUI.res
 0005:0020b9c8       $R1F4028                   00000001802419c8     CCXExtUI.res
 0005:0020ba78       $R1F40D8                   0000000180241a78     CCXExtUI.res
 0005:0020bb50       $R1F41B0                   0000000180241b50     CCXExtUI.res
 0005:0020bc28       $R1F4288                   0000000180241c28     CCXExtUI.res
 0005:0020bce0       $R1F4340                   0000000180241ce0     CCXExtUI.res
 0005:0020bdb0       $R1F4410                   0000000180241db0     CCXExtUI.res
 0005:0020bde8       $R1F4448                   0000000180241de8     CCXExtUI.res
 0005:0020c340       $R1F49A0                   0000000180242340     CCXExtUI.res
 0005:0020c6d8       $R1F4D38                   00000001802426d8     CCXExtUI.res
 0005:0020c9a8       $R1F5008                   00000001802429a8     CCXExtUI.res
 0005:0020cce8       $R1F5348                   0000000180242ce8     CCXExtUI.res
 0005:0020d190       $R1F57F0                   0000000180243190     CCXExtUI.res
 0005:0020d678       $R1F5CD8                   0000000180243678     CCXExtUI.res
 0005:0020d9e0       $R1F6040                   00000001802439e0     CCXExtUI.res
 0005:0020df78       $R1F65D8                   0000000180243f78     CCXExtUI.res
 0005:0020e928       $R1F6F88                   0000000180244928     CCXExtUI.res
 0005:0020ed30       $R1F7390                   0000000180244d30     CCXExtUI.res
 0005:0020f2e8       $R1F7948                   00000001802452e8     CCXExtUI.res
 0005:0020f790       $R1F7DF0                   0000000180245790     CCXExtUI.res
 0005:0020fbf8       $R1F8258                   0000000180245bf8     CCXExtUI.res
 0005:002101a8       $R1F8808                   00000001802461a8     CCXExtUI.res
 0005:00210420       $R1F8A80                   0000000180246420     CCXExtUI.res
 0005:002109c8       $R1F9028                   00000001802469c8     CCXExtUI.res
 0005:00210b48       $R1F91A8                   0000000180246b48     CCXExtUI.res
 0005:002110f8       $R1F9758                   00000001802470f8     CCXExtUI.res
 0005:00211360       $R1F99C0                   0000000180247360     CCXExtUI.res
 0005:00211510       $R1F9B70                   0000000180247510     CCXExtUI.res
 0005:002119f0       $R1FA050                   00000001802479f0     CCXExtUI.res
 0005:00211ef8       $R1FA558                   0000000180247ef8     CCXExtUI.res
 0005:002123b8       $R1FAA18                   00000001802483b8     CCXExtUI.res
 0005:00212710       $R1FAD70                   0000000180248710     CCXExtUI.res
 0005:00212e98       $R1FB4F8                   0000000180248e98     CCXExtUI.res
 0005:002135a0       $R1FBC00                   00000001802495a0     CCXExtUI.res
 0005:00213bb0       $R1FC210                   0000000180249bb0     CCXExtUI.res
 0005:00213ea0       $R1FC500                   0000000180249ea0     CCXExtUI.res
 0005:00214650       $R1FCCB0                   000000018024a650     CCXExtUI.res
 0005:00214968       $R1FCFC8                   000000018024a968     CCXExtUI.res
 0005:00214d40       $R1FD3A0                   000000018024ad40     CCXExtUI.res
 0005:00215020       $R1FD680                   000000018024b020     CCXExtUI.res
 0005:00215360       $R1FD9C0                   000000018024b360     CCXExtUI.res
 0005:00215c50       $R1FE2B0                   000000018024bc50     CCXExtUI.res
 0005:00216128       $R1FE788                   000000018024c128     CCXExtUI.res
 0005:002163f8       $R1FEA58                   000000018024c3f8     CCXExtUI.res
 0005:002169a0       $R1FF000                   000000018024c9a0     CCXExtUI.res
 0005:00216e60       $R1FF4C0                   000000018024ce60     CCXExtUI.res
 0005:00217458       $R1FFAB8                   000000018024d458     CCXExtUI.res
 0005:00217880       $R1FFEE0                   000000018024d880     CCXExtUI.res
 0005:00217cf8       $R200358                   000000018024dcf8     CCXExtUI.res
 0005:002180d8       $R200738                   000000018024e0d8     CCXExtUI.res
 0005:00218538       $R200B98                   000000018024e538     CCXExtUI.res
 0005:00218910       $R200F70                   000000018024e910     CCXExtUI.res
 0005:00218b08       $R201168                   000000018024eb08     CCXExtUI.res
 0005:00218dc0       $R201420                   000000018024edc0     CCXExtUI.res
 0005:002191e8       $R201848                   000000018024f1e8     CCXExtUI.res
 0005:00219530       $R201B90                   000000018024f530     CCXExtUI.res
 0005:002196d8       $R201D38                   000000018024f6d8     CCXExtUI.res
 0005:00219a50       $R2020B0                   000000018024fa50     CCXExtUI.res
 0005:0021a390       $R2029F0                   0000000180250390     CCXExtUI.res
 0005:0021b088       $R2036E8                   0000000180251088     CCXExtUI.res
 0005:0021b5b8       $R203C18                   00000001802515b8     CCXExtUI.res
 0005:0021be70       $R2044D0                   0000000180251e70     CCXExtUI.res
 0005:0021c420       $R204A80                   0000000180252420     CCXExtUI.res
 0005:0021c950       $R204FB0                   0000000180252950     CCXExtUI.res
 0005:0021cdc8       $R205428                   0000000180252dc8     CCXExtUI.res
 0005:0021d560       $R205BC0                   0000000180253560     CCXExtUI.res
 0005:0021ded0       $R206530                   0000000180253ed0     CCXExtUI.res
 0005:0021e238       $R206898                   0000000180254238     CCXExtUI.res
 0005:0021e790       $R206DF0                   0000000180254790     CCXExtUI.res
 0005:0021ec38       $R207298                   0000000180254c38     CCXExtUI.res
 0005:0021f248       $R2078A8                   0000000180255248     CCXExtUI.res
 0005:0021f888       $R207EE8                   0000000180255888     CCXExtUI.res
 0005:0021fd88       $R2083E8                   0000000180255d88     CCXExtUI.res
 0005:002204a8       $R208B08                   00000001802564a8     CCXExtUI.res
 0005:002209e8       $R209048                   00000001802569e8     CCXExtUI.res
 0005:00220e88       $R2094E8                   0000000180256e88     CCXExtUI.res
 0005:002214b8       $R209B18                   00000001802574b8     CCXExtUI.res
 0005:00221a78       $R20A0D8                   0000000180257a78     CCXExtUI.res
 0005:002220d0       $R20A730                   00000001802580d0     CCXExtUI.res
 0005:00222500       $R20AB60                   0000000180258500     CCXExtUI.res
 0005:00222590       $R20ABF0                   0000000180258590     CCXExtUI.res
 0005:002226d8       $R20AD38                   00000001802586d8     CCXExtUI.res
 0005:00222848       $R20AEA8                   0000000180258848     CCXExtUI.res
 0005:002229b8       $R20B018                   00000001802589b8     CCXExtUI.res
 0005:00222b10       $R20B170                   0000000180258b10     CCXExtUI.res
 0005:00222cb0       $R20B310                   0000000180258cb0     CCXExtUI.res
 0005:00222e10       $R20B470                   0000000180258e10     CCXExtUI.res
 0005:00222f18       $R20B578                   0000000180258f18     CCXExtUI.res
 0005:00223060       $R20B6C0                   0000000180259060     CCXExtUI.res
 0005:00223190       $R20B7F0                   0000000180259190     CCXExtUI.res
 0005:002232e0       $R20B940                   00000001802592e0     CCXExtUI.res
 0005:00223438       $R20BA98                   0000000180259438     CCXExtUI.res
 0005:00223618       $R20BC78                   0000000180259618     CCXExtUI.res
 0005:002237b0       $R20BE10                   00000001802597b0     CCXExtUI.res
 0005:00223980       $R20BFE0                   0000000180259980     CCXExtUI.res
 0005:00223b00       $R20C160                   0000000180259b00     CCXExtUI.res
 0005:00223b50       $R20C1B0                   0000000180259b50     CCXExtUI.res
 0005:00224128       $R20C788                   000000018025a128     CCXExtUI.res
 0005:002244e0       $R20CB40                   000000018025a4e0     CCXExtUI.res
 0005:002247f0       $R20CE50                   000000018025a7f0     CCXExtUI.res
 0005:00224b28       $R20D188                   000000018025ab28     CCXExtUI.res
 0005:00225070       $R20D6D0                   000000018025b070     CCXExtUI.res
 0005:00225580       $R20DBE0                   000000018025b580     CCXExtUI.res
 0005:00225908       $R20DF68                   000000018025b908     CCXExtUI.res
 0005:00225f08       $R20E568                   000000018025bf08     CCXExtUI.res
 0005:002268d8       $R20EF38                   000000018025c8d8     CCXExtUI.res
 0005:00226cf0       $R20F350                   000000018025ccf0     CCXExtUI.res
 0005:00227298       $R20F8F8                   000000018025d298     CCXExtUI.res
 0005:00227798       $R20FDF8                   000000018025d798     CCXExtUI.res
 0005:00227c60       $R2102C0                   000000018025dc60     CCXExtUI.res
 0005:00228248       $R2108A8                   000000018025e248     CCXExtUI.res
 0005:00228500       $R210B60                   000000018025e500     CCXExtUI.res
 0005:00228b38       $R211198                   000000018025eb38     CCXExtUI.res
 0005:00228cd8       $R211338                   000000018025ecd8     CCXExtUI.res
 0005:002292c8       $R211928                   000000018025f2c8     CCXExtUI.res
 0005:002294f8       $R211B58                   000000018025f4f8     CCXExtUI.res
 0005:00229700       $R211D60                   000000018025f700     CCXExtUI.res
 0005:00229bf0       $R212250                   000000018025fbf0     CCXExtUI.res
 0005:0022a168       $R2127C8                   0000000180260168     CCXExtUI.res
 0005:0022a710       $R212D70                   0000000180260710     CCXExtUI.res
 0005:0022aaf0       $R213150                   0000000180260af0     CCXExtUI.res
 0005:0022b360       $R2139C0                   0000000180261360     CCXExtUI.res
 0005:0022baf0       $R214150                   0000000180261af0     CCXExtUI.res
 0005:0022c190       $R2147F0                   0000000180262190     CCXExtUI.res
 0005:0022c558       $R214BB8                   0000000180262558     CCXExtUI.res
 0005:0022ce08       $R215468                   0000000180262e08     CCXExtUI.res
 0005:0022d108       $R215768                   0000000180263108     CCXExtUI.res
 0005:0022d478       $R215AD8                   0000000180263478     CCXExtUI.res
 0005:0022d798       $R215DF8                   0000000180263798     CCXExtUI.res
 0005:0022db30       $R216190                   0000000180263b30     CCXExtUI.res
 0005:0022e3d8       $R216A38                   00000001802643d8     CCXExtUI.res
 0005:0022e8b8       $R216F18                   00000001802648b8     CCXExtUI.res
 0005:0022ebc0       $R217220                   0000000180264bc0     CCXExtUI.res
 0005:0022f1b8       $R217818                   00000001802651b8     CCXExtUI.res
 0005:0022f630       $R217C90                   0000000180265630     CCXExtUI.res
 0005:0022fc30       $R218290                   0000000180265c30     CCXExtUI.res
 0005:002300a0       $R218700                   00000001802660a0     CCXExtUI.res
 0005:00230548       $R218BA8                   0000000180266548     CCXExtUI.res
 0005:00230988       $R218FE8                   0000000180266988     CCXExtUI.res
 0005:00230de0       $R219440                   0000000180266de0     CCXExtUI.res
 0005:002311f8       $R219858                   00000001802671f8     CCXExtUI.res
 0005:002313e0       $R219A40                   00000001802673e0     CCXExtUI.res
 0005:00231690       $R219CF0                   0000000180267690     CCXExtUI.res
 0005:00231ab0       $R21A110                   0000000180267ab0     CCXExtUI.res
 0005:00231eb8       $R21A518                   0000000180267eb8     CCXExtUI.res
 0005:002320a0       $R21A700                   00000001802680a0     CCXExtUI.res
 0005:00232468       $R21AAC8                   0000000180268468     CCXExtUI.res
 0005:00232d70       $R21B3D0                   0000000180268d70     CCXExtUI.res
 0005:00233980       $R21BFE0                   0000000180269980     CCXExtUI.res
 0005:00233f78       $R21C5D8                   0000000180269f78     CCXExtUI.res
 0005:002348a0       $R21CF00                   000000018026a8a0     CCXExtUI.res
 0005:00234e38       $R21D498                   000000018026ae38     CCXExtUI.res
 0005:002353c0       $R21DA20                   000000018026b3c0     CCXExtUI.res
 0005:00235830       $R21DE90                   000000018026b830     CCXExtUI.res
 0005:00235fb8       $R21E618                   000000018026bfb8     CCXExtUI.res
 0005:00236880       $R21EEE0                   000000018026c880     CCXExtUI.res
 0005:00236c18       $R21F278                   000000018026cc18     CCXExtUI.res
 0005:00237100       $R21F760                   000000018026d100     CCXExtUI.res
 0005:00237550       $R21FBB0                   000000018026d550     CCXExtUI.res
 0005:00237bf8       $R220258                   000000018026dbf8     CCXExtUI.res
 0005:00238318       $R220978                   000000018026e318     CCXExtUI.res
 0005:00238808       $R220E68                   000000018026e808     CCXExtUI.res
 0005:00238ef0       $R221550                   000000018026eef0     CCXExtUI.res
 0005:00239400       $R221A60                   000000018026f400     CCXExtUI.res
 0005:002398c8       $R221F28                   000000018026f8c8     CCXExtUI.res
 0005:00239f00       $R222560                   000000018026ff00     CCXExtUI.res
 0005:0023a4d0       $R222B30                   00000001802704d0     CCXExtUI.res
 0005:0023ab28       $R223188                   0000000180270b28     CCXExtUI.res
 0005:0023af20       $R223580                   0000000180270f20     CCXExtUI.res
 0005:0023afb8       $R223618                   0000000180270fb8     CCXExtUI.res
 0005:0023b118       $R223778                   0000000180271118     CCXExtUI.res
 0005:0023b2b8       $R223918                   00000001802712b8     CCXExtUI.res
 0005:0023b440       $R223AA0                   0000000180271440     CCXExtUI.res
 0005:0023b598       $R223BF8                   0000000180271598     CCXExtUI.res
 0005:0023b760       $R223DC0                   0000000180271760     CCXExtUI.res
 0005:0023b910       $R223F70                   0000000180271910     CCXExtUI.res
 0005:0023ba20       $R224080                   0000000180271a20     CCXExtUI.res
 0005:0023bba0       $R224200                   0000000180271ba0     CCXExtUI.res
 0005:0023bce0       $R224340                   0000000180271ce0     CCXExtUI.res
 0005:0023be68       $R2244C8                   0000000180271e68     CCXExtUI.res
 0005:0023bfd0       $R224630                   0000000180271fd0     CCXExtUI.res
 0005:0023c1a8       $R224808                   00000001802721a8     CCXExtUI.res
 0005:0023c368       $R2249C8                   0000000180272368     CCXExtUI.res
 0005:0023c550       $R224BB0                   0000000180272550     CCXExtUI.res
 0005:0023c710       $R224D70                   0000000180272710     CCXExtUI.res
 0005:0023c760       $R224DC0                   0000000180272760     CCXExtUI.res
 0005:0023cd10       $R225370                   0000000180272d10     CCXExtUI.res
 0005:0023d090       $R2256F0                   0000000180273090     CCXExtUI.res
 0005:0023d358       $R2259B8                   0000000180273358     CCXExtUI.res
 0005:0023d648       $R225CA8                   0000000180273648     CCXExtUI.res
 0005:0023dac8       $R226128                   0000000180273ac8     CCXExtUI.res
 0005:0023dfe0       $R226640                   0000000180273fe0     CCXExtUI.res
 0005:0023e320       $R226980                   0000000180274320     CCXExtUI.res
 0005:0023e878       $R226ED8                   0000000180274878     CCXExtUI.res
 0005:0023f1e8       $R227848                   00000001802751e8     CCXExtUI.res
 0005:0023f5e8       $R227C48                   00000001802755e8     CCXExtUI.res
 0005:0023fba0       $R228200                   0000000180275ba0     CCXExtUI.res
 0005:00240038       $R228698                   0000000180276038     CCXExtUI.res
 0005:002404d0       $R228B30                   00000001802764d0     CCXExtUI.res
 0005:00240a00       $R229060                   0000000180276a00     CCXExtUI.res
 0005:00240c50       $R2292B0                   0000000180276c50     CCXExtUI.res
 0005:002412a8       $R229908                   00000001802772a8     CCXExtUI.res
 0005:00241410       $R229A70                   0000000180277410     CCXExtUI.res
 0005:002419d8       $R22A038                   00000001802779d8     CCXExtUI.res
 0005:00241be8       $R22A248                   0000000180277be8     CCXExtUI.res
 0005:00241dc8       $R22A428                   0000000180277dc8     CCXExtUI.res
 0005:00242200       $R22A860                   0000000180278200     CCXExtUI.res
 0005:002426d0       $R22AD30                   00000001802786d0     CCXExtUI.res
 0005:00242bf8       $R22B258                   0000000180278bf8     CCXExtUI.res
 0005:00242f60       $R22B5C0                   0000000180278f60     CCXExtUI.res
 0005:00243768       $R22BDC8                   0000000180279768     CCXExtUI.res
 0005:00243ed8       $R22C538                   0000000180279ed8     CCXExtUI.res
 0005:00244568       $R22CBC8                   000000018027a568     CCXExtUI.res
 0005:002448e0       $R22CF40                   000000018027a8e0     CCXExtUI.res
 0005:00245138       $R22D798                   000000018027b138     CCXExtUI.res
 0005:00245440       $R22DAA0                   000000018027b440     CCXExtUI.res
 0005:002457c8       $R22DE28                   000000018027b7c8     CCXExtUI.res
 0005:00245a78       $R22E0D8                   000000018027ba78     CCXExtUI.res
 0005:00245d78       $R22E3D8                   000000018027bd78     CCXExtUI.res
 0005:002465c0       $R22EC20                   000000018027c5c0     CCXExtUI.res
 0005:00246ad8       $R22F138                   000000018027cad8     CCXExtUI.res
 0005:00246db8       $R22F418                   000000018027cdb8     CCXExtUI.res
 0005:002472b0       $R22F910                   000000018027d2b0     CCXExtUI.res
 0005:00247750       $R22FDB0                   000000018027d750     CCXExtUI.res
 0005:00247dc0       $R230420                   000000018027ddc0     CCXExtUI.res
 0005:002481e8       $R230848                   000000018027e1e8     CCXExtUI.res
 0005:00248648       $R230CA8                   000000018027e648     CCXExtUI.res
 0005:00248a28       $R231088                   000000018027ea28     CCXExtUI.res
 0005:00248e38       $R231498                   000000018027ee38     CCXExtUI.res
 0005:00249208       $R231868                   000000018027f208     CCXExtUI.res
 0005:00249398       $R2319F8                   000000018027f398     CCXExtUI.res
 0005:00249618       $R231C78                   000000018027f618     CCXExtUI.res
 0005:00249968       $R231FC8                   000000018027f968     CCXExtUI.res
 0005:00249ca8       $R232308                   000000018027fca8     CCXExtUI.res
 0005:00249e58       $R2324B8                   000000018027fe58     CCXExtUI.res
 0005:0024a180       $R2327E0                   0000000180280180     CCXExtUI.res
 0005:0024ab40       $R2331A0                   0000000180280b40     CCXExtUI.res
 0005:0024b848       $R233EA8                   0000000180281848     CCXExtUI.res
 0005:0024bcf8       $R234358                   0000000180281cf8     CCXExtUI.res
 0005:0024c600       $R234C60                   0000000180282600     CCXExtUI.res
 0005:0024cb60       $R2351C0                   0000000180282b60     CCXExtUI.res
 0005:0024d0a8       $R235708                   00000001802830a8     CCXExtUI.res
 0005:0024d4c0       $R235B20                   00000001802834c0     CCXExtUI.res
 0005:0024dcb0       $R236310                   0000000180283cb0     CCXExtUI.res
 0005:0024e568       $R236BC8                   0000000180284568     CCXExtUI.res
 0005:0024e890       $R236EF0                   0000000180284890     CCXExtUI.res
 0005:0024ed88       $R2373E8                   0000000180284d88     CCXExtUI.res
 0005:0024f1a8       $R237808                   00000001802851a8     CCXExtUI.res
 0005:0024f820       $R237E80                   0000000180285820     CCXExtUI.res
 0005:0024fe98       $R2384F8                   0000000180285e98     CCXExtUI.res
 0005:00250430       $R238A90                   0000000180286430     CCXExtUI.res
 0005:00250c10       $R239270                   0000000180286c10     CCXExtUI.res
 0005:002510e8       $R239748                   00000001802870e8     CCXExtUI.res
 0005:002515f0       $R239C50                   00000001802875f0     CCXExtUI.res
 0005:00251b68       $R23A1C8                   0000000180287b68     CCXExtUI.res
 0005:00252190       $R23A7F0                   0000000180288190     CCXExtUI.res
 0005:00252788       $R23ADE8                   0000000180288788     CCXExtUI.res
 0005:00252b50       $R23B1B0                   0000000180288b50     CCXExtUI.res
 0005:00252bd8       $R23B238                   0000000180288bd8     CCXExtUI.res
 0005:00252d20       $R23B380                   0000000180288d20     CCXExtUI.res
 0005:00252e80       $R23B4E0                   0000000180288e80     CCXExtUI.res
 0005:00252fd8       $R23B638                   0000000180288fd8     CCXExtUI.res
 0005:00253128       $R23B788                   0000000180289128     CCXExtUI.res
 0005:00253298       $R23B8F8                   0000000180289298     CCXExtUI.res
 0005:002533c8       $R23BA28                   00000001802893c8     CCXExtUI.res
 0005:002534b8       $R23BB18                   00000001802894b8     CCXExtUI.res
 0005:00253618       $R23BC78                   0000000180289618     CCXExtUI.res
 0005:00253758       $R23BDB8                   0000000180289758     CCXExtUI.res
 0005:00253898       $R23BEF8                   0000000180289898     CCXExtUI.res
 0005:002539d0       $R23C030                   00000001802899d0     CCXExtUI.res
 0005:00253b68       $R23C1C8                   0000000180289b68     CCXExtUI.res
 0005:00253cf0       $R23C350                   0000000180289cf0     CCXExtUI.res
 0005:00253e90       $R23C4F0                   0000000180289e90     CCXExtUI.res
 0005:00254018       $R23C678                   000000018028a018     CCXExtUI.res
 0005:00254070       $R23C6D0                   000000018028a070     CCXExtUI.res
 0005:002545f8       $R23CC58                   000000018028a5f8     CCXExtUI.res
 0005:002549d8       $R23D038                   000000018028a9d8     CCXExtUI.res
 0005:00254cc8       $R23D328                   000000018028acc8     CCXExtUI.res
 0005:00254f68       $R23D5C8                   000000018028af68     CCXExtUI.res
 0005:00255440       $R23DAA0                   000000018028b440     CCXExtUI.res
 0005:00255940       $R23DFA0                   000000018028b940     CCXExtUI.res
 0005:00255cf0       $R23E350                   000000018028bcf0     CCXExtUI.res
 0005:00256270       $R23E8D0                   000000018028c270     CCXExtUI.res
 0005:00256c08       $R23F268                   000000018028cc08     CCXExtUI.res
 0005:00257040       $R23F6A0                   000000018028d040     CCXExtUI.res
 0005:002575e8       $R23FC48                   000000018028d5e8     CCXExtUI.res
 0005:00257b50       $R2401B0                   000000018028db50     CCXExtUI.res
 0005:00258008       $R240668                   000000018028e008     CCXExtUI.res
 0005:00258620       $R240C80                   000000018028e620     CCXExtUI.res
 0005:00258870       $R240ED0                   000000018028e870     CCXExtUI.res
 0005:00258e50       $R2414B0                   000000018028ee50     CCXExtUI.res
 0005:00258fc8       $R241628                   000000018028efc8     CCXExtUI.res
 0005:002595c8       $R241C28                   000000018028f5c8     CCXExtUI.res
 0005:002597f0       $R241E50                   000000018028f7f0     CCXExtUI.res
 0005:002599a8       $R242008                   000000018028f9a8     CCXExtUI.res
 0005:00259e70       $R2424D0                   000000018028fe70     CCXExtUI.res
 0005:0025a3b0       $R242A10                   00000001802903b0     CCXExtUI.res
 0005:0025a918       $R242F78                   0000000180290918     CCXExtUI.res
 0005:0025ac18       $R243278                   0000000180290c18     CCXExtUI.res
 0005:0025b430       $R243A90                   0000000180291430     CCXExtUI.res
 0005:0025baa0       $R244100                   0000000180291aa0     CCXExtUI.res
 0005:0025c108       $R244768                   0000000180292108     CCXExtUI.res
 0005:0025c408       $R244A68                   0000000180292408     CCXExtUI.res
 0005:0025cb88       $R2451E8                   0000000180292b88     CCXExtUI.res
 0005:0025ceb8       $R245518                   0000000180292eb8     CCXExtUI.res
 0005:0025d1c8       $R245828                   00000001802931c8     CCXExtUI.res
 0005:0025d4a0       $R245B00                   00000001802934a0     CCXExtUI.res
 0005:0025d878       $R245ED8                   0000000180293878     CCXExtUI.res
 0005:0025e138       $R246798                   0000000180294138     CCXExtUI.res
 0005:0025e670       $R246CD0                   0000000180294670     CCXExtUI.res
 0005:0025e908       $R246F68                   0000000180294908     CCXExtUI.res
 0005:0025ee48       $R2474A8                   0000000180294e48     CCXExtUI.res
 0005:0025f2a0       $R247900                   00000001802952a0     CCXExtUI.res
 0005:0025f940       $R247FA0                   0000000180295940     CCXExtUI.res
 0005:0025fd98       $R2483F8                   0000000180295d98     CCXExtUI.res
 0005:00260278       $R2488D8                   0000000180296278     CCXExtUI.res
 0005:002606a8       $R248D08                   00000001802966a8     CCXExtUI.res
 0005:00260b18       $R249178                   0000000180296b18     CCXExtUI.res
 0005:00260ef8       $R249558                   0000000180296ef8     CCXExtUI.res
 0005:002610b8       $R249718                   00000001802970b8     CCXExtUI.res
 0005:00261340       $R2499A0                   0000000180297340     CCXExtUI.res
 0005:00261728       $R249D88                   0000000180297728     CCXExtUI.res
 0005:00261a48       $R24A0A8                   0000000180297a48     CCXExtUI.res
 0005:00261c00       $R24A260                   0000000180297c00     CCXExtUI.res
 0005:00261f88       $R24A5E8                   0000000180297f88     CCXExtUI.res
 0005:002628d0       $R24AF30                   00000001802988d0     CCXExtUI.res
 0005:00263520       $R24BB80                   0000000180299520     CCXExtUI.res
 0005:00263a18       $R24C078                   0000000180299a18     CCXExtUI.res
 0005:00264418       $R24CA78                   000000018029a418     CCXExtUI.res
 0005:002649c8       $R24D028                   000000018029a9c8     CCXExtUI.res
 0005:00264f18       $R24D578                   000000018029af18     CCXExtUI.res
 0005:00265390       $R24D9F0                   000000018029b390     CCXExtUI.res
 0005:00265c90       $R24E2F0                   000000018029bc90     CCXExtUI.res
 0005:00266698       $R24ECF8                   000000018029c698     CCXExtUI.res
 0005:00266ad0       $R24F130                   000000018029cad0     CCXExtUI.res
 0005:00267120       $R24F780                   000000018029d120     CCXExtUI.res
 0005:00267638       $R24FC98                   000000018029d638     CCXExtUI.res
 0005:00267d00       $R250360                   000000018029dd00     CCXExtUI.res
 0005:00268388       $R2509E8                   000000018029e388     CCXExtUI.res
 0005:002688e8       $R250F48                   000000018029e8e8     CCXExtUI.res
 0005:00269078       $R2516D8                   000000018029f078     CCXExtUI.res
 0005:00269588       $R251BE8                   000000018029f588     CCXExtUI.res
 0005:00269aa0       $R252100                   000000018029faa0     CCXExtUI.res
 0005:0026a140       $R2527A0                   00000001802a0140     CCXExtUI.res
 0005:0026a740       $R252DA0                   00000001802a0740     CCXExtUI.res
 0005:0026ad70       $R2533D0                   00000001802a0d70     CCXExtUI.res
 0005:0026b168       $R2537C8                   00000001802a1168     CCXExtUI.res
 0005:0026b208       $R253868                   00000001802a1208     CCXExtUI.res
 0005:0026b348       $R2539A8                   00000001802a1348     CCXExtUI.res
 0005:0026b4b0       $R253B10                   00000001802a14b0     CCXExtUI.res
 0005:0026b640       $R253CA0                   00000001802a1640     CCXExtUI.res
 0005:0026b800       $R253E60                   00000001802a1800     CCXExtUI.res
 0005:0026b988       $R253FE8                   00000001802a1988     CCXExtUI.res
 0005:0026bae8       $R254148                   00000001802a1ae8     CCXExtUI.res
 0005:0026bbd8       $R254238                   00000001802a1bd8     CCXExtUI.res
 0005:0026bd20       $R254380                   00000001802a1d20     CCXExtUI.res
 0005:0026be58       $R2544B8                   00000001802a1e58     CCXExtUI.res
 0005:0026bfe0       $R254640                   00000001802a1fe0     CCXExtUI.res
 0005:0026c120       $R254780                   00000001802a2120     CCXExtUI.res
 0005:0026c318       $R254978                   00000001802a2318     CCXExtUI.res
 0005:0026c498       $R254AF8                   00000001802a2498     CCXExtUI.res
 0005:0026c658       $R254CB8                   00000001802a2658     CCXExtUI.res
 0005:0026c7e0       $R254E40                   00000001802a27e0     CCXExtUI.res
 0005:0026c828       $R254E88                   00000001802a2828     CCXExtUI.res
 0005:0026cdc8       $R255428                   00000001802a2dc8     CCXExtUI.res
 0005:0026d1a0       $R255800                   00000001802a31a0     CCXExtUI.res
 0005:0026d4a0       $R255B00                   00000001802a34a0     CCXExtUI.res
 0005:0026d7d8       $R255E38                   00000001802a37d8     CCXExtUI.res
 0005:0026dce8       $R256348                   00000001802a3ce8     CCXExtUI.res
 0005:0026e228       $R256888                   00000001802a4228     CCXExtUI.res
 0005:0026e5d8       $R256C38                   00000001802a45d8     CCXExtUI.res
 0005:0026ebc8       $R257228                   00000001802a4bc8     CCXExtUI.res
 0005:0026f580       $R257BE0                   00000001802a5580     CCXExtUI.res
 0005:0026f9b8       $R258018                   00000001802a59b8     CCXExtUI.res
 0005:00270038       $R258698                   00000001802a6038     CCXExtUI.res
 0005:00270608       $R258C68                   00000001802a6608     CCXExtUI.res
 0005:00270ac8       $R259128                   00000001802a6ac8     CCXExtUI.res
 0005:002710d0       $R259730                   00000001802a70d0     CCXExtUI.res
 0005:00271348       $R2599A8                   00000001802a7348     CCXExtUI.res
 0005:00271970       $R259FD0                   00000001802a7970     CCXExtUI.res
 0005:00271b08       $R25A168                   00000001802a7b08     CCXExtUI.res
 0005:00272110       $R25A770                   00000001802a8110     CCXExtUI.res
 0005:00272340       $R25A9A0                   00000001802a8340     CCXExtUI.res
 0005:00272528       $R25AB88                   00000001802a8528     CCXExtUI.res
 0005:00272a48       $R25B0A8                   00000001802a8a48     CCXExtUI.res
 0005:00273040       $R25B6A0                   00000001802a9040     CCXExtUI.res
 0005:002735e0       $R25BC40                   00000001802a95e0     CCXExtUI.res
 0005:00273908       $R25BF68                   00000001802a9908     CCXExtUI.res
 0005:00274178       $R25C7D8                   00000001802aa178     CCXExtUI.res
 0005:00274920       $R25CF80                   00000001802aa920     CCXExtUI.res
 0005:00274f68       $R25D5C8                   00000001802aaf68     CCXExtUI.res
 0005:002752b0       $R25D910                   00000001802ab2b0     CCXExtUI.res
 0005:00275af0       $R25E150                   00000001802abaf0     CCXExtUI.res
 0005:00275e48       $R25E4A8                   00000001802abe48     CCXExtUI.res
 0005:00276200       $R25E860                   00000001802ac200     CCXExtUI.res
 0005:00276518       $R25EB78                   00000001802ac518     CCXExtUI.res
 0005:002768b0       $R25EF10                   00000001802ac8b0     CCXExtUI.res
 0005:00277220       $R25F880                   00000001802ad220     CCXExtUI.res
 0005:00277750       $R25FDB0                   00000001802ad750     CCXExtUI.res
 0005:00277a40       $R2600A0                   00000001802ada40     CCXExtUI.res
 0005:00277ff8       $R260658                   00000001802adff8     CCXExtUI.res
 0005:002784f0       $R260B50                   00000001802ae4f0     CCXExtUI.res
 0005:00278b68       $R2611C8                   00000001802aeb68     CCXExtUI.res
 0005:00279058       $R2616B8                   00000001802af058     CCXExtUI.res
 0005:00279500       $R261B60                   00000001802af500     CCXExtUI.res
 0005:00279900       $R261F60                   00000001802af900     CCXExtUI.res
 0005:00279d38       $R262398                   00000001802afd38     CCXExtUI.res
 0005:0027a148       $R2627A8                   00000001802b0148     CCXExtUI.res
 0005:0027a348       $R2629A8                   00000001802b0348     CCXExtUI.res
 0005:0027a600       $R262C60                   00000001802b0600     CCXExtUI.res
 0005:0027a9a8       $R263008                   00000001802b09a8     CCXExtUI.res
 0005:0027ad28       $R263388                   00000001802b0d28     CCXExtUI.res
 0005:0027aef0       $R263550                   00000001802b0ef0     CCXExtUI.res
 0005:0027b280       $R2638E0                   00000001802b1280     CCXExtUI.res
 0005:0027bb28       $R264188                   00000001802b1b28     CCXExtUI.res
 0005:0027c6f0       $R264D50                   00000001802b26f0     CCXExtUI.res
 0005:0027cc58       $R2652B8                   00000001802b2c58     CCXExtUI.res
 0005:0027d4c8       $R265B28                   00000001802b34c8     CCXExtUI.res
 0005:0027da88       $R2660E8                   00000001802b3a88     CCXExtUI.res
 0005:0027e038       $R266698                   00000001802b4038     CCXExtUI.res
 0005:0027e4d8       $R266B38                   00000001802b44d8     CCXExtUI.res
 0005:0027ed28       $R267388                   00000001802b4d28     CCXExtUI.res
 0005:0027f658       $R267CB8                   00000001802b5658     CCXExtUI.res
 0005:0027fa20       $R268080                   00000001802b5a20     CCXExtUI.res
 0005:0027ff98       $R2685F8                   00000001802b5f98     CCXExtUI.res
 0005:00280410       $R268A70                   00000001802b6410     CCXExtUI.res
 0005:00280ad8       $R269138                   00000001802b6ad8     CCXExtUI.res
 0005:00281258       $R2698B8                   00000001802b7258     CCXExtUI.res
 0005:002817b0       $R269E10                   00000001802b77b0     CCXExtUI.res
 0005:00281ec8       $R26A528                   00000001802b7ec8     CCXExtUI.res
 0005:002823d0       $R26AA30                   00000001802b83d0     CCXExtUI.res
 0005:002828a8       $R26AF08                   00000001802b88a8     CCXExtUI.res
 0005:00282ef0       $R26B550                   00000001802b8ef0     CCXExtUI.res
 0005:002834f8       $R26BB58                   00000001802b94f8     CCXExtUI.res
 0005:00283b48       $R26C1A8                   00000001802b9b48     CCXExtUI.res
 0005:00283f80       $R26C5E0                   00000001802b9f80     CCXExtUI.res
 0005:00284028       $R26C688                   00000001802ba028     CCXExtUI.res
 0005:00284160       $R26C7C0                   00000001802ba160     CCXExtUI.res
 0005:002842c0       $R26C920                   00000001802ba2c0     CCXExtUI.res
 0005:00284428       $R26CA88                   00000001802ba428     CCXExtUI.res
 0005:00284578       $R26CBD8                   00000001802ba578     CCXExtUI.res
 0005:00284710       $R26CD70                   00000001802ba710     CCXExtUI.res
 0005:00284860       $R26CEC0                   00000001802ba860     CCXExtUI.res
 0005:00284978       $R26CFD8                   00000001802ba978     CCXExtUI.res
 0005:00284a90       $R26D0F0                   00000001802baa90     CCXExtUI.res
 0005:00284bc8       $R26D228                   00000001802babc8     CCXExtUI.res
 0005:00284d70       $R26D3D0                   00000001802bad70     CCXExtUI.res
 0005:00284eb0       $R26D510                   00000001802baeb0     CCXExtUI.res
 0005:00285070       $R26D6D0                   00000001802bb070     CCXExtUI.res
 0005:002851f0       $R26D850                   00000001802bb1f0     CCXExtUI.res
 0005:00285390       $R26D9F0                   00000001802bb390     CCXExtUI.res
 0005:00285528       $R26DB88                   00000001802bb528     CCXExtUI.res
 0005:00285588       $R26DBE8                   00000001802bb588     CCXExtUI.res
 0005:00285b58       $R26E1B8                   00000001802bbb58     CCXExtUI.res
 0005:00285ed8       $R26E538                   00000001802bbed8     CCXExtUI.res
 0005:002861d0       $R26E830                   00000001802bc1d0     CCXExtUI.res
 0005:002864d8       $R26EB38                   00000001802bc4d8     CCXExtUI.res
 0005:002869b0       $R26F010                   00000001802bc9b0     CCXExtUI.res
 0005:00286ef0       $R26F550                   00000001802bcef0     CCXExtUI.res
 0005:00287288       $R26F8E8                   00000001802bd288     CCXExtUI.res
 0005:00287850       $R26FEB0                   00000001802bd850     CCXExtUI.res
 0005:00288238       $R270898                   00000001802be238     CCXExtUI.res
 0005:00288660       $R270CC0                   00000001802be660     CCXExtUI.res
 0005:00288d40       $R2713A0                   00000001802bed40     CCXExtUI.res
 0005:00289260       $R2718C0                   00000001802bf260     CCXExtUI.res
 0005:002896e0       $R271D40                   00000001802bf6e0     CCXExtUI.res
 0005:00289ca8       $R272308                   00000001802bfca8     CCXExtUI.res
 0005:00289ee8       $R272548                   00000001802bfee8     CCXExtUI.res
 0005:0028a528       $R272B88                   00000001802c0528     CCXExtUI.res
 0005:0028a710       $R272D70                   00000001802c0710     CCXExtUI.res
 0005:0028ad88       $R2733E8                   00000001802c0d88     CCXExtUI.res
 0005:0028afb0       $R273610                   00000001802c0fb0     CCXExtUI.res
 0005:0028b1b0       $R273810                   00000001802c11b0     CCXExtUI.res
 0005:0028b6c8       $R273D28                   00000001802c16c8     CCXExtUI.res
 0005:0028bc68       $R2742C8                   00000001802c1c68     CCXExtUI.res
 0005:0028c1a8       $R274808                   00000001802c21a8     CCXExtUI.res
 0005:0028c4b0       $R274B10                   00000001802c24b0     CCXExtUI.res
 0005:0028cd68       $R2753C8                   00000001802c2d68     CCXExtUI.res
 0005:0028d450       $R275AB0                   00000001802c3450     CCXExtUI.res
 0005:0028db00       $R276160                   00000001802c3b00     CCXExtUI.res
 0005:0028de68       $R2764C8                   00000001802c3e68     CCXExtUI.res
 0005:0028e738       $R276D98                   00000001802c4738     CCXExtUI.res
 0005:0028ea40       $R2770A0                   00000001802c4a40     CCXExtUI.res
 0005:0028edc0       $R277420                   00000001802c4dc0     CCXExtUI.res
 0005:0028f0b0       $R277710                   00000001802c50b0     CCXExtUI.res
 0005:0028f3e0       $R277A40                   00000001802c53e0     CCXExtUI.res
 0005:0028fcd0       $R278330                   00000001802c5cd0     CCXExtUI.res
 0005:00290288       $R2788E8                   00000001802c6288     CCXExtUI.res
 0005:00290568       $R278BC8                   00000001802c6568     CCXExtUI.res
 0005:00290af0       $R279150                   00000001802c6af0     CCXExtUI.res
 0005:00290fe0       $R279640                   00000001802c6fe0     CCXExtUI.res
 0005:00291680       $R279CE0                   00000001802c7680     CCXExtUI.res
 0005:00291ad8       $R27A138                   00000001802c7ad8     CCXExtUI.res
 0005:00291f98       $R27A5F8                   00000001802c7f98     CCXExtUI.res
 0005:00292380       $R27A9E0                   00000001802c8380     CCXExtUI.res
 0005:002927d0       $R27AE30                   00000001802c87d0     CCXExtUI.res
 0005:00292bc8       $R27B228                   00000001802c8bc8     CCXExtUI.res
 0005:00292da8       $R27B408                   00000001802c8da8     CCXExtUI.res
 0005:00293030       $R27B690                   00000001802c9030     CCXExtUI.res
 0005:00293400       $R27BA60                   00000001802c9400     CCXExtUI.res
 0005:00293768       $R27BDC8                   00000001802c9768     CCXExtUI.res
 0005:00293930       $R27BF90                   00000001802c9930     CCXExtUI.res
 0005:00293d08       $R27C368                   00000001802c9d08     CCXExtUI.res
 0005:00294670       $R27CCD0                   00000001802ca670     CCXExtUI.res
 0005:002952a0       $R27D900                   00000001802cb2a0     CCXExtUI.res
 0005:00295890       $R27DEF0                   00000001802cb890     CCXExtUI.res
 0005:00296268       $R27E8C8                   00000001802cc268     CCXExtUI.res
 0005:00296830       $R27EE90                   00000001802cc830     CCXExtUI.res
 0005:00296da8       $R27F408                   00000001802ccda8     CCXExtUI.res
 0005:002972a0       $R27F900                   00000001802cd2a0     CCXExtUI.res
 0005:00297ba0       $R280200                   00000001802cdba0     CCXExtUI.res
 0005:002984e8       $R280B48                   00000001802ce4e8     CCXExtUI.res
 0005:00298868       $R280EC8                   00000001802ce868     CCXExtUI.res
 0005:00298dd8       $R281438                   00000001802cedd8     CCXExtUI.res
 0005:00299220       $R281880                   00000001802cf220     CCXExtUI.res
 0005:00299920       $R281F80                   00000001802cf920     CCXExtUI.res
 0005:0029a0e0       $R282740                   00000001802d00e0     CCXExtUI.res
 0005:0029a638       $R282C98                   00000001802d0638     CCXExtUI.res
 0005:0029adc0       $R283420                   00000001802d0dc0     CCXExtUI.res
 0005:0029b2c8       $R283928                   00000001802d12c8     CCXExtUI.res
 0005:0029b838       $R283E98                   00000001802d1838     CCXExtUI.res
 0005:0029beb0       $R284510                   00000001802d1eb0     CCXExtUI.res
 0005:0029c568       $R284BC8                   00000001802d2568     CCXExtUI.res
 0005:0029cbe0       $R285240                   00000001802d2be0     CCXExtUI.res
 0005:0029cfe8       $R285648                   00000001802d2fe8     CCXExtUI.res
 0005:0029d090       $R2856F0                   00000001802d3090     CCXExtUI.res
 0005:0029d1d0       $R285830                   00000001802d31d0     CCXExtUI.res
 0005:0029d340       $R2859A0                   00000001802d3340     CCXExtUI.res
 0005:0029d4a8       $R285B08                   00000001802d34a8     CCXExtUI.res
 0005:0029d5e8       $R285C48                   00000001802d35e8     CCXExtUI.res
 0005:0029d7a0       $R285E00                   00000001802d37a0     CCXExtUI.res
 0005:0029d8e0       $R285F40                   00000001802d38e0     CCXExtUI.res
 0005:0029d9d8       $R286038                   00000001802d39d8     CCXExtUI.res
 0005:0029daf0       $R286150                   00000001802d3af0     CCXExtUI.res
 0005:0029dc18       $R286278                   00000001802d3c18     CCXExtUI.res
 0005:0029dd68       $R2863C8                   00000001802d3d68     CCXExtUI.res
 0005:0029deb0       $R286510                   00000001802d3eb0     CCXExtUI.res
 0005:0029e058       $R2866B8                   00000001802d4058     CCXExtUI.res
 0005:0029e1f0       $R286850                   00000001802d41f0     CCXExtUI.res
 0005:0029e398       $R2869F8                   00000001802d4398     CCXExtUI.res
 0005:0029e538       $R286B98                   00000001802d4538     CCXExtUI.res
 0005:0029e580       $R286BE0                   00000001802d4580     CCXExtUI.res
 0005:0029eae0       $R287140                   00000001802d4ae0     CCXExtUI.res
 0005:0029ee40       $R2874A0                   00000001802d4e40     CCXExtUI.res
 0005:0029f0e0       $R287740                   00000001802d50e0     CCXExtUI.res
 0005:0029f3b8       $R287A18                   00000001802d53b8     CCXExtUI.res
 0005:0029f850       $R287EB0                   00000001802d5850     CCXExtUI.res
 0005:0029fd08       $R288368                   00000001802d5d08     CCXExtUI.res
 0005:002a0078       $R2886D8                   00000001802d6078     CCXExtUI.res
 0005:002a0640       $R288CA0                   00000001802d6640     CCXExtUI.res
 0005:002a0e90       $R2894F0                   00000001802d6e90     CCXExtUI.res
 0005:002a1280       $R2898E0                   00000001802d7280     CCXExtUI.res
 0005:002a18a0       $R289F00                   00000001802d78a0     CCXExtUI.res
 0005:002a1dd0       $R28A430                   00000001802d7dd0     CCXExtUI.res
 0005:002a2288       $R28A8E8                   00000001802d8288     CCXExtUI.res
 0005:002a2870       $R28AED0                   00000001802d8870     CCXExtUI.res
 0005:002a2b38       $R28B198                   00000001802d8b38     CCXExtUI.res
 0005:002a3108       $R28B768                   00000001802d9108     CCXExtUI.res
 0005:002a32b0       $R28B910                   00000001802d92b0     CCXExtUI.res
 0005:002a3850       $R28BEB0                   00000001802d9850     CCXExtUI.res
 0005:002a3aa0       $R28C100                   00000001802d9aa0     CCXExtUI.res
 0005:002a3c98       $R28C2F8                   00000001802d9c98     CCXExtUI.res
 0005:002a41e8       $R28C848                   00000001802da1e8     CCXExtUI.res
 0005:002a4740       $R28CDA0                   00000001802da740     CCXExtUI.res
 0005:002a4c90       $R28D2F0                   00000001802dac90     CCXExtUI.res
 0005:002a4fe8       $R28D648                   00000001802dafe8     CCXExtUI.res
 0005:002a5818       $R28DE78                   00000001802db818     CCXExtUI.res
 0005:002a5ef8       $R28E558                   00000001802dbef8     CCXExtUI.res
 0005:002a6608       $R28EC68                   00000001802dc608     CCXExtUI.res
 0005:002a6938       $R28EF98                   00000001802dc938     CCXExtUI.res
 0005:002a7150       $R28F7B0                   00000001802dd150     CCXExtUI.res
 0005:002a7480       $R28FAE0                   00000001802dd480     CCXExtUI.res
 0005:002a77f0       $R28FE50                   00000001802dd7f0     CCXExtUI.res
 0005:002a7af0       $R290150                   00000001802ddaf0     CCXExtUI.res
 0005:002a7e70       $R2904D0                   00000001802dde70     CCXExtUI.res
 0005:002a8748       $R290DA8                   00000001802de748     CCXExtUI.res
 0005:002a8ca8       $R291308                   00000001802deca8     CCXExtUI.res
 0005:002a8f48       $R2915A8                   00000001802def48     CCXExtUI.res
 0005:002a9498       $R291AF8                   00000001802df498     CCXExtUI.res
 0005:002a9930       $R291F90                   00000001802df930     CCXExtUI.res
 0005:002aa000       $R292660                   00000001802e0000     CCXExtUI.res
 0005:002aa4c8       $R292B28                   00000001802e04c8     CCXExtUI.res
 0005:002aa998       $R292FF8                   00000001802e0998     CCXExtUI.res
 0005:002aad88       $R2933E8                   00000001802e0d88     CCXExtUI.res
 0005:002ab1e0       $R293840                   00000001802e11e0     CCXExtUI.res
 0005:002ab5f8       $R293C58                   00000001802e15f8     CCXExtUI.res
 0005:002ab7e0       $R293E40                   00000001802e17e0     CCXExtUI.res
 0005:002aba78       $R2940D8                   00000001802e1a78     CCXExtUI.res
 0005:002abe70       $R2944D0                   00000001802e1e70     CCXExtUI.res
 0005:002ac1b0       $R294810                   00000001802e21b0     CCXExtUI.res
 0005:002ac388       $R2949E8                   00000001802e2388     CCXExtUI.res
 0005:002ac718       $R294D78                   00000001802e2718     CCXExtUI.res
 0005:002ad068       $R2956C8                   00000001802e3068     CCXExtUI.res
 0005:002adba8       $R296208                   00000001802e3ba8     CCXExtUI.res
 0005:002ae058       $R2966B8                   00000001802e4058     CCXExtUI.res
 0005:002ae9c8       $R297028                   00000001802e49c8     CCXExtUI.res
 0005:002aef58       $R2975B8                   00000001802e4f58     CCXExtUI.res
 0005:002af498       $R297AF8                   00000001802e5498     CCXExtUI.res
 0005:002af900       $R297F60                   00000001802e5900     CCXExtUI.res
 0005:002b0088       $R2986E8                   00000001802e6088     CCXExtUI.res
 0005:002b09a0       $R299000                   00000001802e69a0     CCXExtUI.res
 0005:002b0d38       $R299398                   00000001802e6d38     CCXExtUI.res
 0005:002b1250       $R2998B0                   00000001802e7250     CCXExtUI.res
 0005:002b16c8       $R299D28                   00000001802e76c8     CCXExtUI.res
 0005:002b1d30       $R29A390                   00000001802e7d30     CCXExtUI.res
 0005:002b2408       $R29AA68                   00000001802e8408     CCXExtUI.res
 0005:002b2938       $R29AF98                   00000001802e8938     CCXExtUI.res
 0005:002b3028       $R29B688                   00000001802e9028     CCXExtUI.res
 0005:002b34e0       $R29BB40                   00000001802e94e0     CCXExtUI.res
 0005:002b39b0       $R29C010                   00000001802e99b0     CCXExtUI.res
 0005:002b3f58       $R29C5B8                   00000001802e9f58     CCXExtUI.res
 0005:002b4530       $R29CB90                   00000001802ea530     CCXExtUI.res
 0005:002b4b08       $R29D168                   00000001802eab08     CCXExtUI.res
 0005:002b4f18       $R29D578                   00000001802eaf18     CCXExtUI.res
 0005:002b4fa8       $R29D608                   00000001802eafa8     CCXExtUI.res
 0005:002b50f8       $R29D758                   00000001802eb0f8     CCXExtUI.res
 0005:002b5268       $R29D8C8                   00000001802eb268     CCXExtUI.res
 0005:002b53d8       $R29DA38                   00000001802eb3d8     CCXExtUI.res
 0005:002b5528       $R29DB88                   00000001802eb528     CCXExtUI.res
 0005:002b5708       $R29DD68                   00000001802eb708     CCXExtUI.res
 0005:002b5840       $R29DEA0                   00000001802eb840     CCXExtUI.res
 0005:002b5940       $R29DFA0                   00000001802eb940     CCXExtUI.res
 0005:002b5a50       $R29E0B0                   00000001802eba50     CCXExtUI.res
 0005:002b5b88       $R29E1E8                   00000001802ebb88     CCXExtUI.res
 0005:002b5cf0       $R29E350                   00000001802ebcf0     CCXExtUI.res
 0005:002b5e28       $R29E488                   00000001802ebe28     CCXExtUI.res
 0005:002b5fb0       $R29E610                   00000001802ebfb0     CCXExtUI.res
 0005:002b6128       $R29E788                   00000001802ec128     CCXExtUI.res
 0005:002b62a8       $R29E908                   00000001802ec2a8     CCXExtUI.res
 0005:002b6430       $R29EA90                   00000001802ec430     CCXExtUI.res
 0005:002b6480       $R29EAE0                   00000001802ec480     CCXExtUI.res
 0005:002b6a40       $R29F0A0                   00000001802eca40     CCXExtUI.res
 0005:002b6d90       $R29F3F0                   00000001802ecd90     CCXExtUI.res
 0005:002b7010       $R29F670                   00000001802ed010     CCXExtUI.res
 0005:002b7308       $R29F968                   00000001802ed308     CCXExtUI.res
 0005:002b7820       $R29FE80                   00000001802ed820     CCXExtUI.res
 0005:002b7cc0       $R2A0320                   00000001802edcc0     CCXExtUI.res
 0005:002b8000       $R2A0660                   00000001802ee000     CCXExtUI.res
 0005:002b8570       $R2A0BD0                   00000001802ee570     CCXExtUI.res
 0005:002b8ee0       $R2A1540                   00000001802eeee0     CCXExtUI.res
 0005:002b92d0       $R2A1930                   00000001802ef2d0     CCXExtUI.res
 0005:002b98c8       $R2A1F28                   00000001802ef8c8     CCXExtUI.res
 0005:002b9df0       $R2A2450                   00000001802efdf0     CCXExtUI.res
 0005:002ba228       $R2A2888                   00000001802f0228     CCXExtUI.res
 0005:002ba7d0       $R2A2E30                   00000001802f07d0     CCXExtUI.res
 0005:002baa48       $R2A30A8                   00000001802f0a48     CCXExtUI.res
 0005:002bafe0       $R2A3640                   00000001802f0fe0     CCXExtUI.res
 0005:002bb1b8       $R2A3818                   00000001802f11b8     CCXExtUI.res
 0005:002bb780       $R2A3DE0                   00000001802f1780     CCXExtUI.res
 0005:002bb9b8       $R2A4018                   00000001802f19b8     CCXExtUI.res
 0005:002bbb98       $R2A41F8                   00000001802f1b98     CCXExtUI.res
 0005:002bc098       $R2A46F8                   00000001802f2098     CCXExtUI.res
 0005:002bc590       $R2A4BF0                   00000001802f2590     CCXExtUI.res
 0005:002bcaa8       $R2A5108                   00000001802f2aa8     CCXExtUI.res
 0005:002bcde0       $R2A5440                   00000001802f2de0     CCXExtUI.res
 0005:002bd658       $R2A5CB8                   00000001802f3658     CCXExtUI.res
 0005:002bdd30       $R2A6390                   00000001802f3d30     CCXExtUI.res
 0005:002be380       $R2A69E0                   00000001802f4380     CCXExtUI.res
 0005:002be6a0       $R2A6D00                   00000001802f46a0     CCXExtUI.res
 0005:002bee78       $R2A74D8                   00000001802f4e78     CCXExtUI.res
 0005:002bf168       $R2A77C8                   00000001802f5168     CCXExtUI.res
 0005:002bf4a8       $R2A7B08                   00000001802f54a8     CCXExtUI.res
 0005:002bf768       $R2A7DC8                   00000001802f5768     CCXExtUI.res
 0005:002bfad8       $R2A8138                   00000001802f5ad8     CCXExtUI.res
 0005:002c0370       $R2A89D0                   00000001802f6370     CCXExtUI.res
 0005:002c0908       $R2A8F68                   00000001802f6908     CCXExtUI.res
 0005:002c0bd8       $R2A9238                   00000001802f6bd8     CCXExtUI.res
 0005:002c1148       $R2A97A8                   00000001802f7148     CCXExtUI.res
 0005:002c1600       $R2A9C60                   00000001802f7600     CCXExtUI.res
 0005:002c1c58       $R2AA2B8                   00000001802f7c58     CCXExtUI.res
 0005:002c20a0       $R2AA700                   00000001802f80a0     CCXExtUI.res
 0005:002c2510       $R2AAB70                   00000001802f8510     CCXExtUI.res
 0005:002c2958       $R2AAFB8                   00000001802f8958     CCXExtUI.res
 0005:002c2db0       $R2AB410                   00000001802f8db0     CCXExtUI.res
 0005:002c3138       $R2AB798                   00000001802f9138     CCXExtUI.res
 0005:002c32f8       $R2AB958                   00000001802f92f8     CCXExtUI.res
 0005:002c3588       $R2ABBE8                   00000001802f9588     CCXExtUI.res
 0005:002c3968       $R2ABFC8                   00000001802f9968     CCXExtUI.res
 0005:002c3c90       $R2AC2F0                   00000001802f9c90     CCXExtUI.res
 0005:002c3e28       $R2AC488                   00000001802f9e28     CCXExtUI.res
 0005:002c4230       $R2AC890                   00000001802fa230     CCXExtUI.res
 0005:002c4a38       $R2AD098                   00000001802faa38     CCXExtUI.res
 0005:002c5518       $R2ADB78                   00000001802fb518     CCXExtUI.res
 0005:002c59e8       $R2AE048                   00000001802fb9e8     CCXExtUI.res
 0005:002c61f8       $R2AE858                   00000001802fc1f8     CCXExtUI.res
 0005:002c6760       $R2AEDC0                   00000001802fc760     CCXExtUI.res
 0005:002c6c80       $R2AF2E0                   00000001802fcc80     CCXExtUI.res
 0005:002c70d0       $R2AF730                   00000001802fd0d0     CCXExtUI.res
 0005:002c7958       $R2AFFB8                   00000001802fd958     CCXExtUI.res
 0005:002c8260       $R2B08C0                   00000001802fe260     CCXExtUI.res
 0005:002c85f0       $R2B0C50                   00000001802fe5f0     CCXExtUI.res
 0005:002c8b40       $R2B11A0                   00000001802feb40     CCXExtUI.res
 0005:002c8f50       $R2B15B0                   00000001802fef50     CCXExtUI.res
 0005:002c9580       $R2B1BE0                   00000001802ff580     CCXExtUI.res
 0005:002c9c08       $R2B2268                   00000001802ffc08     CCXExtUI.res
 0005:002ca110       $R2B2770                   0000000180300110     CCXExtUI.res
 0005:002ca800       $R2B2E60                   0000000180300800     CCXExtUI.res
 0005:002cacd0       $R2B3330                   0000000180300cd0     CCXExtUI.res
 0005:002cb158       $R2B37B8                   0000000180301158     CCXExtUI.res
 0005:002cb730       $R2B3D90                   0000000180301730     CCXExtUI.res
 0005:002cbcf0       $R2B4350                   0000000180301cf0     CCXExtUI.res
 0005:002cc2e0       $R2B4940                   00000001803022e0     CCXExtUI.res
 0005:002cc660       $R2B4CC0                   0000000180302660     CCXExtUI.res
 0005:002cc708       $R2B4D68                   0000000180302708     CCXExtUI.res
 0005:002cc848       $R2B4EA8                   0000000180302848     CCXExtUI.res
 0005:002cc9b0       $R2B5010                   00000001803029b0     CCXExtUI.res
 0005:002ccb08       $R2B5168                   0000000180302b08     CCXExtUI.res
 0005:002ccc70       $R2B52D0                   0000000180302c70     CCXExtUI.res
 0005:002cce28       $R2B5488                   0000000180302e28     CCXExtUI.res
 0005:002ccf70       $R2B55D0                   0000000180302f70     CCXExtUI.res
 0005:002cd060       $R2B56C0                   0000000180303060     CCXExtUI.res
 0005:002cd1c0       $R2B5820                   00000001803031c0     CCXExtUI.res
 0005:002cd2f8       $R2B5958                   00000001803032f8     CCXExtUI.res
 0005:002cd440       $R2B5AA0                   0000000180303440     CCXExtUI.res
 0005:002cd570       $R2B5BD0                   0000000180303570     CCXExtUI.res
 0005:002cd730       $R2B5D90                   0000000180303730     CCXExtUI.res
 0005:002cd8a8       $R2B5F08                   00000001803038a8     CCXExtUI.res
 0005:002cda70       $R2B60D0                   0000000180303a70     CCXExtUI.res
 0005:002cdbf8       $R2B6258                   0000000180303bf8     CCXExtUI.res
 0005:002cdc50       $R2B62B0                   0000000180303c50     CCXExtUI.res
 0005:002ce180       $R2B67E0                   0000000180304180     CCXExtUI.res
 0005:002ce4a0       $R2B6B00                   00000001803044a0     CCXExtUI.res
 0005:002ce750       $R2B6DB0                   0000000180304750     CCXExtUI.res
 0005:002ce9f8       $R2B7058                   00000001803049f8     CCXExtUI.res
 0005:002cee70       $R2B74D0                   0000000180304e70     CCXExtUI.res
 0005:002cf2f0       $R2B7950                   00000001803052f0     CCXExtUI.res
 0005:002cf670       $R2B7CD0                   0000000180305670     CCXExtUI.res
 0005:002cfc00       $R2B8260                   0000000180305c00     CCXExtUI.res
 0005:002d0548       $R2B8BA8                   0000000180306548     CCXExtUI.res
 0005:002d0938       $R2B8F98                   0000000180306938     CCXExtUI.res
 0005:002d0f48       $R2B95A8                   0000000180306f48     CCXExtUI.res
 0005:002d1440       $R2B9AA0                   0000000180307440     CCXExtUI.res
 0005:002d1908       $R2B9F68                   0000000180307908     CCXExtUI.res
 0005:002d1e30       $R2BA490                   0000000180307e30     CCXExtUI.res
 0005:002d20b0       $R2BA710                   00000001803080b0     CCXExtUI.res
 0005:002d26b8       $R2BAD18                   00000001803086b8     CCXExtUI.res
 0005:002d2858       $R2BAEB8                   0000000180308858     CCXExtUI.res
 0005:002d2e08       $R2BB468                   0000000180308e08     CCXExtUI.res
 0005:002d3038       $R2BB698                   0000000180309038     CCXExtUI.res
 0005:002d3210       $R2BB870                   0000000180309210     CCXExtUI.res
 0005:002d36e8       $R2BBD48                   00000001803096e8     CCXExtUI.res
 0005:002d3c08       $R2BC268                   0000000180309c08     CCXExtUI.res
 0005:002d40f8       $R2BC758                   000000018030a0f8     CCXExtUI.res
 0005:002d4430       $R2BCA90                   000000018030a430     CCXExtUI.res
 0005:002d4bc8       $R2BD228                   000000018030abc8     CCXExtUI.res
 0005:002d5270       $R2BD8D0                   000000018030b270     CCXExtUI.res
 0005:002d5808       $R2BDE68                   000000018030b808     CCXExtUI.res
 0005:002d5b68       $R2BE1C8                   000000018030bb68     CCXExtUI.res
 0005:002d62b0       $R2BE910                   000000018030c2b0     CCXExtUI.res
 0005:002d6570       $R2BEBD0                   000000018030c570     CCXExtUI.res
 0005:002d68c0       $R2BEF20                   000000018030c8c0     CCXExtUI.res
 0005:002d6b90       $R2BF1F0                   000000018030cb90     CCXExtUI.res
 0005:002d6f40       $R2BF5A0                   000000018030cf40     CCXExtUI.res
 0005:002d7748       $R2BFDA8                   000000018030d748     CCXExtUI.res
 0005:002d7c10       $R2C0270                   000000018030dc10     CCXExtUI.res
 0005:002d7ee0       $R2C0540                   000000018030dee0     CCXExtUI.res
 0005:002d8410       $R2C0A70                   000000018030e410     CCXExtUI.res
 0005:002d88e8       $R2C0F48                   000000018030e8e8     CCXExtUI.res
 0005:002d8f38       $R2C1598                   000000018030ef38     CCXExtUI.res
 0005:002d9398       $R2C19F8                   000000018030f398     CCXExtUI.res
 0005:002d97e8       $R2C1E48                   000000018030f7e8     CCXExtUI.res
 0005:002d9bc0       $R2C2220                   000000018030fbc0     CCXExtUI.res
 0005:002da000       $R2C2660                   0000000180310000     CCXExtUI.res
 0005:002da3d8       $R2C2A38                   00000001803103d8     CCXExtUI.res
 0005:002da548       $R2C2BA8                   0000000180310548     CCXExtUI.res
 0005:002da790       $R2C2DF0                   0000000180310790     CCXExtUI.res
 0005:002dab78       $R2C31D8                   0000000180310b78     CCXExtUI.res
 0005:002dae80       $R2C34E0                   0000000180310e80     CCXExtUI.res
 0005:002db038       $R2C3698                   0000000180311038     CCXExtUI.res
 0005:002db378       $R2C39D8                   0000000180311378     CCXExtUI.res
 0005:002dbcf8       $R2C4358                   0000000180311cf8     CCXExtUI.res
 0005:002dcba8       $R2C5208                   0000000180312ba8     CCXExtUI.res
 0005:002dd0a8       $R2C5708                   00000001803130a8     CCXExtUI.res
 0005:002dda58       $R2C60B8                   0000000180313a58     CCXExtUI.res
 0005:002ddfe0       $R2C6640                   0000000180313fe0     CCXExtUI.res
 0005:002de4e8       $R2C6B48                   00000001803144e8     CCXExtUI.res
 0005:002de920       $R2C6F80                   0000000180314920     CCXExtUI.res
 0005:002df0f8       $R2C7758                   00000001803150f8     CCXExtUI.res
 0005:002df980       $R2C7FE0                   0000000180315980     CCXExtUI.res
 0005:002dfd28       $R2C8388                   0000000180315d28     CCXExtUI.res
 0005:002e02d8       $R2C8938                   00000001803162d8     CCXExtUI.res
 0005:002e0760       $R2C8DC0                   0000000180316760     CCXExtUI.res
 0005:002e0d68       $R2C93C8                   0000000180316d68     CCXExtUI.res
 0005:002e1340       $R2C99A0                   0000000180317340     CCXExtUI.res
 0005:002e1820       $R2C9E80                   0000000180317820     CCXExtUI.res
 0005:002e1f50       $R2CA5B0                   0000000180317f50     CCXExtUI.res
 0005:002e2408       $R2CAA68                   0000000180318408     CCXExtUI.res
 0005:002e2890       $R2CAEF0                   0000000180318890     CCXExtUI.res
 0005:002e2e08       $R2CB468                   0000000180318e08     CCXExtUI.res
 0005:002e3370       $R2CB9D0                   0000000180319370     CCXExtUI.res
 0005:002e3908       $R2CBF68                   0000000180319908     CCXExtUI.res
 0005:002e3cf8       $R2CC358                   0000000180319cf8     CCXExtUI.res
 0005:002e3d88       $R2CC3E8                   0000000180319d88     CCXExtUI.res
 0005:002e3ee0       $R2CC540                   0000000180319ee0     CCXExtUI.res
 0005:002e4048       $R2CC6A8                   000000018031a048     CCXExtUI.res
 0005:002e41b0       $R2CC810                   000000018031a1b0     CCXExtUI.res
 0005:002e4318       $R2CC978                   000000018031a318     CCXExtUI.res
 0005:002e44c0       $R2CCB20                   000000018031a4c0     CCXExtUI.res
 0005:002e4620       $R2CCC80                   000000018031a620     CCXExtUI.res
 0005:002e4720       $R2CCD80                   000000018031a720     CCXExtUI.res
 0005:002e4878       $R2CCED8                   000000018031a878     CCXExtUI.res
 0005:002e49b0       $R2CD010                   000000018031a9b0     CCXExtUI.res
 0005:002e4b18       $R2CD178                   000000018031ab18     CCXExtUI.res
 0005:002e4c48       $R2CD2A8                   000000018031ac48     CCXExtUI.res
 0005:002e4df0       $R2CD450                   000000018031adf0     CCXExtUI.res
 0005:002e4f68       $R2CD5C8                   000000018031af68     CCXExtUI.res
 0005:002e5130       $R2CD790                   000000018031b130     CCXExtUI.res
 0005:002e52c8       $R2CD928                   000000018031b2c8     CCXExtUI.res
 0005:002e5320       $R2CD980                   000000018031b320     CCXExtUI.res
 0005:002e58e0       $R2CDF40                   000000018031b8e0     CCXExtUI.res
 0005:002e5c80       $R2CE2E0                   000000018031bc80     CCXExtUI.res
 0005:002e5f58       $R2CE5B8                   000000018031bf58     CCXExtUI.res
 0005:002e6258       $R2CE8B8                   000000018031c258     CCXExtUI.res
 0005:002e6760       $R2CEDC0                   000000018031c760     CCXExtUI.res
 0005:002e6c38       $R2CF298                   000000018031cc38     CCXExtUI.res
 0005:002e6fb0       $R2CF610                   000000018031cfb0     CCXExtUI.res
 0005:002e75f0       $R2CFC50                   000000018031d5f0     CCXExtUI.res
 0005:002e7f58       $R2D05B8                   000000018031df58     CCXExtUI.res
 0005:002e8388       $R2D09E8                   000000018031e388     CCXExtUI.res
 0005:002e8a70       $R2D10D0                   000000018031ea70     CCXExtUI.res
 0005:002e8fe0       $R2D1640                   000000018031efe0     CCXExtUI.res
 0005:002e94a8       $R2D1B08                   000000018031f4a8     CCXExtUI.res
 0005:002e9ab8       $R2D2118                   000000018031fab8     CCXExtUI.res
 0005:002e9d38       $R2D2398                   000000018031fd38     CCXExtUI.res
 0005:002ea360       $R2D29C0                   0000000180320360     CCXExtUI.res
 0005:002ea4f8       $R2D2B58                   00000001803204f8     CCXExtUI.res
 0005:002eab50       $R2D31B0                   0000000180320b50     CCXExtUI.res
 0005:002ead90       $R2D33F0                   0000000180320d90     CCXExtUI.res
 0005:002eaf80       $R2D35E0                   0000000180320f80     CCXExtUI.res
 0005:002eb4a0       $R2D3B00                   00000001803214a0     CCXExtUI.res
 0005:002eba30       $R2D4090                   0000000180321a30     CCXExtUI.res
 0005:002ebff0       $R2D4650                   0000000180321ff0     CCXExtUI.res
 0005:002ec338       $R2D4998                   0000000180322338     CCXExtUI.res
 0005:002ecbd8       $R2D5238                   0000000180322bd8     CCXExtUI.res
 0005:002ed370       $R2D59D0                   0000000180323370     CCXExtUI.res
 0005:002ed9c8       $R2D6028                   00000001803239c8     CCXExtUI.res
 0005:002edd20       $R2D6380                   0000000180323d20     CCXExtUI.res
 0005:002ee5c0       $R2D6C20                   00000001803245c0     CCXExtUI.res
 0005:002ee928       $R2D6F88                   0000000180324928     CCXExtUI.res
 0005:002eed10       $R2D7370                   0000000180324d10     CCXExtUI.res
 0005:002ef050       $R2D76B0                   0000000180325050     CCXExtUI.res
 0005:002ef410       $R2D7A70                   0000000180325410     CCXExtUI.res
 0005:002efd40       $R2D83A0                   0000000180325d40     CCXExtUI.res
 0005:002f0248       $R2D88A8                   0000000180326248     CCXExtUI.res
 0005:002f0530       $R2D8B90                   0000000180326530     CCXExtUI.res
 0005:002f0ae0       $R2D9140                   0000000180326ae0     CCXExtUI.res
 0005:002f0fb0       $R2D9610                   0000000180326fb0     CCXExtUI.res
 0005:002f16a8       $R2D9D08                   00000001803276a8     CCXExtUI.res
 0005:002f1ba0       $R2DA200                   0000000180327ba0     CCXExtUI.res
 0005:002f2090       $R2DA6F0                   0000000180328090     CCXExtUI.res
 0005:002f24b0       $R2DAB10                   00000001803284b0     CCXExtUI.res
 0005:002f28f0       $R2DAF50                   00000001803288f0     CCXExtUI.res
 0005:002f2d28       $R2DB388                   0000000180328d28     CCXExtUI.res
 0005:002f2f70       $R2DB5D0                   0000000180328f70     CCXExtUI.res
 0005:002f3260       $R2DB8C0                   0000000180329260     CCXExtUI.res
 0005:002f36b0       $R2DBD10                   00000001803296b0     CCXExtUI.res
 0005:002f3a50       $R2DC0B0                   0000000180329a50     CCXExtUI.res
 0005:002f3c48       $R2DC2A8                   0000000180329c48     CCXExtUI.res
 0005:002f4048       $R2DC6A8                   000000018032a048     CCXExtUI.res
 0005:002f4988       $R2DCFE8                   000000018032a988     CCXExtUI.res
 0005:002f5608       $R2DDC68                   000000018032b608     CCXExtUI.res
 0005:002f5ba8       $R2DE208                   000000018032bba8     CCXExtUI.res
 0005:002f6518       $R2DEB78                   000000018032c518     CCXExtUI.res
 0005:002f6b10       $R2DF170                   000000018032cb10     CCXExtUI.res
 0005:002f7118       $R2DF778                   000000018032d118     CCXExtUI.res
 0005:002f7600       $R2DFC60                   000000018032d600     CCXExtUI.res
 0005:002f7f40       $R2E05A0                   000000018032df40     CCXExtUI.res
 0005:002f8980       $R2E0FE0                   000000018032e980     CCXExtUI.res
 0005:002f8da0       $R2E1400                   000000018032eda0     CCXExtUI.res
 0005:002f9370       $R2E19D0                   000000018032f370     CCXExtUI.res
 0005:002f98c0       $R2E1F20                   000000018032f8c0     CCXExtUI.res
 0005:002fa060       $R2E26C0                   0000000180330060     CCXExtUI.res
 0005:002fa858       $R2E2EB8                   0000000180330858     CCXExtUI.res
 0005:002fadf8       $R2E3458                   0000000180330df8     CCXExtUI.res
 0005:002fb500       $R2E3B60                   0000000180331500     CCXExtUI.res
 0005:002fba48       $R2E40A8                   0000000180331a48     CCXExtUI.res
 0005:002fbef0       $R2E4550                   0000000180331ef0     CCXExtUI.res
 0005:002fc500       $R2E4B60                   0000000180332500     CCXExtUI.res
 0005:002fcb08       $R2E5168                   0000000180332b08     CCXExtUI.res
 0005:002fd140       $R2E57A0                   0000000180333140     CCXExtUI.res
 0005:002fd530       $R2E5B90                   0000000180333530     CCXExtUI.res
 0005:002fd5d8       $R2E5C38                   00000001803335d8     CCXExtUI.res
 0005:002fd720       $R2E5D80                   0000000180333720     CCXExtUI.res
 0005:002fd888       $R2E5EE8                   0000000180333888     CCXExtUI.res
 0005:002fd9e8       $R2E6048                   00000001803339e8     CCXExtUI.res
 0005:002fdb40       $R2E61A0                   0000000180333b40     CCXExtUI.res
 0005:002fdcf0       $R2E6350                   0000000180333cf0     CCXExtUI.res
 0005:002fde38       $R2E6498                   0000000180333e38     CCXExtUI.res
 0005:002fdf40       $R2E65A0                   0000000180333f40     CCXExtUI.res
 0005:002fe098       $R2E66F8                   0000000180334098     CCXExtUI.res
 0005:002fe1c8       $R2E6828                   00000001803341c8     CCXExtUI.res
 0005:002fe340       $R2E69A0                   0000000180334340     CCXExtUI.res
 0005:002fe470       $R2E6AD0                   0000000180334470     CCXExtUI.res
 0005:002fe630       $R2E6C90                   0000000180334630     CCXExtUI.res
 0005:002fe7f0       $R2E6E50                   00000001803347f0     CCXExtUI.res
 0005:002fe988       $R2E6FE8                   0000000180334988     CCXExtUI.res
 0005:002feb20       $R2E7180                   0000000180334b20     CCXExtUI.res
 0005:002feb70       $R2E71D0                   0000000180334b70     CCXExtUI.res
 0005:002ff170       $R2E77D0                   0000000180335170     CCXExtUI.res
 0005:002ff4f0       $R2E7B50                   00000001803354f0     CCXExtUI.res
 0005:002ff7c8       $R2E7E28                   00000001803357c8     CCXExtUI.res
 0005:002ffa70       $R2E80D0                   0000000180335a70     CCXExtUI.res
 0005:002fff60       $R2E85C0                   0000000180335f60     CCXExtUI.res
 0005:003004b0       $R2E8B10                   00000001803364b0     CCXExtUI.res
 0005:00300820       $R2E8E80                   0000000180336820     CCXExtUI.res
 0005:00300e38       $R2E9498                   0000000180336e38     CCXExtUI.res
 0005:003018a0       $R2E9F00                   00000001803378a0     CCXExtUI.res
 0005:00301ce0       $R2EA340                   0000000180337ce0     CCXExtUI.res
 0005:00302438       $R2EAA98                   0000000180338438     CCXExtUI.res
 0005:00302818       $R2EAE78                   0000000180338818     CCXExtUI.res
 0005:00302cb8       $R2EB318                   0000000180338cb8     CCXExtUI.res
 0005:00303290       $R2EB8F0                   0000000180339290     CCXExtUI.res
 0005:003034f0       $R2EBB50                   00000001803394f0     CCXExtUI.res
 0005:00303b78       $R2EC1D8                   0000000180339b78     CCXExtUI.res
 0005:00303cd8       $R2EC338                   0000000180339cd8     CCXExtUI.res
 0005:00304248       $R2EC8A8                   000000018033a248     CCXExtUI.res
 0005:00304450       $R2ECAB0                   000000018033a450     CCXExtUI.res
 0005:00304650       $R2ECCB0                   000000018033a650     CCXExtUI.res
 0005:00304b00       $R2ED160                   000000018033ab00     CCXExtUI.res
 0005:00305020       $R2ED680                   000000018033b020     CCXExtUI.res
 0005:00305520       $R2EDB80                   000000018033b520     CCXExtUI.res
 0005:003058a0       $R2EDF00                   000000018033b8a0     CCXExtUI.res
 0005:003060b0       $R2EE710                   000000018033c0b0     CCXExtUI.res
 0005:003067d8       $R2EEE38                   000000018033c7d8     CCXExtUI.res
 0005:00306e50       $R2EF4B0                   000000018033ce50     CCXExtUI.res
 0005:003071b8       $R2EF818                   000000018033d1b8     CCXExtUI.res
 0005:003079e0       $R2F0040                   000000018033d9e0     CCXExtUI.res
 0005:00307cd0       $R2F0330                   000000018033dcd0     CCXExtUI.res
 0005:00308080       $R2F06E0                   000000018033e080     CCXExtUI.res
 0005:00308330       $R2F0990                   000000018033e330     CCXExtUI.res
 0005:00308638       $R2F0C98                   000000018033e638     CCXExtUI.res
 0005:00308f00       $R2F1560                   000000018033ef00     CCXExtUI.res
 0005:00309438       $R2F1A98                   000000018033f438     CCXExtUI.res
 0005:003096f0       $R2F1D50                   000000018033f6f0     CCXExtUI.res
 0005:00309c18       $R2F2278                   000000018033fc18     CCXExtUI.res
 0005:0030a038       $R2F2698                   0000000180340038     CCXExtUI.res
 0005:0030a6d0       $R2F2D30                   00000001803406d0     CCXExtUI.res
 0005:0030ab20       $R2F3180                   0000000180340b20     CCXExtUI.res
 0005:0030af68       $R2F35C8                   0000000180340f68     CCXExtUI.res
 0005:0030b3b8       $R2F3A18                   00000001803413b8     CCXExtUI.res
 0005:0030b7b8       $R2F3E18                   00000001803417b8     CCXExtUI.res
 0005:0030bb90       $R2F41F0                   0000000180341b90     CCXExtUI.res
 0005:0030bd30       $R2F4390                   0000000180341d30     CCXExtUI.res
 0005:0030bf98       $R2F45F8                   0000000180341f98     CCXExtUI.res
 0005:0030c2f8       $R2F4958                   00000001803422f8     CCXExtUI.res
 0005:0030c5e0       $R2F4C40                   00000001803425e0     CCXExtUI.res
 0005:0030c760       $R2F4DC0                   0000000180342760     CCXExtUI.res
 0005:0030cb20       $R2F5180                   0000000180342b20     CCXExtUI.res
 0005:0030d410       $R2F5A70                   0000000180343410     CCXExtUI.res
 0005:0030df90       $R2F65F0                   0000000180343f90     CCXExtUI.res
 0005:0030e418       $R2F6A78                   0000000180344418     CCXExtUI.res
 0005:0030ec68       $R2F72C8                   0000000180344c68     CCXExtUI.res
 0005:0030f1d0       $R2F7830                   00000001803451d0     CCXExtUI.res
 0005:0030f710       $R2F7D70                   0000000180345710     CCXExtUI.res
 0005:0030fb58       $R2F81B8                   0000000180345b58     CCXExtUI.res
 0005:00310300       $R2F8960                   0000000180346300     CCXExtUI.res
 0005:00310c00       $R2F9260                   0000000180346c00     CCXExtUI.res
 0005:00310f08       $R2F9568                   0000000180346f08     CCXExtUI.res
 0005:003113d8       $R2F9A38                   00000001803473d8     CCXExtUI.res
 0005:00311810       $R2F9E70                   0000000180347810     CCXExtUI.res
 0005:00311e80       $R2FA4E0                   0000000180347e80     CCXExtUI.res
 0005:00312508       $R2FAB68                   0000000180348508     CCXExtUI.res
 0005:00312a80       $R2FB0E0                   0000000180348a80     CCXExtUI.res
 0005:003131c0       $R2FB820                   00000001803491c0     CCXExtUI.res
 0005:00313688       $R2FBCE8                   0000000180349688     CCXExtUI.res
 0005:00313b90       $R2FC1F0                   0000000180349b90     CCXExtUI.res
 0005:00314118       $R2FC778                   000000018034a118     CCXExtUI.res
 0005:00314708       $R2FCD68                   000000018034a708     CCXExtUI.res
 0005:00314d20       $R2FD380                   000000018034ad20     CCXExtUI.res
 0005:003150c8       $R2FD728                   000000018034b0c8     CCXExtUI.res
 0005:00315150       $R2FD7B0                   000000018034b150     CCXExtUI.res
 0005:003152a8       $R2FD908                   000000018034b2a8     CCXExtUI.res
 0005:003153f0       $R2FDA50                   000000018034b3f0     CCXExtUI.res
 0005:00315540       $R2FDBA0                   000000018034b540     CCXExtUI.res
 0005:00315678       $R2FDCD8                   000000018034b678     CCXExtUI.res
 0005:003157e0       $R2FDE40                   000000018034b7e0     CCXExtUI.res
 0005:00315918       $R2FDF78                   000000018034b918     CCXExtUI.res
 0005:00315a10       $R2FE070                   000000018034ba10     CCXExtUI.res
 0005:00315b60       $R2FE1C0                   000000018034bb60     CCXExtUI.res
 0005:00315ca8       $R2FE308                   000000018034bca8     CCXExtUI.res
 0005:00315df0       $R2FE450                   000000018034bdf0     CCXExtUI.res
 0005:00315f10       $R2FE570                   000000018034bf10     CCXExtUI.res
 0005:003160b0       $R2FE710                   000000018034c0b0     CCXExtUI.res
 0005:00316250       $R2FE8B0                   000000018034c250     CCXExtUI.res
 0005:003163e8       $R2FEA48                   000000018034c3e8     CCXExtUI.res
 0005:00316588       $R2FEBE8                   000000018034c588     CCXExtUI.res
 0005:003165e0       $R2FEC40                   000000018034c5e0     CCXExtUI.res
 0005:00316a68       $R2FF0C8                   000000018034ca68     CCXExtUI.res
 0005:00316d88       $R2FF3E8                   000000018034cd88     CCXExtUI.res
 0005:00317018       $R2FF678                   000000018034d018     CCXExtUI.res
 0005:003172d0       $R2FF930                   000000018034d2d0     CCXExtUI.res
 0005:003176c0       $R2FFD20                   000000018034d6c0     CCXExtUI.res
 0005:00317b28       $R300188                   000000018034db28     CCXExtUI.res
 0005:00317e78       $R3004D8                   000000018034de78     CCXExtUI.res
 0005:003183b8       $R300A18                   000000018034e3b8     CCXExtUI.res
 0005:00318ab8       $R301118                   000000018034eab8     CCXExtUI.res
 0005:00318e88       $R3014E8                   000000018034ee88     CCXExtUI.res
 0005:003193d0       $R301A30                   000000018034f3d0     CCXExtUI.res
 0005:00319850       $R301EB0                   000000018034f850     CCXExtUI.res
 0005:00319ca8       $R302308                   000000018034fca8     CCXExtUI.res
 0005:0031a1e0       $R302840                   00000001803501e0     CCXExtUI.res
 0005:0031a448       $R302AA8                   0000000180350448     CCXExtUI.res
 0005:0031a9c8       $R303028                   00000001803509c8     CCXExtUI.res
 0005:0031ab58       $R3031B8                   0000000180350b58     CCXExtUI.res
 0005:0031b0b8       $R303718                   00000001803510b8     CCXExtUI.res
 0005:0031b2c8       $R303928                   00000001803512c8     CCXExtUI.res
 0005:0031b470       $R303AD0                   0000000180351470     CCXExtUI.res
 0005:0031b8a8       $R303F08                   00000001803518a8     CCXExtUI.res
 0005:0031bd60       $R3043C0                   0000000180351d60     CCXExtUI.res
 0005:0031c218       $R304878                   0000000180352218     CCXExtUI.res
 0005:0031c508       $R304B68                   0000000180352508     CCXExtUI.res
 0005:0031cba8       $R305208                   0000000180352ba8     CCXExtUI.res
 0005:0031d1c8       $R305828                   00000001803531c8     CCXExtUI.res
 0005:0031d7d8       $R305E38                   00000001803537d8     CCXExtUI.res
 0005:0031dac8       $R306128                   0000000180353ac8     CCXExtUI.res
 0005:0031e278       $R3068D8                   0000000180354278     CCXExtUI.res
 0005:0031e578       $R306BD8                   0000000180354578     CCXExtUI.res
 0005:0031e8c0       $R306F20                   00000001803548c0     CCXExtUI.res
 0005:0031eb58       $R3071B8                   0000000180354b58     CCXExtUI.res
 0005:0031ee60       $R3074C0                   0000000180354e60     CCXExtUI.res
 0005:0031f610       $R307C70                   0000000180355610     CCXExtUI.res
 0005:0031fa78       $R3080D8                   0000000180355a78     CCXExtUI.res
 0005:0031fd10       $R308370                   0000000180355d10     CCXExtUI.res
 0005:003201c0       $R308820                   00000001803561c0     CCXExtUI.res
 0005:00320620       $R308C80                   0000000180356620     CCXExtUI.res
 0005:00320c38       $R309298                   0000000180356c38     CCXExtUI.res
 0005:00320ff8       $R309658                   0000000180356ff8     CCXExtUI.res
 0005:003213c8       $R309A28                   00000001803573c8     CCXExtUI.res
 0005:00321758       $R309DB8                   0000000180357758     CCXExtUI.res
 0005:00321ad0       $R30A130                   0000000180357ad0     CCXExtUI.res
 0005:00321e10       $R30A470                   0000000180357e10     CCXExtUI.res
 0005:00321f90       $R30A5F0                   0000000180357f90     CCXExtUI.res
 0005:003221b0       $R30A810                   00000001803581b0     CCXExtUI.res
 0005:00322508       $R30AB68                   0000000180358508     CCXExtUI.res
 0005:00322800       $R30AE60                   0000000180358800     CCXExtUI.res
 0005:003229b8       $R30B018                   00000001803589b8     CCXExtUI.res
 0005:00322c88       $R30B2E8                   0000000180358c88     CCXExtUI.res
 0005:00323490       $R30BAF0                   0000000180359490     CCXExtUI.res
 0005:00323f08       $R30C568                   0000000180359f08     CCXExtUI.res
 0005:003243a0       $R30CA00                   000000018035a3a0     CCXExtUI.res
 0005:00324bf0       $R30D250                   000000018035abf0     CCXExtUI.res
 0005:003250e8       $R30D748                   000000018035b0e8     CCXExtUI.res
 0005:00325588       $R30DBE8                   000000018035b588     CCXExtUI.res
 0005:00325988       $R30DFE8                   000000018035b988     CCXExtUI.res
 0005:003260b8       $R30E718                   000000018035c0b8     CCXExtUI.res
 0005:003268a8       $R30EF08                   000000018035c8a8     CCXExtUI.res
 0005:00326c00       $R30F260                   000000018035cc00     CCXExtUI.res
 0005:003270a8       $R30F708                   000000018035d0a8     CCXExtUI.res
 0005:00327480       $R30FAE0                   000000018035d480     CCXExtUI.res
 0005:003279d8       $R310038                   000000018035d9d8     CCXExtUI.res
 0005:00327f60       $R3105C0                   000000018035df60     CCXExtUI.res
 0005:00328368       $R3109C8                   000000018035e368     CCXExtUI.res
 0005:00328980       $R310FE0                   000000018035e980     CCXExtUI.res
 0005:00328d78       $R3113D8                   000000018035ed78     CCXExtUI.res
 0005:003291e0       $R311840                   000000018035f1e0     CCXExtUI.res
 0005:00329740       $R311DA0                   000000018035f740     CCXExtUI.res
 0005:00329c18       $R312278                   000000018035fc18     CCXExtUI.res
 0005:0032a130       $R312790                   0000000180360130     CCXExtUI.res
 0005:0032a4b8       $R312B18                   00000001803604b8     CCXExtUI.res
 0005:0032a548       $R312BA8                   0000000180360548     CCXExtUI.res
 0005:0032a6b0       $R312D10                   00000001803606b0     CCXExtUI.res
 0005:0032a808       $R312E68                   0000000180360808     CCXExtUI.res
 0005:0032a958       $R312FB8                   0000000180360958     CCXExtUI.res
 0005:0032aaa8       $R313108                   0000000180360aa8     CCXExtUI.res
 0005:0032ac40       $R3132A0                   0000000180360c40     CCXExtUI.res
 0005:0032ad88       $R3133E8                   0000000180360d88     CCXExtUI.res
 0005:0032ae88       $R3134E8                   0000000180360e88     CCXExtUI.res
 0005:0032afc0       $R313620                   0000000180360fc0     CCXExtUI.res
 0005:0032b0f8       $R313758                   00000001803610f8     CCXExtUI.res
 0005:0032b268       $R3138C8                   0000000180361268     CCXExtUI.res
 0005:0032b3a0       $R313A00                   00000001803613a0     CCXExtUI.res
 0005:0032b650       $R313CB0                   0000000180361650     CCXExtUI.res
 0005:0032b7e8       $R313E48                   00000001803617e8     CCXExtUI.res
 0005:0032b998       $R313FF8                   0000000180361998     CCXExtUI.res
 0005:0032bb28       $R314188                   0000000180361b28     CCXExtUI.res
 0005:0032bb78       $R3141D8                   0000000180361b78     CCXExtUI.res
 0005:0032c0d8       $R314738                   00000001803620d8     CCXExtUI.res
 0005:0032c400       $R314A60                   0000000180362400     CCXExtUI.res
 0005:0032c620       $R314C80                   0000000180362620     CCXExtUI.res
 0005:0032c8a8       $R314F08                   00000001803628a8     CCXExtUI.res
 0005:0032ccd0       $R315330                   0000000180362cd0     CCXExtUI.res
 0005:0032d160       $R3157C0                   0000000180363160     CCXExtUI.res
 0005:0032d488       $R315AE8                   0000000180363488     CCXExtUI.res
 0005:0032d9d0       $R316030                   00000001803639d0     CCXExtUI.res
 0005:0032e1f8       $R316858                   00000001803641f8     CCXExtUI.res
 0005:0032e5c8       $R316C28                   00000001803645c8     CCXExtUI.res
 0005:0032eb18       $R317178                   0000000180364b18     CCXExtUI.res
 0005:0032efa0       $R317600                   0000000180364fa0     CCXExtUI.res
 0005:0032f410       $R317A70                   0000000180365410     CCXExtUI.res
 0005:0032f918       $R317F78                   0000000180365918     CCXExtUI.res
 0005:0032fb70       $R3181D0                   0000000180365b70     CCXExtUI.res
 0005:00330138       $R318798                   0000000180366138     CCXExtUI.res
 0005:00330288       $R3188E8                   0000000180366288     CCXExtUI.res
 0005:00330828       $R318E88                   0000000180366828     CCXExtUI.res
 0005:00330a50       $R3190B0                   0000000180366a50     CCXExtUI.res
 0005:00330bd8       $R319238                   0000000180366bd8     CCXExtUI.res
 0005:00331058       $R3196B8                   0000000180367058     CCXExtUI.res
 0005:003314f8       $R319B58                   00000001803674f8     CCXExtUI.res
 0005:003319a0       $R31A000                   00000001803679a0     CCXExtUI.res
 0005:00331c88       $R31A2E8                   0000000180367c88     CCXExtUI.res
 0005:003323f8       $R31AA58                   00000001803683f8     CCXExtUI.res
 0005:00332a40       $R31B0A0                   0000000180368a40     CCXExtUI.res
 0005:00332fb8       $R31B618                   0000000180368fb8     CCXExtUI.res
 0005:00333288       $R31B8E8                   0000000180369288     CCXExtUI.res
 0005:00333a20       $R31C080                   0000000180369a20     CCXExtUI.res
 0005:00333d08       $R31C368                   0000000180369d08     CCXExtUI.res
 0005:00334018       $R31C678                   000000018036a018     CCXExtUI.res
 0005:00334290       $R31C8F0                   000000018036a290     CCXExtUI.res
 0005:00334578       $R31CBD8                   000000018036a578     CCXExtUI.res
 0005:00334dd0       $R31D430                   000000018036add0     CCXExtUI.res
 0005:003352e0       $R31D940                   000000018036b2e0     CCXExtUI.res
 0005:003355d0       $R31DC30                   000000018036b5d0     CCXExtUI.res
 0005:00335b08       $R31E168                   000000018036bb08     CCXExtUI.res
 0005:00335fb0       $R31E610                   000000018036bfb0     CCXExtUI.res
 0005:003365b0       $R31EC10                   000000018036c5b0     CCXExtUI.res
 0005:00336970       $R31EFD0                   000000018036c970     CCXExtUI.res
 0005:00336df8       $R31F458                   000000018036cdf8     CCXExtUI.res
 0005:003371c8       $R31F828                   000000018036d1c8     CCXExtUI.res
 0005:003375a8       $R31FC08                   000000018036d5a8     CCXExtUI.res
 0005:00337988       $R31FFE8                   000000018036d988     CCXExtUI.res
 0005:00337b50       $R3201B0                   000000018036db50     CCXExtUI.res
 0005:00337db0       $R320410                   000000018036ddb0     CCXExtUI.res
 0005:00338188       $R3207E8                   000000018036e188     CCXExtUI.res
 0005:00338490       $R320AF0                   000000018036e490     CCXExtUI.res
 0005:00338668       $R320CC8                   000000018036e668     CCXExtUI.res
 0005:00338a30       $R321090                   000000018036ea30     CCXExtUI.res
 0005:00339190       $R3217F0                   000000018036f190     CCXExtUI.res
 0005:00339b70       $R3221D0                   000000018036fb70     CCXExtUI.res
 0005:0033a030       $R322690                   0000000180370030     CCXExtUI.res
 0005:0033a9e0       $R323040                   00000001803709e0     CCXExtUI.res
 0005:0033af48       $R3235A8                   0000000180370f48     CCXExtUI.res
 0005:0033b480       $R323AE0                   0000000180371480     CCXExtUI.res
 0005:0033b870       $R323ED0                   0000000180371870     CCXExtUI.res
 0005:0033bf88       $R3245E8                   0000000180371f88     CCXExtUI.res
 0005:0033c800       $R324E60                   0000000180372800     CCXExtUI.res
 0005:0033cb70       $R3251D0                   0000000180372b70     CCXExtUI.res
 0005:0033d068       $R3256C8                   0000000180373068     CCXExtUI.res
 0005:0033d428       $R325A88                   0000000180373428     CCXExtUI.res
 0005:0033d9d8       $R326038                   00000001803739d8     CCXExtUI.res
 0005:0033e028       $R326688                   0000000180374028     CCXExtUI.res
 0005:0033e518       $R326B78                   0000000180374518     CCXExtUI.res
 0005:0033ec58       $R3272B8                   0000000180374c58     CCXExtUI.res
 0005:0033f0b8       $R327718                   00000001803750b8     CCXExtUI.res
 0005:0033f548       $R327BA8                   0000000180375548     CCXExtUI.res
 0005:0033fb60       $R3281C0                   0000000180375b60     CCXExtUI.res
 0005:00340170       $R3287D0                   0000000180376170     CCXExtUI.res
 0005:00340740       $R328DA0                   0000000180376740     CCXExtUI.res
 0005:00340b18       $R329178                   0000000180376b18     CCXExtUI.res
 0005:00340ba8       $R329208                   0000000180376ba8     CCXExtUI.res
 0005:00340cf8       $R329358                   0000000180376cf8     CCXExtUI.res
 0005:00340e28       $R329488                   0000000180376e28     CCXExtUI.res
 0005:00340f90       $R3295F0                   0000000180376f90     CCXExtUI.res
 0005:00341118       $R329778                   0000000180377118     CCXExtUI.res
 0005:003412e0       $R329940                   00000001803772e0     CCXExtUI.res
 0005:00341430       $R329A90                   0000000180377430     CCXExtUI.res
 0005:00341530       $R329B90                   0000000180377530     CCXExtUI.res
 0005:00341688       $R329CE8                   0000000180377688     CCXExtUI.res
 0005:003417a8       $R329E08                   00000001803777a8     CCXExtUI.res
 0005:003418f8       $R329F58                   00000001803778f8     CCXExtUI.res
 0005:00341a20       $R32A080                   0000000180377a20     CCXExtUI.res
 0005:00341bd8       $R32A238                   0000000180377bd8     CCXExtUI.res
 0005:00341d50       $R32A3B0                   0000000180377d50     CCXExtUI.res
 0005:00341f00       $R32A560                   0000000180377f00     CCXExtUI.res
 0005:00342070       $R32A6D0                   0000000180378070     CCXExtUI.res
 0005:003420c8       $R32A728                   00000001803780c8     CCXExtUI.res
 0005:003421f8       $R32A858                   00000001803781f8     CCXExtUI.res
 0005:003426c0       $R32AD20                   00000001803786c0     CCXExtUI.res
 0005:003429f8       $R32B058                   00000001803789f8     CCXExtUI.res
 0005:00342cd0       $R32B330                   0000000180378cd0     CCXExtUI.res
 0005:00342ea0       $R32B500                   0000000180378ea0     CCXExtUI.res
 0005:00342fc0       $R32B620                   0000000180378fc0     CCXExtUI.res
 0005:00343478       $R32BAD8                   0000000180379478     CCXExtUI.res
 0005:00343820       $R32BE80                   0000000180379820     CCXExtUI.res
 0005:00343b30       $R32C190                   0000000180379b30     CCXExtUI.res
 0005:00343cf8       $R32C358                   0000000180379cf8     CCXExtUI.res
 0005:00343e18       $R32C478                   0000000180379e18     CCXExtUI.res
 0005:00344300       $R32C960                   000000018037a300     CCXExtUI.res
 0005:00344718       $R32CD78                   000000018037a718     CCXExtUI.res
 0005:00344a90       $R32D0F0                   000000018037aa90     CCXExtUI.res
 0005:00344c68       $R32D2C8                   000000018037ac68     CCXExtUI.res
 0005:00344d40       $R32D3A0                   000000018037ad40     CCXExtUI.res
 0005:00345058       $R32D6B8                   000000018037b058     CCXExtUI.res
 0005:00345200       $R32D860                   000000018037b200     CCXExtUI.res
 0005:00345438       $R32DA98                   000000018037b438     CCXExtUI.res
 0005:003455c0       $R32DC20                   000000018037b5c0     CCXExtUI.res
 0005:00345688       $R32DCE8                   000000018037b688     CCXExtUI.res
 0005:00345978       $R32DFD8                   000000018037b978     CCXExtUI.res
 0005:00345b18       $R32E178                   000000018037bb18     CCXExtUI.res
 0005:00345d40       $R32E3A0                   000000018037bd40     CCXExtUI.res
 0005:00345ed8       $R32E538                   000000018037bed8     CCXExtUI.res
 0005:00346018       $R32E678                   000000018037c018     CCXExtUI.res
 0005:003464f8       $R32EB58                   000000018037c4f8     CCXExtUI.res
 0005:003468b8       $R32EF18                   000000018037c8b8     CCXExtUI.res
 0005:00346bf0       $R32F250                   000000018037cbf0     CCXExtUI.res
 0005:00346e28       $R32F488                   000000018037ce28     CCXExtUI.res
 0005:00346f38       $R32F598                   000000018037cf38     CCXExtUI.res
 0005:003473d8       $R32FA38                   000000018037d3d8     CCXExtUI.res
 0005:003477c0       $R32FE20                   000000018037d7c0     CCXExtUI.res
 0005:00347af0       $R330150                   000000018037daf0     CCXExtUI.res
 0005:00347ce0       $R330340                   000000018037dce0     CCXExtUI.res
 0005:00347df8       $R330458                   000000018037ddf8     CCXExtUI.res
 0005:00348280       $R3308E0                   000000018037e280     CCXExtUI.res
 0005:003485f8       $R330C58                   000000018037e5f8     CCXExtUI.res
 0005:003488e0       $R330F40                   000000018037e8e0     CCXExtUI.res
 0005:00348aa8       $R331108                   000000018037eaa8     CCXExtUI.res
 0005:00348be8       $R331248                   000000018037ebe8     CCXExtUI.res
 0005:003490a0       $R331700                   000000018037f0a0     CCXExtUI.res
 0005:00349440       $R331AA0                   000000018037f440     CCXExtUI.res
 0005:00349778       $R331DD8                   000000018037f778     CCXExtUI.res
 0005:00349960       $R331FC0                   000000018037f960     CCXExtUI.res
 0005:00349a78       $R3320D8                   000000018037fa78     CCXExtUI.res
 0005:00349f10       $R332570                   000000018037ff10     CCXExtUI.res
 0005:0034a250       $R3328B0                   0000000180380250     CCXExtUI.res
 0005:0034a518       $R332B78                   0000000180380518     CCXExtUI.res
 0005:0034a6e8       $R332D48                   00000001803806e8     CCXExtUI.res
 0005:0034ab88       $R3331E8                   0000000180380b88     CCXExtUI.res
 0005:0034ad30       $R333390                   0000000180380d30     CCXExtUI.res
 0005:0034af18       $R333578                   0000000180380f18     CCXExtUI.res
 0005:0034b1a0       $R333800                   00000001803811a0     CCXExtUI.res
 0005:0034b488       $R333AE8                   0000000180381488     CCXExtUI.res
 0005:0034b598       $R333BF8                   0000000180381598     CCXExtUI.res
 0005:0034ba18       $R334078                   0000000180381a18     CCXExtUI.res
 0005:0034be10       $R334470                   0000000180381e10     CCXExtUI.res
 0005:0034c0d0       $R334730                   00000001803820d0     CCXExtUI.res
 0005:0034c298       $R3348F8                   0000000180382298     CCXExtUI.res
 0005:0034c3b0       $R334A10                   00000001803823b0     CCXExtUI.res
 0005:0034c870       $R334ED0                   0000000180382870     CCXExtUI.res
 0005:0034cbb8       $R335218                   0000000180382bb8     CCXExtUI.res
 0005:0034ceb8       $R335518                   0000000180382eb8     CCXExtUI.res
 0005:0034d090       $R3356F0                   0000000180383090     CCXExtUI.res
 0005:0034d1a0       $R335800                   00000001803831a0     CCXExtUI.res
 0005:0034d678       $R335CD8                   0000000180383678     CCXExtUI.res
 0005:0034da20       $R336080                   0000000180383a20     CCXExtUI.res
 0005:0034dd68       $R3363C8                   0000000180383d68     CCXExtUI.res
 0005:0034df30       $R336590                   0000000180383f30     CCXExtUI.res
 0005:0034e050       $R3366B0                   0000000180384050     CCXExtUI.res
 0005:0034e510       $R336B70                   0000000180384510     CCXExtUI.res
 0005:0034e898       $R336EF8                   0000000180384898     CCXExtUI.res
 0005:0034ebb8       $R337218                   0000000180384bb8     CCXExtUI.res
 0005:0034ed88       $R3373E8                   0000000180384d88     CCXExtUI.res
 0005:0034ef00       $R337560                   0000000180384f00     CCXExtUI.res
 0005:0034f438       $R337A98                   0000000180385438     CCXExtUI.res
 0005:0034f8a8       $R337F08                   00000001803858a8     CCXExtUI.res
 0005:0034fc30       $R338290                   0000000180385c30     CCXExtUI.res
 0005:0034fe40       $R3384A0                   0000000180385e40     CCXExtUI.res
 0005:0034ff50       $R3385B0                   0000000180385f50     CCXExtUI.res
 0005:00350368       $R3389C8                   0000000180386368     CCXExtUI.res
 0005:00350678       $R338CD8                   0000000180386678     CCXExtUI.res
 0005:00350960       $R338FC0                   0000000180386960     CCXExtUI.res
 0005:00350b38       $R339198                   0000000180386b38     CCXExtUI.res
 0005:00350c78       $R3392D8                   0000000180386c78     CCXExtUI.res
 0005:00351168       $R3397C8                   0000000180387168     CCXExtUI.res
 0005:00351570       $R339BD0                   0000000180387570     CCXExtUI.res
 0005:003518b0       $R339F10                   00000001803878b0     CCXExtUI.res
 0005:00351ab8       $R33A118                   0000000180387ab8     CCXExtUI.res
 0005:00351bc8       $R33A228                   0000000180387bc8     CCXExtUI.res
 0005:003520b0       $R33A710                   00000001803880b0     CCXExtUI.res
 0005:00352440       $R33AAA0                   0000000180388440     CCXExtUI.res
 0005:00352738       $R33AD98                   0000000180388738     CCXExtUI.res
 0005:00352920       $R33AF80                   0000000180388920     CCXExtUI.res
 0005:00352a20       $R33B080                   0000000180388a20     CCXExtUI.res
 0005:00352e10       $R33B470                   0000000180388e10     CCXExtUI.res
 0005:00353010       $R33B670                   0000000180389010     CCXExtUI.res
 0005:00353290       $R33B8F0                   0000000180389290     CCXExtUI.res
 0005:00353438       $R33BA98                   0000000180389438     CCXExtUI.res
 0005:00353520       $R33BB80                   0000000180389520     CCXExtUI.res
 0005:00353898       $R33BEF8                   0000000180389898     CCXExtUI.res
 0005:00353ad0       $R33C130                   0000000180389ad0     CCXExtUI.res
 0005:00353d28       $R33C388                   0000000180389d28     CCXExtUI.res
 0005:00353eb8       $R33C518                   0000000180389eb8     CCXExtUI.res
 0005:00353fe0       $R33C640                   0000000180389fe0     CCXExtUI.res
 0005:00354490       $R33CAF0                   000000018038a490     CCXExtUI.res
 0005:00354838       $R33CE98                   000000018038a838     CCXExtUI.res
 0005:00354b40       $R33D1A0                   000000018038ab40     CCXExtUI.res
 0005:00354d10       $R33D370                   000000018038ad10     CCXExtUI.res
 0005:00354e38       $R33D498                   000000018038ae38     CCXExtUI.res
 0005:00355338       $R33D998                   000000018038b338     CCXExtUI.res
 0005:00355710       $R33DD70                   000000018038b710     CCXExtUI.res
 0005:00355a50       $R33E0B0                   000000018038ba50     CCXExtUI.res
 0005:00355c58       $R33E2B8                   000000018038bc58     CCXExtUI.res
 0005:00355d80       $R33E3E0                   000000018038bd80     CCXExtUI.res
 0005:00356220       $R33E880                   000000018038c220     CCXExtUI.res
 0005:003565a0       $R33EC00                   000000018038c5a0     CCXExtUI.res
 0005:00356890       $R33EEF0                   000000018038c890     CCXExtUI.res
 0005:00356a50       $R33F0B0                   000000018038ca50     CCXExtUI.res
 0005:00356b78       $R33F1D8                   000000018038cb78     CCXExtUI.res
 0005:00357040       $R33F6A0                   000000018038d040     CCXExtUI.res
 0005:00357440       $R33FAA0                   000000018038d440     CCXExtUI.res
 0005:003577d0       $R33FE30                   000000018038d7d0     CCXExtUI.res
 0005:003579c0       $R340020                   000000018038d9c0     CCXExtUI.res
 0005:00357ad0       $R340130                   000000018038dad0     CCXExtUI.res
 0005:00357f70       $R3405D0                   000000018038df70     CCXExtUI.res
 0005:00358328       $R340988                   000000018038e328     CCXExtUI.res
 0005:00358640       $R340CA0                   000000018038e640     CCXExtUI.res
 0005:00358808       $R340E68                   000000018038e808     CCXExtUI.res
 0005:00358948       $R340FA8                   000000018038e948     CCXExtUI.res
 0005:00358e58       $R3414B8                   000000018038ee58     CCXExtUI.res
 0005:00359248       $R3418A8                   000000018038f248     CCXExtUI.res
 0005:00359560       $R341BC0                   000000018038f560     CCXExtUI.res
 0005:00359740       $R341DA0                   000000018038f740     CCXExtUI.res
 0005:00359858       $R341EB8                   000000018038f858     CCXExtUI.res
 0005:00359d50       $R3423B0                   000000018038fd50     CCXExtUI.res
 0005:0035a140       $R3427A0                   0000000180390140     CCXExtUI.res
 0005:0035a498       $R342AF8                   0000000180390498     CCXExtUI.res
 0005:0035a680       $R342CE0                   0000000180390680     CCXExtUI.res
 0005:0035a7a8       $R342E08                   00000001803907a8     CCXExtUI.res
 0005:0035ac70       $R3432D0                   0000000180390c70     CCXExtUI.res
 0005:0035afc0       $R343620                   0000000180390fc0     CCXExtUI.res
 0005:0035b2e8       $R343948                   00000001803912e8     CCXExtUI.res
 0005:0035b4e8       $R343B48                   00000001803914e8     CCXExtUI.res
 0005:0035b600       $R343C60                   0000000180391600     CCXExtUI.res
 0005:0035bae0       $R344140                   0000000180391ae0     CCXExtUI.res
 0005:0035be50       $R3444B0                   0000000180391e50     CCXExtUI.res
 0005:0035c150       $R3447B0                   0000000180392150     CCXExtUI.res
 0005:0035c350       $R3449B0                   0000000180392350     CCXExtUI.res
 0005:0035c478       $R344AD8                   0000000180392478     CCXExtUI.res
 0005:0035c9c0       $R345020                   00000001803929c0     CCXExtUI.res
 0005:0035cdc0       $R345420                   0000000180392dc0     CCXExtUI.res
 0005:0035d0f0       $R345750                   00000001803930f0     CCXExtUI.res
 0005:0035d310       $R345970                   0000000180393310     CCXExtUI.res
 0005:0035d428       $R345A88                   0000000180393428     CCXExtUI.res
 0005:0035d920       $R345F80                   0000000180393920     CCXExtUI.res
 0005:0035dcc8       $R346328                   0000000180393cc8     CCXExtUI.res
 0005:0035dfe8       $R346648                   0000000180393fe8     CCXExtUI.res
 0005:0035e1c0       $R346820                   00000001803941c0     CCXExtUI.res
 0005:0035e2e0       $R346940                   00000001803942e0     CCXExtUI.res
 0005:0035e820       $R346E80                   0000000180394820     CCXExtUI.res
 0005:0035eb68       $R3471C8                   0000000180394b68     CCXExtUI.res
 0005:0035ee48       $R3474A8                   0000000180394e48     CCXExtUI.res
 0005:0035f018       $R347678                   0000000180395018     CCXExtUI.res
 0005:0035f148       $R3477A8                   0000000180395148     CCXExtUI.res
 0005:0035f5d0       $R347C30                   00000001803955d0     CCXExtUI.res
 0005:0035f928       $R347F88                   0000000180395928     CCXExtUI.res
 0005:0035fc50       $R3482B0                   0000000180395c50     CCXExtUI.res
 0005:0035fe38       $R348498                   0000000180395e38     CCXExtUI.res
